SF:/Users/garthdb/Projects/rust-jira-mcp/src/config/jira.rs
FN:104,_RNCNvMs_NtNtCskhkPsqpzxNu_13rust_jira_mcp6config4jiraNtB6_10JiraConfig17load_with_secrets0Ba_
FN:77,_RNCNvMs_NtNtCskhkPsqpzxNu_13rust_jira_mcp6config4jiraNtB6_10JiraConfig4load0Ba_
FN:134,_RNCNvMs_NtNtCskhkPsqpzxNu_13rust_jira_mcp6config4jiraNtB6_10JiraConfig8validate0Ba_
FN:154,_RNCNvMs_NtNtCskhkPsqpzxNu_13rust_jira_mcp6config4jiraNtB6_10JiraConfig8validates_0Ba_
FN:87,_RNvMs_NtNtCskhkPsqpzxNu_13rust_jira_mcp6config4jiraNtB4_10JiraConfig11auth_header
FN:92,_RNvMs_NtNtCskhkPsqpzxNu_13rust_jira_mcp6config4jiraNtB4_10JiraConfig16timeout_duration
FN:104,_RNvMs_NtNtCskhkPsqpzxNu_13rust_jira_mcp6config4jiraNtB4_10JiraConfig17load_with_secrets
FN:41,_RNvMs_NtNtCskhkPsqpzxNu_13rust_jira_mcp6config4jiraNtB4_10JiraConfig4load
FN:127,_RNvMs_NtNtCskhkPsqpzxNu_13rust_jira_mcp6config4jiraNtB4_10JiraConfig8validate
FN:20,_RNvXNtNtCskhkPsqpzxNu_13rust_jira_mcp6config4jiraNtB2_10JiraConfigNtNtCs99E9PC2tmbt_4core7default7Default7default
FN:104,_RNCNvMs_NtNtCskhkPsqpzxNu_13rust_jira_mcp6config4jiraNtB6_10JiraConfig17load_with_secrets0CskJEy2L8KvEw_21main_integration_test
FN:104,_RNCNvMs_NtNtCslEfzt21w4nZ_13rust_jira_mcp6config4jiraNtB6_10JiraConfig17load_with_secrets0Ba_
FN:77,_RNCNvMs_NtNtCslEfzt21w4nZ_13rust_jira_mcp6config4jiraNtB6_10JiraConfig4load0Ba_
FN:134,_RNCNvMs_NtNtCslEfzt21w4nZ_13rust_jira_mcp6config4jiraNtB6_10JiraConfig8validate0Ba_
FN:154,_RNCNvMs_NtNtCslEfzt21w4nZ_13rust_jira_mcp6config4jiraNtB6_10JiraConfig8validates_0Ba_
FN:87,_RNvMs_NtNtCslEfzt21w4nZ_13rust_jira_mcp6config4jiraNtB4_10JiraConfig11auth_header
FN:92,_RNvMs_NtNtCslEfzt21w4nZ_13rust_jira_mcp6config4jiraNtB4_10JiraConfig16timeout_duration
FN:104,_RNvMs_NtNtCslEfzt21w4nZ_13rust_jira_mcp6config4jiraNtB4_10JiraConfig17load_with_secrets
FN:41,_RNvMs_NtNtCslEfzt21w4nZ_13rust_jira_mcp6config4jiraNtB4_10JiraConfig4load
FN:127,_RNvMs_NtNtCslEfzt21w4nZ_13rust_jira_mcp6config4jiraNtB4_10JiraConfig8validate
FN:20,_RNvXNtNtCslEfzt21w4nZ_13rust_jira_mcp6config4jiraNtB2_10JiraConfigNtNtCs99E9PC2tmbt_4core7default7Default7default
FN:104,_RNCNvMs_NtNtCsbRuuH6jbcRQ_13rust_jira_mcp6config4jiraNtB6_10JiraConfig17load_with_secrets0Ba_
FN:77,_RNCNvMs_NtNtCsbRuuH6jbcRQ_13rust_jira_mcp6config4jiraNtB6_10JiraConfig4load0Ba_
FN:134,_RNCNvMs_NtNtCsbRuuH6jbcRQ_13rust_jira_mcp6config4jiraNtB6_10JiraConfig8validate0Ba_
FN:154,_RNCNvMs_NtNtCsbRuuH6jbcRQ_13rust_jira_mcp6config4jiraNtB6_10JiraConfig8validates_0Ba_
FN:87,_RNvMs_NtNtCsbRuuH6jbcRQ_13rust_jira_mcp6config4jiraNtB4_10JiraConfig11auth_header
FN:92,_RNvMs_NtNtCsbRuuH6jbcRQ_13rust_jira_mcp6config4jiraNtB4_10JiraConfig16timeout_duration
FN:104,_RNvMs_NtNtCsbRuuH6jbcRQ_13rust_jira_mcp6config4jiraNtB4_10JiraConfig17load_with_secrets
FN:41,_RNvMs_NtNtCsbRuuH6jbcRQ_13rust_jira_mcp6config4jiraNtB4_10JiraConfig4load
FN:127,_RNvMs_NtNtCsbRuuH6jbcRQ_13rust_jira_mcp6config4jiraNtB4_10JiraConfig8validate
FN:20,_RNvXNtNtCsbRuuH6jbcRQ_13rust_jira_mcp6config4jiraNtB2_10JiraConfigNtNtCs99E9PC2tmbt_4core7default7Default7default
FN:104,_RNCNvMs_NtNtCs6CcTQqNWjGP_13rust_jira_mcp6config4jiraNtB6_10JiraConfig17load_with_secrets0Ba_
FN:77,_RNCNvMs_NtNtCs6CcTQqNWjGP_13rust_jira_mcp6config4jiraNtB6_10JiraConfig4load0Ba_
FN:134,_RNCNvMs_NtNtCs6CcTQqNWjGP_13rust_jira_mcp6config4jiraNtB6_10JiraConfig8validate0Ba_
FN:154,_RNCNvMs_NtNtCs6CcTQqNWjGP_13rust_jira_mcp6config4jiraNtB6_10JiraConfig8validates_0Ba_
FN:87,_RNvMs_NtNtCs6CcTQqNWjGP_13rust_jira_mcp6config4jiraNtB4_10JiraConfig11auth_header
FN:92,_RNvMs_NtNtCs6CcTQqNWjGP_13rust_jira_mcp6config4jiraNtB4_10JiraConfig16timeout_duration
FN:104,_RNvMs_NtNtCs6CcTQqNWjGP_13rust_jira_mcp6config4jiraNtB4_10JiraConfig17load_with_secrets
FN:41,_RNvMs_NtNtCs6CcTQqNWjGP_13rust_jira_mcp6config4jiraNtB4_10JiraConfig4load
FN:127,_RNvMs_NtNtCs6CcTQqNWjGP_13rust_jira_mcp6config4jiraNtB4_10JiraConfig8validate
FN:20,_RNvXNtNtCs6CcTQqNWjGP_13rust_jira_mcp6config4jiraNtB2_10JiraConfigNtNtCs99E9PC2tmbt_4core7default7Default7default
FNDA:0,_RNCNvMs_NtNtCskhkPsqpzxNu_13rust_jira_mcp6config4jiraNtB6_10JiraConfig17load_with_secrets0Ba_
FNDA:0,_RNCNvMs_NtNtCskhkPsqpzxNu_13rust_jira_mcp6config4jiraNtB6_10JiraConfig4load0Ba_
FNDA:16,_RNCNvMs_NtNtCskhkPsqpzxNu_13rust_jira_mcp6config4jiraNtB6_10JiraConfig8validate0Ba_
FNDA:7,_RNCNvMs_NtNtCskhkPsqpzxNu_13rust_jira_mcp6config4jiraNtB6_10JiraConfig8validates_0Ba_
FNDA:79,_RNvMs_NtNtCskhkPsqpzxNu_13rust_jira_mcp6config4jiraNtB4_10JiraConfig11auth_header
FNDA:1760,_RNvMs_NtNtCskhkPsqpzxNu_13rust_jira_mcp6config4jiraNtB4_10JiraConfig16timeout_duration
FNDA:1,_RNvMs_NtNtCskhkPsqpzxNu_13rust_jira_mcp6config4jiraNtB4_10JiraConfig17load_with_secrets
FNDA:1,_RNvMs_NtNtCskhkPsqpzxNu_13rust_jira_mcp6config4jiraNtB4_10JiraConfig4load
FNDA:17,_RNvMs_NtNtCskhkPsqpzxNu_13rust_jira_mcp6config4jiraNtB4_10JiraConfig8validate
FNDA:30,_RNvXNtNtCskhkPsqpzxNu_13rust_jira_mcp6config4jiraNtB2_10JiraConfigNtNtCs99E9PC2tmbt_4core7default7Default7default
FNDA:1,_RNCNvMs_NtNtCskhkPsqpzxNu_13rust_jira_mcp6config4jiraNtB6_10JiraConfig17load_with_secrets0CskJEy2L8KvEw_21main_integration_test
FNDA:0,_RNCNvMs_NtNtCslEfzt21w4nZ_13rust_jira_mcp6config4jiraNtB6_10JiraConfig17load_with_secrets0Ba_
FNDA:0,_RNCNvMs_NtNtCslEfzt21w4nZ_13rust_jira_mcp6config4jiraNtB6_10JiraConfig4load0Ba_
FNDA:0,_RNCNvMs_NtNtCslEfzt21w4nZ_13rust_jira_mcp6config4jiraNtB6_10JiraConfig8validate0Ba_
FNDA:0,_RNCNvMs_NtNtCslEfzt21w4nZ_13rust_jira_mcp6config4jiraNtB6_10JiraConfig8validates_0Ba_
FNDA:0,_RNvMs_NtNtCslEfzt21w4nZ_13rust_jira_mcp6config4jiraNtB4_10JiraConfig11auth_header
FNDA:0,_RNvMs_NtNtCslEfzt21w4nZ_13rust_jira_mcp6config4jiraNtB4_10JiraConfig16timeout_duration
FNDA:0,_RNvMs_NtNtCslEfzt21w4nZ_13rust_jira_mcp6config4jiraNtB4_10JiraConfig17load_with_secrets
FNDA:0,_RNvMs_NtNtCslEfzt21w4nZ_13rust_jira_mcp6config4jiraNtB4_10JiraConfig4load
FNDA:0,_RNvMs_NtNtCslEfzt21w4nZ_13rust_jira_mcp6config4jiraNtB4_10JiraConfig8validate
FNDA:0,_RNvXNtNtCslEfzt21w4nZ_13rust_jira_mcp6config4jiraNtB2_10JiraConfigNtNtCs99E9PC2tmbt_4core7default7Default7default
FNDA:0,_RNCNvMs_NtNtCsbRuuH6jbcRQ_13rust_jira_mcp6config4jiraNtB6_10JiraConfig17load_with_secrets0Ba_
FNDA:0,_RNCNvMs_NtNtCsbRuuH6jbcRQ_13rust_jira_mcp6config4jiraNtB6_10JiraConfig4load0Ba_
FNDA:0,_RNCNvMs_NtNtCsbRuuH6jbcRQ_13rust_jira_mcp6config4jiraNtB6_10JiraConfig8validate0Ba_
FNDA:0,_RNCNvMs_NtNtCsbRuuH6jbcRQ_13rust_jira_mcp6config4jiraNtB6_10JiraConfig8validates_0Ba_
FNDA:0,_RNvMs_NtNtCsbRuuH6jbcRQ_13rust_jira_mcp6config4jiraNtB4_10JiraConfig11auth_header
FNDA:0,_RNvMs_NtNtCsbRuuH6jbcRQ_13rust_jira_mcp6config4jiraNtB4_10JiraConfig16timeout_duration
FNDA:0,_RNvMs_NtNtCsbRuuH6jbcRQ_13rust_jira_mcp6config4jiraNtB4_10JiraConfig17load_with_secrets
FNDA:0,_RNvMs_NtNtCsbRuuH6jbcRQ_13rust_jira_mcp6config4jiraNtB4_10JiraConfig4load
FNDA:0,_RNvMs_NtNtCsbRuuH6jbcRQ_13rust_jira_mcp6config4jiraNtB4_10JiraConfig8validate
FNDA:0,_RNvXNtNtCsbRuuH6jbcRQ_13rust_jira_mcp6config4jiraNtB2_10JiraConfigNtNtCs99E9PC2tmbt_4core7default7Default7default
FNDA:0,_RNCNvMs_NtNtCs6CcTQqNWjGP_13rust_jira_mcp6config4jiraNtB6_10JiraConfig17load_with_secrets0Ba_
FNDA:0,_RNCNvMs_NtNtCs6CcTQqNWjGP_13rust_jira_mcp6config4jiraNtB6_10JiraConfig4load0Ba_
FNDA:0,_RNCNvMs_NtNtCs6CcTQqNWjGP_13rust_jira_mcp6config4jiraNtB6_10JiraConfig8validate0Ba_
FNDA:0,_RNCNvMs_NtNtCs6CcTQqNWjGP_13rust_jira_mcp6config4jiraNtB6_10JiraConfig8validates_0Ba_
FNDA:0,_RNvMs_NtNtCs6CcTQqNWjGP_13rust_jira_mcp6config4jiraNtB4_10JiraConfig11auth_header
FNDA:0,_RNvMs_NtNtCs6CcTQqNWjGP_13rust_jira_mcp6config4jiraNtB4_10JiraConfig16timeout_duration
FNDA:0,_RNvMs_NtNtCs6CcTQqNWjGP_13rust_jira_mcp6config4jiraNtB4_10JiraConfig17load_with_secrets
FNDA:0,_RNvMs_NtNtCs6CcTQqNWjGP_13rust_jira_mcp6config4jiraNtB4_10JiraConfig4load
FNDA:0,_RNvMs_NtNtCs6CcTQqNWjGP_13rust_jira_mcp6config4jiraNtB4_10JiraConfig8validate
FNDA:0,_RNvXNtNtCs6CcTQqNWjGP_13rust_jira_mcp6config4jiraNtB2_10JiraConfigNtNtCs99E9PC2tmbt_4core7default7Default7default
FNF:10
FNH:9
DA:20,30
DA:21,30
DA:22,30
DA:23,30
DA:24,30
DA:25,30
DA:26,30
DA:27,30
DA:28,30
DA:29,30
DA:30,30
DA:31,30
DA:41,1
DA:43,1
DA:44,0
DA:45,1
DA:46,1
DA:47,1
DA:49,1
DA:50,1
DA:51,1
DA:52,1
DA:55,1
DA:56,0
DA:57,1
DA:59,1
DA:61,1
DA:62,1
DA:63,1
DA:66,1
DA:67,0
DA:68,1
DA:69,1
DA:70,0
DA:71,1
DA:74,1
DA:75,1
DA:76,1
DA:77,1
DA:78,1
DA:79,1
DA:81,0
DA:83,1
DA:84,1
DA:87,79
DA:88,79
DA:89,79
DA:92,1760
DA:93,1760
DA:94,1760
DA:104,1
DA:105,1
DA:108,1
DA:109,1
DA:110,1
DA:112,1
DA:113,1
DA:114,1
DA:116,1
DA:117,1
DA:127,17
DA:130,17
DA:131,17
DA:132,17
DA:133,17
DA:134,17
DA:135,16
DA:136,12
DA:137,10
DA:138,9
DA:140,9
DA:142,7
DA:144,16
DA:146,17
DA:147,17
DA:148,17
DA:149,17
DA:151,17
DA:152,17
DA:153,17
DA:154,17
DA:155,7
DA:156,6
DA:158,1
DA:160,7
DA:163,17
DA:164,9
DA:165,7
DA:167,6
DA:168,17
BRF:0
BRH:0
LF:94
LH:88
end_of_record
SF:/Users/garthdb/Projects/rust-jira-mcp/src/config/manager.rs
FN:95,_RNCNvMs_NtNtCskhkPsqpzxNu_13rust_jira_mcp6config7managerNtB6_13ConfigManager10get_config0Ba_
FN:83,_RNCNvMs_NtNtCskhkPsqpzxNu_13rust_jira_mcp6config7managerNtB6_13ConfigManager17load_with_options0Ba_
FN:109,_RNCNvMs_NtNtCskhkPsqpzxNu_13rust_jira_mcp6config7managerNtB6_13ConfigManager17enable_hot_reload0Ba_
FN:129,_RNCNvMs_NtNtCskhkPsqpzxNu_13rust_jira_mcp6config7managerNtB6_13ConfigManager17enable_hot_reloads_0Ba_
FN:310,_RNCNvMs_NtNtCskhkPsqpzxNu_13rust_jira_mcp6config7managerNtB6_13ConfigManager18get_config_sources0Ba_
FN:168,_RNCNvMs_NtNtCskhkPsqpzxNu_13rust_jira_mcp6config7managerNtB6_13ConfigManager31load_config_from_sources_static0Ba_
FN:208,_RNCNvMs_NtNtCskhkPsqpzxNu_13rust_jira_mcp6config7managerNtB6_13ConfigManager31load_config_from_sources_statics0_0Ba_
FN:180,_RNCNvMs_NtNtCskhkPsqpzxNu_13rust_jira_mcp6config7managerNtB6_13ConfigManager31load_config_from_sources_statics_0Ba_
FN:95,_RNvMs_NtNtCskhkPsqpzxNu_13rust_jira_mcp6config7managerNtB4_13ConfigManager10get_config
FN:287,_RNvMs_NtNtCskhkPsqpzxNu_13rust_jira_mcp6config7managerNtB4_13ConfigManager12is_valid_url
FN:279,_RNvMs_NtNtCskhkPsqpzxNu_13rust_jira_mcp6config7managerNtB4_13ConfigManager14is_valid_email
FN:218,_RNvMs_NtNtCskhkPsqpzxNu_13rust_jira_mcp6config7managerNtB4_13ConfigManager15validate_config
FN:100,_RNvMs_NtNtCskhkPsqpzxNu_13rust_jira_mcp6config7managerNtB4_13ConfigManager17enable_hot_reload
FN:83,_RNvMs_NtNtCskhkPsqpzxNu_13rust_jira_mcp6config7managerNtB4_13ConfigManager17load_with_options
FN:293,_RNvMs_NtNtCskhkPsqpzxNu_13rust_jira_mcp6config7managerNtB4_13ConfigManager18get_config_sources
FN:323,_RNvMs_NtNtCskhkPsqpzxNu_13rust_jira_mcp6config7managerNtB4_13ConfigManager21is_hot_reload_enabled
FN:147,_RNvMs_NtNtCskhkPsqpzxNu_13rust_jira_mcp6config7managerNtB4_13ConfigManager24load_config_from_sources
FN:152,_RNvMs_NtNtCskhkPsqpzxNu_13rust_jira_mcp6config7managerNtB4_13ConfigManager31load_config_from_sources_static
FN:66,_RNvMs_NtNtCskhkPsqpzxNu_13rust_jira_mcp6config7managerNtB4_13ConfigManager3new
FN:53,_RNvXNtNtCskhkPsqpzxNu_13rust_jira_mcp6config7managerNtB2_13ConfigOptionsNtNtCs99E9PC2tmbt_4core7default7Default7default
FN:329,_RNvXs0_NtNtCskhkPsqpzxNu_13rust_jira_mcp6config7managerNtB5_13ConfigManagerNtNtCs99E9PC2tmbt_4core7default7Default7default
FN:95,_RNCNvMs_NtNtCskhkPsqpzxNu_13rust_jira_mcp6config7managerNtB6_13ConfigManager10get_config0CsbwnEFz3RETB_19config_manager_test
FN:83,_RNCNvMs_NtNtCskhkPsqpzxNu_13rust_jira_mcp6config7managerNtB6_13ConfigManager17load_with_options0CsbwnEFz3RETB_19config_manager_test
FN:95,_RNCNvMs_NtNtCskhkPsqpzxNu_13rust_jira_mcp6config7managerNtB6_13ConfigManager10get_config0CsfFwibxTw3OB_18configuration_test
FN:83,_RNCNvMs_NtNtCskhkPsqpzxNu_13rust_jira_mcp6config7managerNtB6_13ConfigManager17load_with_options0CsfFwibxTw3OB_18configuration_test
FN:95,_RNCNvMs_NtNtCskhkPsqpzxNu_13rust_jira_mcp6config7managerNtB6_13ConfigManager10get_config0CskJEy2L8KvEw_21main_integration_test
FN:83,_RNCNvMs_NtNtCskhkPsqpzxNu_13rust_jira_mcp6config7managerNtB6_13ConfigManager17load_with_options0CskJEy2L8KvEw_21main_integration_test
FN:329,_RNvXs0_NtNtCslEfzt21w4nZ_13rust_jira_mcp6config7managerNtB5_13ConfigManagerNtNtCs99E9PC2tmbt_4core7default7Default7default
FN:95,_RNvMs_NtNtCslEfzt21w4nZ_13rust_jira_mcp6config7managerNtB4_13ConfigManager10get_config
FN:287,_RNvMs_NtNtCslEfzt21w4nZ_13rust_jira_mcp6config7managerNtB4_13ConfigManager12is_valid_url
FN:279,_RNvMs_NtNtCslEfzt21w4nZ_13rust_jira_mcp6config7managerNtB4_13ConfigManager14is_valid_email
FN:218,_RNvMs_NtNtCslEfzt21w4nZ_13rust_jira_mcp6config7managerNtB4_13ConfigManager15validate_config
FN:100,_RNvMs_NtNtCslEfzt21w4nZ_13rust_jira_mcp6config7managerNtB4_13ConfigManager17enable_hot_reload
FN:83,_RNvMs_NtNtCslEfzt21w4nZ_13rust_jira_mcp6config7managerNtB4_13ConfigManager17load_with_options
FN:293,_RNvMs_NtNtCslEfzt21w4nZ_13rust_jira_mcp6config7managerNtB4_13ConfigManager18get_config_sources
FN:323,_RNvMs_NtNtCslEfzt21w4nZ_13rust_jira_mcp6config7managerNtB4_13ConfigManager21is_hot_reload_enabled
FN:147,_RNvMs_NtNtCslEfzt21w4nZ_13rust_jira_mcp6config7managerNtB4_13ConfigManager24load_config_from_sources
FN:152,_RNvMs_NtNtCslEfzt21w4nZ_13rust_jira_mcp6config7managerNtB4_13ConfigManager31load_config_from_sources_static
FN:66,_RNvMs_NtNtCslEfzt21w4nZ_13rust_jira_mcp6config7managerNtB4_13ConfigManager3new
FN:53,_RNvXNtNtCslEfzt21w4nZ_13rust_jira_mcp6config7managerNtB2_13ConfigOptionsNtNtCs99E9PC2tmbt_4core7default7Default7default
FN:95,_RNCNvMs_NtNtCslEfzt21w4nZ_13rust_jira_mcp6config7managerNtB6_13ConfigManager10get_config0Ba_
FN:109,_RNCNvMs_NtNtCslEfzt21w4nZ_13rust_jira_mcp6config7managerNtB6_13ConfigManager17enable_hot_reload0Ba_
FN:129,_RNCNvMs_NtNtCslEfzt21w4nZ_13rust_jira_mcp6config7managerNtB6_13ConfigManager17enable_hot_reloads_0Ba_
FN:83,_RNCNvMs_NtNtCslEfzt21w4nZ_13rust_jira_mcp6config7managerNtB6_13ConfigManager17load_with_options0Ba_
FN:310,_RNCNvMs_NtNtCslEfzt21w4nZ_13rust_jira_mcp6config7managerNtB6_13ConfigManager18get_config_sources0Ba_
FN:168,_RNCNvMs_NtNtCslEfzt21w4nZ_13rust_jira_mcp6config7managerNtB6_13ConfigManager31load_config_from_sources_static0Ba_
FN:208,_RNCNvMs_NtNtCslEfzt21w4nZ_13rust_jira_mcp6config7managerNtB6_13ConfigManager31load_config_from_sources_statics0_0Ba_
FN:180,_RNCNvMs_NtNtCslEfzt21w4nZ_13rust_jira_mcp6config7managerNtB6_13ConfigManager31load_config_from_sources_statics_0Ba_
FN:95,_RNCNvMs_NtNtCsbRuuH6jbcRQ_13rust_jira_mcp6config7managerNtB6_13ConfigManager10get_config0Ba_
FN:109,_RNCNvMs_NtNtCsbRuuH6jbcRQ_13rust_jira_mcp6config7managerNtB6_13ConfigManager17enable_hot_reload0Ba_
FN:129,_RNCNvMs_NtNtCsbRuuH6jbcRQ_13rust_jira_mcp6config7managerNtB6_13ConfigManager17enable_hot_reloads_0Ba_
FN:83,_RNCNvMs_NtNtCsbRuuH6jbcRQ_13rust_jira_mcp6config7managerNtB6_13ConfigManager17load_with_options0Ba_
FN:310,_RNCNvMs_NtNtCsbRuuH6jbcRQ_13rust_jira_mcp6config7managerNtB6_13ConfigManager18get_config_sources0Ba_
FN:168,_RNCNvMs_NtNtCsbRuuH6jbcRQ_13rust_jira_mcp6config7managerNtB6_13ConfigManager31load_config_from_sources_static0Ba_
FN:208,_RNCNvMs_NtNtCsbRuuH6jbcRQ_13rust_jira_mcp6config7managerNtB6_13ConfigManager31load_config_from_sources_statics0_0Ba_
FN:180,_RNCNvMs_NtNtCsbRuuH6jbcRQ_13rust_jira_mcp6config7managerNtB6_13ConfigManager31load_config_from_sources_statics_0Ba_
FN:95,_RNvMs_NtNtCsbRuuH6jbcRQ_13rust_jira_mcp6config7managerNtB4_13ConfigManager10get_config
FN:287,_RNvMs_NtNtCsbRuuH6jbcRQ_13rust_jira_mcp6config7managerNtB4_13ConfigManager12is_valid_url
FN:279,_RNvMs_NtNtCsbRuuH6jbcRQ_13rust_jira_mcp6config7managerNtB4_13ConfigManager14is_valid_email
FN:218,_RNvMs_NtNtCsbRuuH6jbcRQ_13rust_jira_mcp6config7managerNtB4_13ConfigManager15validate_config
FN:100,_RNvMs_NtNtCsbRuuH6jbcRQ_13rust_jira_mcp6config7managerNtB4_13ConfigManager17enable_hot_reload
FN:83,_RNvMs_NtNtCsbRuuH6jbcRQ_13rust_jira_mcp6config7managerNtB4_13ConfigManager17load_with_options
FN:293,_RNvMs_NtNtCsbRuuH6jbcRQ_13rust_jira_mcp6config7managerNtB4_13ConfigManager18get_config_sources
FN:323,_RNvMs_NtNtCsbRuuH6jbcRQ_13rust_jira_mcp6config7managerNtB4_13ConfigManager21is_hot_reload_enabled
FN:147,_RNvMs_NtNtCsbRuuH6jbcRQ_13rust_jira_mcp6config7managerNtB4_13ConfigManager24load_config_from_sources
FN:152,_RNvMs_NtNtCsbRuuH6jbcRQ_13rust_jira_mcp6config7managerNtB4_13ConfigManager31load_config_from_sources_static
FN:66,_RNvMs_NtNtCsbRuuH6jbcRQ_13rust_jira_mcp6config7managerNtB4_13ConfigManager3new
FN:53,_RNvXNtNtCsbRuuH6jbcRQ_13rust_jira_mcp6config7managerNtB2_13ConfigOptionsNtNtCs99E9PC2tmbt_4core7default7Default7default
FN:329,_RNvXs0_NtNtCsbRuuH6jbcRQ_13rust_jira_mcp6config7managerNtB5_13ConfigManagerNtNtCs99E9PC2tmbt_4core7default7Default7default
FN:95,_RNCNvMs_NtNtCs6CcTQqNWjGP_13rust_jira_mcp6config7managerNtB6_13ConfigManager10get_config0Ba_
FN:109,_RNCNvMs_NtNtCs6CcTQqNWjGP_13rust_jira_mcp6config7managerNtB6_13ConfigManager17enable_hot_reload0Ba_
FN:129,_RNCNvMs_NtNtCs6CcTQqNWjGP_13rust_jira_mcp6config7managerNtB6_13ConfigManager17enable_hot_reloads_0Ba_
FN:83,_RNCNvMs_NtNtCs6CcTQqNWjGP_13rust_jira_mcp6config7managerNtB6_13ConfigManager17load_with_options0Ba_
FN:310,_RNCNvMs_NtNtCs6CcTQqNWjGP_13rust_jira_mcp6config7managerNtB6_13ConfigManager18get_config_sources0Ba_
FN:168,_RNCNvMs_NtNtCs6CcTQqNWjGP_13rust_jira_mcp6config7managerNtB6_13ConfigManager31load_config_from_sources_static0Ba_
FN:208,_RNCNvMs_NtNtCs6CcTQqNWjGP_13rust_jira_mcp6config7managerNtB6_13ConfigManager31load_config_from_sources_statics0_0Ba_
FN:180,_RNCNvMs_NtNtCs6CcTQqNWjGP_13rust_jira_mcp6config7managerNtB6_13ConfigManager31load_config_from_sources_statics_0Ba_
FN:95,_RNvMs_NtNtCs6CcTQqNWjGP_13rust_jira_mcp6config7managerNtB4_13ConfigManager10get_config
FN:287,_RNvMs_NtNtCs6CcTQqNWjGP_13rust_jira_mcp6config7managerNtB4_13ConfigManager12is_valid_url
FN:279,_RNvMs_NtNtCs6CcTQqNWjGP_13rust_jira_mcp6config7managerNtB4_13ConfigManager14is_valid_email
FN:218,_RNvMs_NtNtCs6CcTQqNWjGP_13rust_jira_mcp6config7managerNtB4_13ConfigManager15validate_config
FN:100,_RNvMs_NtNtCs6CcTQqNWjGP_13rust_jira_mcp6config7managerNtB4_13ConfigManager17enable_hot_reload
FN:83,_RNvMs_NtNtCs6CcTQqNWjGP_13rust_jira_mcp6config7managerNtB4_13ConfigManager17load_with_options
FN:293,_RNvMs_NtNtCs6CcTQqNWjGP_13rust_jira_mcp6config7managerNtB4_13ConfigManager18get_config_sources
FN:323,_RNvMs_NtNtCs6CcTQqNWjGP_13rust_jira_mcp6config7managerNtB4_13ConfigManager21is_hot_reload_enabled
FN:147,_RNvMs_NtNtCs6CcTQqNWjGP_13rust_jira_mcp6config7managerNtB4_13ConfigManager24load_config_from_sources
FN:152,_RNvMs_NtNtCs6CcTQqNWjGP_13rust_jira_mcp6config7managerNtB4_13ConfigManager31load_config_from_sources_static
FN:66,_RNvMs_NtNtCs6CcTQqNWjGP_13rust_jira_mcp6config7managerNtB4_13ConfigManager3new
FN:53,_RNvXNtNtCs6CcTQqNWjGP_13rust_jira_mcp6config7managerNtB2_13ConfigOptionsNtNtCs99E9PC2tmbt_4core7default7Default7default
FN:329,_RNvXs0_NtNtCs6CcTQqNWjGP_13rust_jira_mcp6config7managerNtB5_13ConfigManagerNtNtCs99E9PC2tmbt_4core7default7Default7default
FNDA:0,_RNCNvMs_NtNtCskhkPsqpzxNu_13rust_jira_mcp6config7managerNtB6_13ConfigManager10get_config0Ba_
FNDA:0,_RNCNvMs_NtNtCskhkPsqpzxNu_13rust_jira_mcp6config7managerNtB6_13ConfigManager17load_with_options0Ba_
FNDA:0,_RNCNvMs_NtNtCskhkPsqpzxNu_13rust_jira_mcp6config7managerNtB6_13ConfigManager17enable_hot_reload0Ba_
FNDA:0,_RNCNvMs_NtNtCskhkPsqpzxNu_13rust_jira_mcp6config7managerNtB6_13ConfigManager17enable_hot_reloads_0Ba_
FNDA:0,_RNCNvMs_NtNtCskhkPsqpzxNu_13rust_jira_mcp6config7managerNtB6_13ConfigManager18get_config_sources0Ba_
FNDA:4,_RNCNvMs_NtNtCskhkPsqpzxNu_13rust_jira_mcp6config7managerNtB6_13ConfigManager31load_config_from_sources_static0Ba_
FNDA:0,_RNCNvMs_NtNtCskhkPsqpzxNu_13rust_jira_mcp6config7managerNtB6_13ConfigManager31load_config_from_sources_statics0_0Ba_
FNDA:2,_RNCNvMs_NtNtCskhkPsqpzxNu_13rust_jira_mcp6config7managerNtB6_13ConfigManager31load_config_from_sources_statics_0Ba_
FNDA:13,_RNvMs_NtNtCskhkPsqpzxNu_13rust_jira_mcp6config7managerNtB4_13ConfigManager10get_config
FNDA:9,_RNvMs_NtNtCskhkPsqpzxNu_13rust_jira_mcp6config7managerNtB4_13ConfigManager12is_valid_url
FNDA:9,_RNvMs_NtNtCskhkPsqpzxNu_13rust_jira_mcp6config7managerNtB4_13ConfigManager14is_valid_email
FNDA:9,_RNvMs_NtNtCskhkPsqpzxNu_13rust_jira_mcp6config7managerNtB4_13ConfigManager15validate_config
FNDA:1,_RNvMs_NtNtCskhkPsqpzxNu_13rust_jira_mcp6config7managerNtB4_13ConfigManager17enable_hot_reload
FNDA:18,_RNvMs_NtNtCskhkPsqpzxNu_13rust_jira_mcp6config7managerNtB4_13ConfigManager17load_with_options
FNDA:11,_RNvMs_NtNtCskhkPsqpzxNu_13rust_jira_mcp6config7managerNtB4_13ConfigManager18get_config_sources
FNDA:6,_RNvMs_NtNtCskhkPsqpzxNu_13rust_jira_mcp6config7managerNtB4_13ConfigManager21is_hot_reload_enabled
FNDA:18,_RNvMs_NtNtCskhkPsqpzxNu_13rust_jira_mcp6config7managerNtB4_13ConfigManager24load_config_from_sources
FNDA:18,_RNvMs_NtNtCskhkPsqpzxNu_13rust_jira_mcp6config7managerNtB4_13ConfigManager31load_config_from_sources_static
FNDA:27,_RNvMs_NtNtCskhkPsqpzxNu_13rust_jira_mcp6config7managerNtB4_13ConfigManager3new
FNDA:2,_RNvXNtNtCskhkPsqpzxNu_13rust_jira_mcp6config7managerNtB2_13ConfigOptionsNtNtCs99E9PC2tmbt_4core7default7Default7default
FNDA:1,_RNvXs0_NtNtCskhkPsqpzxNu_13rust_jira_mcp6config7managerNtB5_13ConfigManagerNtNtCs99E9PC2tmbt_4core7default7Default7default
FNDA:10,_RNCNvMs_NtNtCskhkPsqpzxNu_13rust_jira_mcp6config7managerNtB6_13ConfigManager10get_config0CsbwnEFz3RETB_19config_manager_test
FNDA:14,_RNCNvMs_NtNtCskhkPsqpzxNu_13rust_jira_mcp6config7managerNtB6_13ConfigManager17load_with_options0CsbwnEFz3RETB_19config_manager_test
FNDA:2,_RNCNvMs_NtNtCskhkPsqpzxNu_13rust_jira_mcp6config7managerNtB6_13ConfigManager10get_config0CsfFwibxTw3OB_18configuration_test
FNDA:2,_RNCNvMs_NtNtCskhkPsqpzxNu_13rust_jira_mcp6config7managerNtB6_13ConfigManager17load_with_options0CsfFwibxTw3OB_18configuration_test
FNDA:1,_RNCNvMs_NtNtCskhkPsqpzxNu_13rust_jira_mcp6config7managerNtB6_13ConfigManager10get_config0CskJEy2L8KvEw_21main_integration_test
FNDA:2,_RNCNvMs_NtNtCskhkPsqpzxNu_13rust_jira_mcp6config7managerNtB6_13ConfigManager17load_with_options0CskJEy2L8KvEw_21main_integration_test
FNDA:0,_RNvXs0_NtNtCslEfzt21w4nZ_13rust_jira_mcp6config7managerNtB5_13ConfigManagerNtNtCs99E9PC2tmbt_4core7default7Default7default
FNDA:0,_RNvMs_NtNtCslEfzt21w4nZ_13rust_jira_mcp6config7managerNtB4_13ConfigManager10get_config
FNDA:0,_RNvMs_NtNtCslEfzt21w4nZ_13rust_jira_mcp6config7managerNtB4_13ConfigManager12is_valid_url
FNDA:0,_RNvMs_NtNtCslEfzt21w4nZ_13rust_jira_mcp6config7managerNtB4_13ConfigManager14is_valid_email
FNDA:0,_RNvMs_NtNtCslEfzt21w4nZ_13rust_jira_mcp6config7managerNtB4_13ConfigManager15validate_config
FNDA:0,_RNvMs_NtNtCslEfzt21w4nZ_13rust_jira_mcp6config7managerNtB4_13ConfigManager17enable_hot_reload
FNDA:0,_RNvMs_NtNtCslEfzt21w4nZ_13rust_jira_mcp6config7managerNtB4_13ConfigManager17load_with_options
FNDA:0,_RNvMs_NtNtCslEfzt21w4nZ_13rust_jira_mcp6config7managerNtB4_13ConfigManager18get_config_sources
FNDA:0,_RNvMs_NtNtCslEfzt21w4nZ_13rust_jira_mcp6config7managerNtB4_13ConfigManager21is_hot_reload_enabled
FNDA:0,_RNvMs_NtNtCslEfzt21w4nZ_13rust_jira_mcp6config7managerNtB4_13ConfigManager24load_config_from_sources
FNDA:0,_RNvMs_NtNtCslEfzt21w4nZ_13rust_jira_mcp6config7managerNtB4_13ConfigManager31load_config_from_sources_static
FNDA:0,_RNvMs_NtNtCslEfzt21w4nZ_13rust_jira_mcp6config7managerNtB4_13ConfigManager3new
FNDA:0,_RNvXNtNtCslEfzt21w4nZ_13rust_jira_mcp6config7managerNtB2_13ConfigOptionsNtNtCs99E9PC2tmbt_4core7default7Default7default
FNDA:0,_RNCNvMs_NtNtCslEfzt21w4nZ_13rust_jira_mcp6config7managerNtB6_13ConfigManager10get_config0Ba_
FNDA:0,_RNCNvMs_NtNtCslEfzt21w4nZ_13rust_jira_mcp6config7managerNtB6_13ConfigManager17enable_hot_reload0Ba_
FNDA:0,_RNCNvMs_NtNtCslEfzt21w4nZ_13rust_jira_mcp6config7managerNtB6_13ConfigManager17enable_hot_reloads_0Ba_
FNDA:0,_RNCNvMs_NtNtCslEfzt21w4nZ_13rust_jira_mcp6config7managerNtB6_13ConfigManager17load_with_options0Ba_
FNDA:0,_RNCNvMs_NtNtCslEfzt21w4nZ_13rust_jira_mcp6config7managerNtB6_13ConfigManager18get_config_sources0Ba_
FNDA:0,_RNCNvMs_NtNtCslEfzt21w4nZ_13rust_jira_mcp6config7managerNtB6_13ConfigManager31load_config_from_sources_static0Ba_
FNDA:0,_RNCNvMs_NtNtCslEfzt21w4nZ_13rust_jira_mcp6config7managerNtB6_13ConfigManager31load_config_from_sources_statics0_0Ba_
FNDA:0,_RNCNvMs_NtNtCslEfzt21w4nZ_13rust_jira_mcp6config7managerNtB6_13ConfigManager31load_config_from_sources_statics_0Ba_
FNDA:0,_RNCNvMs_NtNtCsbRuuH6jbcRQ_13rust_jira_mcp6config7managerNtB6_13ConfigManager10get_config0Ba_
FNDA:0,_RNCNvMs_NtNtCsbRuuH6jbcRQ_13rust_jira_mcp6config7managerNtB6_13ConfigManager17enable_hot_reload0Ba_
FNDA:0,_RNCNvMs_NtNtCsbRuuH6jbcRQ_13rust_jira_mcp6config7managerNtB6_13ConfigManager17enable_hot_reloads_0Ba_
FNDA:0,_RNCNvMs_NtNtCsbRuuH6jbcRQ_13rust_jira_mcp6config7managerNtB6_13ConfigManager17load_with_options0Ba_
FNDA:0,_RNCNvMs_NtNtCsbRuuH6jbcRQ_13rust_jira_mcp6config7managerNtB6_13ConfigManager18get_config_sources0Ba_
FNDA:0,_RNCNvMs_NtNtCsbRuuH6jbcRQ_13rust_jira_mcp6config7managerNtB6_13ConfigManager31load_config_from_sources_static0Ba_
FNDA:0,_RNCNvMs_NtNtCsbRuuH6jbcRQ_13rust_jira_mcp6config7managerNtB6_13ConfigManager31load_config_from_sources_statics0_0Ba_
FNDA:0,_RNCNvMs_NtNtCsbRuuH6jbcRQ_13rust_jira_mcp6config7managerNtB6_13ConfigManager31load_config_from_sources_statics_0Ba_
FNDA:0,_RNvMs_NtNtCsbRuuH6jbcRQ_13rust_jira_mcp6config7managerNtB4_13ConfigManager10get_config
FNDA:0,_RNvMs_NtNtCsbRuuH6jbcRQ_13rust_jira_mcp6config7managerNtB4_13ConfigManager12is_valid_url
FNDA:0,_RNvMs_NtNtCsbRuuH6jbcRQ_13rust_jira_mcp6config7managerNtB4_13ConfigManager14is_valid_email
FNDA:0,_RNvMs_NtNtCsbRuuH6jbcRQ_13rust_jira_mcp6config7managerNtB4_13ConfigManager15validate_config
FNDA:0,_RNvMs_NtNtCsbRuuH6jbcRQ_13rust_jira_mcp6config7managerNtB4_13ConfigManager17enable_hot_reload
FNDA:0,_RNvMs_NtNtCsbRuuH6jbcRQ_13rust_jira_mcp6config7managerNtB4_13ConfigManager17load_with_options
FNDA:0,_RNvMs_NtNtCsbRuuH6jbcRQ_13rust_jira_mcp6config7managerNtB4_13ConfigManager18get_config_sources
FNDA:0,_RNvMs_NtNtCsbRuuH6jbcRQ_13rust_jira_mcp6config7managerNtB4_13ConfigManager21is_hot_reload_enabled
FNDA:0,_RNvMs_NtNtCsbRuuH6jbcRQ_13rust_jira_mcp6config7managerNtB4_13ConfigManager24load_config_from_sources
FNDA:0,_RNvMs_NtNtCsbRuuH6jbcRQ_13rust_jira_mcp6config7managerNtB4_13ConfigManager31load_config_from_sources_static
FNDA:0,_RNvMs_NtNtCsbRuuH6jbcRQ_13rust_jira_mcp6config7managerNtB4_13ConfigManager3new
FNDA:0,_RNvXNtNtCsbRuuH6jbcRQ_13rust_jira_mcp6config7managerNtB2_13ConfigOptionsNtNtCs99E9PC2tmbt_4core7default7Default7default
FNDA:0,_RNvXs0_NtNtCsbRuuH6jbcRQ_13rust_jira_mcp6config7managerNtB5_13ConfigManagerNtNtCs99E9PC2tmbt_4core7default7Default7default
FNDA:0,_RNCNvMs_NtNtCs6CcTQqNWjGP_13rust_jira_mcp6config7managerNtB6_13ConfigManager10get_config0Ba_
FNDA:0,_RNCNvMs_NtNtCs6CcTQqNWjGP_13rust_jira_mcp6config7managerNtB6_13ConfigManager17enable_hot_reload0Ba_
FNDA:0,_RNCNvMs_NtNtCs6CcTQqNWjGP_13rust_jira_mcp6config7managerNtB6_13ConfigManager17enable_hot_reloads_0Ba_
FNDA:0,_RNCNvMs_NtNtCs6CcTQqNWjGP_13rust_jira_mcp6config7managerNtB6_13ConfigManager17load_with_options0Ba_
FNDA:0,_RNCNvMs_NtNtCs6CcTQqNWjGP_13rust_jira_mcp6config7managerNtB6_13ConfigManager18get_config_sources0Ba_
FNDA:0,_RNCNvMs_NtNtCs6CcTQqNWjGP_13rust_jira_mcp6config7managerNtB6_13ConfigManager31load_config_from_sources_static0Ba_
FNDA:0,_RNCNvMs_NtNtCs6CcTQqNWjGP_13rust_jira_mcp6config7managerNtB6_13ConfigManager31load_config_from_sources_statics0_0Ba_
FNDA:0,_RNCNvMs_NtNtCs6CcTQqNWjGP_13rust_jira_mcp6config7managerNtB6_13ConfigManager31load_config_from_sources_statics_0Ba_
FNDA:0,_RNvMs_NtNtCs6CcTQqNWjGP_13rust_jira_mcp6config7managerNtB4_13ConfigManager10get_config
FNDA:0,_RNvMs_NtNtCs6CcTQqNWjGP_13rust_jira_mcp6config7managerNtB4_13ConfigManager12is_valid_url
FNDA:0,_RNvMs_NtNtCs6CcTQqNWjGP_13rust_jira_mcp6config7managerNtB4_13ConfigManager14is_valid_email
FNDA:0,_RNvMs_NtNtCs6CcTQqNWjGP_13rust_jira_mcp6config7managerNtB4_13ConfigManager15validate_config
FNDA:0,_RNvMs_NtNtCs6CcTQqNWjGP_13rust_jira_mcp6config7managerNtB4_13ConfigManager17enable_hot_reload
FNDA:0,_RNvMs_NtNtCs6CcTQqNWjGP_13rust_jira_mcp6config7managerNtB4_13ConfigManager17load_with_options
FNDA:0,_RNvMs_NtNtCs6CcTQqNWjGP_13rust_jira_mcp6config7managerNtB4_13ConfigManager18get_config_sources
FNDA:0,_RNvMs_NtNtCs6CcTQqNWjGP_13rust_jira_mcp6config7managerNtB4_13ConfigManager21is_hot_reload_enabled
FNDA:0,_RNvMs_NtNtCs6CcTQqNWjGP_13rust_jira_mcp6config7managerNtB4_13ConfigManager24load_config_from_sources
FNDA:0,_RNvMs_NtNtCs6CcTQqNWjGP_13rust_jira_mcp6config7managerNtB4_13ConfigManager31load_config_from_sources_static
FNDA:0,_RNvMs_NtNtCs6CcTQqNWjGP_13rust_jira_mcp6config7managerNtB4_13ConfigManager3new
FNDA:0,_RNvXNtNtCs6CcTQqNWjGP_13rust_jira_mcp6config7managerNtB2_13ConfigOptionsNtNtCs99E9PC2tmbt_4core7default7Default7default
FNDA:0,_RNvXs0_NtNtCs6CcTQqNWjGP_13rust_jira_mcp6config7managerNtB5_13ConfigManagerNtNtCs99E9PC2tmbt_4core7default7Default7default
FNF:21
FNH:17
DA:53,2
DA:54,2
DA:55,2
DA:56,2
DA:57,2
DA:58,2
DA:59,2
DA:60,2
DA:66,27
DA:67,27
DA:68,27
DA:69,27
DA:70,27
DA:71,27
DA:72,27
DA:83,18
DA:84,18
DA:85,13
DA:87,13
DA:88,1
DA:89,12
DA:91,13
DA:92,18
DA:95,13
DA:96,13
DA:97,13
DA:100,1
DA:101,1
DA:102,0
DA:103,1
DA:105,1
DA:106,1
DA:108,1
DA:109,0
DA:110,0
DA:111,0
DA:112,0
DA:113,0
DA:114,0
DA:115,0
DA:116,1
DA:117,0
DA:119,2
DA:120,1
DA:121,0
DA:122,0
DA:123,1
DA:126,1
DA:129,1
DA:130,0
DA:132,0
DA:135,0
DA:136,0
DA:137,0
DA:138,0
DA:139,0
DA:141,0
DA:143,1
DA:144,1
DA:147,18
DA:148,18
DA:149,18
DA:152,18
DA:154,18
DA:155,2
DA:156,16
DA:157,16
DA:158,16
DA:160,18
DA:161,18
DA:162,18
DA:163,18
DA:166,18
DA:167,4
DA:168,4
DA:169,4
DA:170,3
DA:171,0
DA:173,4
DA:174,4
DA:175,14
DA:178,21
DA:179,3
DA:180,2
DA:181,2
DA:182,2
DA:183,2
DA:185,2
DA:186,2
DA:187,2
DA:188,2
DA:190,1
DA:193,18
DA:195,18
DA:196,18
DA:197,18
DA:200,18
DA:201,9
DA:202,9
DA:205,13
DA:206,4
DA:207,4
DA:208,4
DA:209,4
DA:210,4
DA:212,9
DA:214,13
DA:215,18
DA:218,9
DA:219,9
DA:222,9
DA:223,0
DA:224,0
DA:225,0
DA:226,9
DA:227,0
DA:228,9
DA:230,9
DA:231,0
DA:232,0
DA:233,0
DA:234,9
DA:237,9
DA:238,0
DA:239,0
DA:240,0
DA:241,0
DA:242,9
DA:245,9
DA:246,6
DA:247,6
DA:248,6
DA:249,6
DA:250,6
DA:251,6
DA:252,6
DA:253,6
DA:254,3
DA:256,9
DA:257,6
DA:258,0
DA:259,0
DA:260,0
DA:261,0
DA:262,0
DA:263,0
DA:264,6
DA:265,3
DA:267,9
DA:268,5
DA:269,4
DA:271,4
DA:272,1
DA:273,3
DA:275,4
DA:276,9
DA:279,9
DA:280,9
DA:281,9
DA:282,9
DA:283,9
DA:284,9
DA:287,9
DA:288,9
DA:289,9
DA:293,11
DA:294,11
DA:297,11
DA:298,8
DA:299,8
DA:302,11
DA:303,5
DA:304,6
DA:305,6
DA:306,6
DA:309,11
DA:310,0
DA:311,0
DA:312,0
DA:313,0
DA:315,0
DA:318,11
DA:319,11
DA:323,6
DA:324,6
DA:325,6
DA:329,1
DA:330,1
DA:331,1
BRF:0
BRH:0
LF:196
LH:151
end_of_record
SF:/Users/garthdb/Projects/rust-jira-mcp/src/config/secrets.rs
FN:43,_RNCNvMNtNtCskhkPsqpzxNu_13rust_jira_mcp6config7secretsNtB4_11SecretValue7resolve0B8_
FN:154,_RNCNvMs_NtNtCskhkPsqpzxNu_13rust_jira_mcp6config7secretsNtB6_13SecretManager10get_secret0Ba_
FN:125,_RNCNvMs_NtNtCskhkPsqpzxNu_13rust_jira_mcp6config7secretsNtB6_13SecretManager13load_from_env0Ba_
FN:94,_RNCNvMs_NtNtCskhkPsqpzxNu_13rust_jira_mcp6config7secretsNtB6_13SecretManager14load_from_file0Ba_
FN:43,_RNCNvMNtNtCskhkPsqpzxNu_13rust_jira_mcp6config7secretsNtB4_11SecretValue7resolve0CsggV5czYlUcE_19config_secrets_test
FN:154,_RNCNvMs_NtNtCskhkPsqpzxNu_13rust_jira_mcp6config7secretsNtB6_13SecretManager10get_secret0CsggV5czYlUcE_19config_secrets_test
FN:125,_RNCNvMs_NtNtCskhkPsqpzxNu_13rust_jira_mcp6config7secretsNtB6_13SecretManager13load_from_env0CsggV5czYlUcE_19config_secrets_test
FN:43,_RNvMNtNtCskhkPsqpzxNu_13rust_jira_mcp6config7secretsNtB2_11SecretValue7resolve
FN:154,_RNvMs_NtNtCskhkPsqpzxNu_13rust_jira_mcp6config7secretsNtB4_13SecretManager10get_secret
FN:125,_RNvMs_NtNtCskhkPsqpzxNu_13rust_jira_mcp6config7secretsNtB4_13SecretManager13load_from_env
FN:94,_RNvMs_NtNtCskhkPsqpzxNu_13rust_jira_mcp6config7secretsNtB4_13SecretManager14load_from_file
FN:78,_RNvMs_NtNtCskhkPsqpzxNu_13rust_jira_mcp6config7secretsNtB4_13SecretManager3new
FN:165,_RNvXs0_NtNtCskhkPsqpzxNu_13rust_jira_mcp6config7secretsNtB5_13SecretManagerNtNtCs99E9PC2tmbt_4core7default7Default7default
FN:43,_RNCNvMNtNtCskhkPsqpzxNu_13rust_jira_mcp6config7secretsNtB4_11SecretValue7resolve0CsfFwibxTw3OB_18configuration_test
FN:154,_RNCNvMs_NtNtCskhkPsqpzxNu_13rust_jira_mcp6config7secretsNtB6_13SecretManager10get_secret0CsfFwibxTw3OB_18configuration_test
FN:125,_RNCNvMs_NtNtCskhkPsqpzxNu_13rust_jira_mcp6config7secretsNtB6_13SecretManager13load_from_env0CsfFwibxTw3OB_18configuration_test
FN:43,_RNCNvMNtNtCskhkPsqpzxNu_13rust_jira_mcp6config7secretsNtB4_11SecretValue7resolve0CskJEy2L8KvEw_21main_integration_test
FN:154,_RNCNvMs_NtNtCskhkPsqpzxNu_13rust_jira_mcp6config7secretsNtB6_13SecretManager10get_secret0CskJEy2L8KvEw_21main_integration_test
FN:125,_RNCNvMs_NtNtCskhkPsqpzxNu_13rust_jira_mcp6config7secretsNtB6_13SecretManager13load_from_env0CskJEy2L8KvEw_21main_integration_test
FN:94,_RNCNvMs_NtNtCskhkPsqpzxNu_13rust_jira_mcp6config7secretsNtB6_13SecretManager14load_from_file0CskJEy2L8KvEw_21main_integration_test
FN:43,_RNvMNtNtCslEfzt21w4nZ_13rust_jira_mcp6config7secretsNtB2_11SecretValue7resolve
FN:154,_RNvMs_NtNtCslEfzt21w4nZ_13rust_jira_mcp6config7secretsNtB4_13SecretManager10get_secret
FN:125,_RNvMs_NtNtCslEfzt21w4nZ_13rust_jira_mcp6config7secretsNtB4_13SecretManager13load_from_env
FN:94,_RNvMs_NtNtCslEfzt21w4nZ_13rust_jira_mcp6config7secretsNtB4_13SecretManager14load_from_file
FN:78,_RNvMs_NtNtCslEfzt21w4nZ_13rust_jira_mcp6config7secretsNtB4_13SecretManager3new
FN:165,_RNvXs0_NtNtCslEfzt21w4nZ_13rust_jira_mcp6config7secretsNtB5_13SecretManagerNtNtCs99E9PC2tmbt_4core7default7Default7default
FN:43,_RNCNvMNtNtCslEfzt21w4nZ_13rust_jira_mcp6config7secretsNtB4_11SecretValue7resolve0B8_
FN:154,_RNCNvMs_NtNtCslEfzt21w4nZ_13rust_jira_mcp6config7secretsNtB6_13SecretManager10get_secret0Ba_
FN:125,_RNCNvMs_NtNtCslEfzt21w4nZ_13rust_jira_mcp6config7secretsNtB6_13SecretManager13load_from_env0Ba_
FN:94,_RNCNvMs_NtNtCslEfzt21w4nZ_13rust_jira_mcp6config7secretsNtB6_13SecretManager14load_from_file0Ba_
FN:43,_RNCNvMNtNtCsbRuuH6jbcRQ_13rust_jira_mcp6config7secretsNtB4_11SecretValue7resolve0B8_
FN:154,_RNCNvMs_NtNtCsbRuuH6jbcRQ_13rust_jira_mcp6config7secretsNtB6_13SecretManager10get_secret0Ba_
FN:125,_RNCNvMs_NtNtCsbRuuH6jbcRQ_13rust_jira_mcp6config7secretsNtB6_13SecretManager13load_from_env0Ba_
FN:94,_RNCNvMs_NtNtCsbRuuH6jbcRQ_13rust_jira_mcp6config7secretsNtB6_13SecretManager14load_from_file0Ba_
FN:43,_RNvMNtNtCsbRuuH6jbcRQ_13rust_jira_mcp6config7secretsNtB2_11SecretValue7resolve
FN:154,_RNvMs_NtNtCsbRuuH6jbcRQ_13rust_jira_mcp6config7secretsNtB4_13SecretManager10get_secret
FN:125,_RNvMs_NtNtCsbRuuH6jbcRQ_13rust_jira_mcp6config7secretsNtB4_13SecretManager13load_from_env
FN:94,_RNvMs_NtNtCsbRuuH6jbcRQ_13rust_jira_mcp6config7secretsNtB4_13SecretManager14load_from_file
FN:78,_RNvMs_NtNtCsbRuuH6jbcRQ_13rust_jira_mcp6config7secretsNtB4_13SecretManager3new
FN:165,_RNvXs0_NtNtCsbRuuH6jbcRQ_13rust_jira_mcp6config7secretsNtB5_13SecretManagerNtNtCs99E9PC2tmbt_4core7default7Default7default
FN:43,_RNCNvMNtNtCs6CcTQqNWjGP_13rust_jira_mcp6config7secretsNtB4_11SecretValue7resolve0B8_
FN:154,_RNCNvMs_NtNtCs6CcTQqNWjGP_13rust_jira_mcp6config7secretsNtB6_13SecretManager10get_secret0Ba_
FN:125,_RNCNvMs_NtNtCs6CcTQqNWjGP_13rust_jira_mcp6config7secretsNtB6_13SecretManager13load_from_env0Ba_
FN:94,_RNCNvMs_NtNtCs6CcTQqNWjGP_13rust_jira_mcp6config7secretsNtB6_13SecretManager14load_from_file0Ba_
FN:43,_RNvMNtNtCs6CcTQqNWjGP_13rust_jira_mcp6config7secretsNtB2_11SecretValue7resolve
FN:154,_RNvMs_NtNtCs6CcTQqNWjGP_13rust_jira_mcp6config7secretsNtB4_13SecretManager10get_secret
FN:125,_RNvMs_NtNtCs6CcTQqNWjGP_13rust_jira_mcp6config7secretsNtB4_13SecretManager13load_from_env
FN:94,_RNvMs_NtNtCs6CcTQqNWjGP_13rust_jira_mcp6config7secretsNtB4_13SecretManager14load_from_file
FN:78,_RNvMs_NtNtCs6CcTQqNWjGP_13rust_jira_mcp6config7secretsNtB4_13SecretManager3new
FN:165,_RNvXs0_NtNtCs6CcTQqNWjGP_13rust_jira_mcp6config7secretsNtB5_13SecretManagerNtNtCs99E9PC2tmbt_4core7default7Default7default
FNDA:0,_RNCNvMNtNtCskhkPsqpzxNu_13rust_jira_mcp6config7secretsNtB4_11SecretValue7resolve0B8_
FNDA:0,_RNCNvMs_NtNtCskhkPsqpzxNu_13rust_jira_mcp6config7secretsNtB6_13SecretManager10get_secret0Ba_
FNDA:0,_RNCNvMs_NtNtCskhkPsqpzxNu_13rust_jira_mcp6config7secretsNtB6_13SecretManager13load_from_env0Ba_
FNDA:0,_RNCNvMs_NtNtCskhkPsqpzxNu_13rust_jira_mcp6config7secretsNtB6_13SecretManager14load_from_file0Ba_
FNDA:12,_RNCNvMNtNtCskhkPsqpzxNu_13rust_jira_mcp6config7secretsNtB4_11SecretValue7resolve0CsggV5czYlUcE_19config_secrets_test
FNDA:6,_RNCNvMs_NtNtCskhkPsqpzxNu_13rust_jira_mcp6config7secretsNtB6_13SecretManager10get_secret0CsggV5czYlUcE_19config_secrets_test
FNDA:2,_RNCNvMs_NtNtCskhkPsqpzxNu_13rust_jira_mcp6config7secretsNtB6_13SecretManager13load_from_env0CsggV5czYlUcE_19config_secrets_test
FNDA:16,_RNvMNtNtCskhkPsqpzxNu_13rust_jira_mcp6config7secretsNtB2_11SecretValue7resolve
FNDA:11,_RNvMs_NtNtCskhkPsqpzxNu_13rust_jira_mcp6config7secretsNtB4_13SecretManager10get_secret
FNDA:5,_RNvMs_NtNtCskhkPsqpzxNu_13rust_jira_mcp6config7secretsNtB4_13SecretManager13load_from_env
FNDA:1,_RNvMs_NtNtCskhkPsqpzxNu_13rust_jira_mcp6config7secretsNtB4_13SecretManager14load_from_file
FNDA:11,_RNvMs_NtNtCskhkPsqpzxNu_13rust_jira_mcp6config7secretsNtB4_13SecretManager3new
FNDA:1,_RNvXs0_NtNtCskhkPsqpzxNu_13rust_jira_mcp6config7secretsNtB5_13SecretManagerNtNtCs99E9PC2tmbt_4core7default7Default7default
FNDA:0,_RNCNvMNtNtCskhkPsqpzxNu_13rust_jira_mcp6config7secretsNtB4_11SecretValue7resolve0CsfFwibxTw3OB_18configuration_test
FNDA:1,_RNCNvMs_NtNtCskhkPsqpzxNu_13rust_jira_mcp6config7secretsNtB6_13SecretManager10get_secret0CsfFwibxTw3OB_18configuration_test
FNDA:1,_RNCNvMs_NtNtCskhkPsqpzxNu_13rust_jira_mcp6config7secretsNtB6_13SecretManager13load_from_env0CsfFwibxTw3OB_18configuration_test
FNDA:4,_RNCNvMNtNtCskhkPsqpzxNu_13rust_jira_mcp6config7secretsNtB4_11SecretValue7resolve0CskJEy2L8KvEw_21main_integration_test
FNDA:4,_RNCNvMs_NtNtCskhkPsqpzxNu_13rust_jira_mcp6config7secretsNtB6_13SecretManager10get_secret0CskJEy2L8KvEw_21main_integration_test
FNDA:2,_RNCNvMs_NtNtCskhkPsqpzxNu_13rust_jira_mcp6config7secretsNtB6_13SecretManager13load_from_env0CskJEy2L8KvEw_21main_integration_test
FNDA:1,_RNCNvMs_NtNtCskhkPsqpzxNu_13rust_jira_mcp6config7secretsNtB6_13SecretManager14load_from_file0CskJEy2L8KvEw_21main_integration_test
FNDA:0,_RNvMNtNtCslEfzt21w4nZ_13rust_jira_mcp6config7secretsNtB2_11SecretValue7resolve
FNDA:0,_RNvMs_NtNtCslEfzt21w4nZ_13rust_jira_mcp6config7secretsNtB4_13SecretManager10get_secret
FNDA:0,_RNvMs_NtNtCslEfzt21w4nZ_13rust_jira_mcp6config7secretsNtB4_13SecretManager13load_from_env
FNDA:0,_RNvMs_NtNtCslEfzt21w4nZ_13rust_jira_mcp6config7secretsNtB4_13SecretManager14load_from_file
FNDA:0,_RNvMs_NtNtCslEfzt21w4nZ_13rust_jira_mcp6config7secretsNtB4_13SecretManager3new
FNDA:0,_RNvXs0_NtNtCslEfzt21w4nZ_13rust_jira_mcp6config7secretsNtB5_13SecretManagerNtNtCs99E9PC2tmbt_4core7default7Default7default
FNDA:0,_RNCNvMNtNtCslEfzt21w4nZ_13rust_jira_mcp6config7secretsNtB4_11SecretValue7resolve0B8_
FNDA:0,_RNCNvMs_NtNtCslEfzt21w4nZ_13rust_jira_mcp6config7secretsNtB6_13SecretManager10get_secret0Ba_
FNDA:0,_RNCNvMs_NtNtCslEfzt21w4nZ_13rust_jira_mcp6config7secretsNtB6_13SecretManager13load_from_env0Ba_
FNDA:0,_RNCNvMs_NtNtCslEfzt21w4nZ_13rust_jira_mcp6config7secretsNtB6_13SecretManager14load_from_file0Ba_
FNDA:0,_RNCNvMNtNtCsbRuuH6jbcRQ_13rust_jira_mcp6config7secretsNtB4_11SecretValue7resolve0B8_
FNDA:0,_RNCNvMs_NtNtCsbRuuH6jbcRQ_13rust_jira_mcp6config7secretsNtB6_13SecretManager10get_secret0Ba_
FNDA:0,_RNCNvMs_NtNtCsbRuuH6jbcRQ_13rust_jira_mcp6config7secretsNtB6_13SecretManager13load_from_env0Ba_
FNDA:0,_RNCNvMs_NtNtCsbRuuH6jbcRQ_13rust_jira_mcp6config7secretsNtB6_13SecretManager14load_from_file0Ba_
FNDA:0,_RNvMNtNtCsbRuuH6jbcRQ_13rust_jira_mcp6config7secretsNtB2_11SecretValue7resolve
FNDA:0,_RNvMs_NtNtCsbRuuH6jbcRQ_13rust_jira_mcp6config7secretsNtB4_13SecretManager10get_secret
FNDA:0,_RNvMs_NtNtCsbRuuH6jbcRQ_13rust_jira_mcp6config7secretsNtB4_13SecretManager13load_from_env
FNDA:0,_RNvMs_NtNtCsbRuuH6jbcRQ_13rust_jira_mcp6config7secretsNtB4_13SecretManager14load_from_file
FNDA:0,_RNvMs_NtNtCsbRuuH6jbcRQ_13rust_jira_mcp6config7secretsNtB4_13SecretManager3new
FNDA:0,_RNvXs0_NtNtCsbRuuH6jbcRQ_13rust_jira_mcp6config7secretsNtB5_13SecretManagerNtNtCs99E9PC2tmbt_4core7default7Default7default
FNDA:0,_RNCNvMNtNtCs6CcTQqNWjGP_13rust_jira_mcp6config7secretsNtB4_11SecretValue7resolve0B8_
FNDA:0,_RNCNvMs_NtNtCs6CcTQqNWjGP_13rust_jira_mcp6config7secretsNtB6_13SecretManager10get_secret0Ba_
FNDA:0,_RNCNvMs_NtNtCs6CcTQqNWjGP_13rust_jira_mcp6config7secretsNtB6_13SecretManager13load_from_env0Ba_
FNDA:0,_RNCNvMs_NtNtCs6CcTQqNWjGP_13rust_jira_mcp6config7secretsNtB6_13SecretManager14load_from_file0Ba_
FNDA:0,_RNvMNtNtCs6CcTQqNWjGP_13rust_jira_mcp6config7secretsNtB2_11SecretValue7resolve
FNDA:0,_RNvMs_NtNtCs6CcTQqNWjGP_13rust_jira_mcp6config7secretsNtB4_13SecretManager10get_secret
FNDA:0,_RNvMs_NtNtCs6CcTQqNWjGP_13rust_jira_mcp6config7secretsNtB4_13SecretManager13load_from_env
FNDA:0,_RNvMs_NtNtCs6CcTQqNWjGP_13rust_jira_mcp6config7secretsNtB4_13SecretManager14load_from_file
FNDA:0,_RNvMs_NtNtCs6CcTQqNWjGP_13rust_jira_mcp6config7secretsNtB4_13SecretManager3new
FNDA:0,_RNvXs0_NtNtCs6CcTQqNWjGP_13rust_jira_mcp6config7secretsNtB5_13SecretManagerNtNtCs99E9PC2tmbt_4core7default7Default7default
FNF:10
FNH:10
DA:43,16
DA:44,16
DA:45,7
DA:46,3
DA:47,3
DA:48,3
DA:49,3
DA:50,2
DA:52,3
DA:53,3
DA:54,2
DA:55,2
DA:56,2
DA:58,1
DA:61,1
DA:64,16
DA:78,11
DA:79,11
DA:80,11
DA:81,11
DA:82,11
DA:83,11
DA:84,11
DA:94,1
DA:95,1
DA:96,1
DA:97,1
DA:99,1
DA:100,1
DA:102,1
DA:103,1
DA:105,1
DA:106,4
DA:107,3
DA:108,3
DA:110,1
DA:111,1
DA:125,5
DA:126,5
DA:128,474
DA:129,474
DA:130,11
DA:131,11
DA:132,1
DA:133,10
DA:134,1
DA:135,9
DA:136,1
DA:138,8
DA:140,11
DA:141,463
DA:144,5
DA:145,5
DA:154,11
DA:155,11
DA:156,11
DA:157,8
DA:159,3
DA:161,11
DA:165,1
DA:166,1
DA:167,1
BRF:0
BRH:0
LF:66
LH:66
end_of_record
SF:/Users/garthdb/Projects/rust-jira-mcp/src/config/validation.rs
FN:134,_RNvMs1_NtNtCskhkPsqpzxNu_13rust_jira_mcp6config10validationNtB5_14ValidationRule10min_length
FN:114,_RNvMs1_NtNtCskhkPsqpzxNu_13rust_jira_mcp6config10validationNtB5_14ValidationRule3new
FN:128,_RNvMs1_NtNtCskhkPsqpzxNu_13rust_jira_mcp6config10validationNtB5_14ValidationRule8required
FN:185,_RNvMs2_NtNtCskhkPsqpzxNu_13rust_jira_mcp6config10validationNtB5_15ConfigValidator14validate_field
FN:259,_RNvMs2_NtNtCskhkPsqpzxNu_13rust_jira_mcp6config10validationNtB5_15ConfigValidator15matches_pattern
FN:156,_RNvMs2_NtNtCskhkPsqpzxNu_13rust_jira_mcp6config10validationNtB5_15ConfigValidator3new
FN:161,_RNvMs2_NtNtCskhkPsqpzxNu_13rust_jira_mcp6config10validationNtB5_15ConfigValidator8add_rule
FN:176,_RNvMs2_NtNtCskhkPsqpzxNu_13rust_jira_mcp6config10validationNtB5_15ConfigValidator8validate
FN:33,_RNvXNtNtCskhkPsqpzxNu_13rust_jira_mcp6config10validationNtB2_21ConfigValidationErrorNtNtCs99E9PC2tmbt_4core3fmt7Display3fmt
FN:98,_RNvXs0_NtNtCskhkPsqpzxNu_13rust_jira_mcp6config10validationNtB5_14ValidationRuleNtNtCs99E9PC2tmbt_4core3fmt5Debug3fmt
FN:271,_RNvXs3_NtNtCskhkPsqpzxNu_13rust_jira_mcp6config10validationNtB5_15ConfigValidatorNtNtCs99E9PC2tmbt_4core7default7Default7default
FN:140,_RINvMs1_NtNtCskhkPsqpzxNu_13rust_jira_mcp6config10validationNtB6_14ValidationRule16custom_validatorNCNvMs_NtB8_4jiraNtB1G_10JiraConfig8validate0EBa_
FN:140,_RINvMs1_NtNtCskhkPsqpzxNu_13rust_jira_mcp6config10validationNtB6_14ValidationRule16custom_validatorNCNvMs_NtB8_4jiraNtB1G_10JiraConfig8validates_0EBa_
FN:140,_RINvMs1_NtNtCslEfzt21w4nZ_13rust_jira_mcp6config10validationNtB6_14ValidationRule16custom_validatorNCNvMs_NtB8_4jiraNtB1G_10JiraConfig8validate0EBa_
FN:140,_RINvMs1_NtNtCslEfzt21w4nZ_13rust_jira_mcp6config10validationNtB6_14ValidationRule16custom_validatorNCNvMs_NtB8_4jiraNtB1G_10JiraConfig8validates_0EBa_
FN:98,_RNvXs0_NtNtCslEfzt21w4nZ_13rust_jira_mcp6config10validationNtB5_14ValidationRuleNtNtCs99E9PC2tmbt_4core3fmt5Debug3fmt
FN:271,_RNvXs3_NtNtCslEfzt21w4nZ_13rust_jira_mcp6config10validationNtB5_15ConfigValidatorNtNtCs99E9PC2tmbt_4core7default7Default7default
FN:134,_RNvMs1_NtNtCslEfzt21w4nZ_13rust_jira_mcp6config10validationNtB5_14ValidationRule10min_length
FN:114,_RNvMs1_NtNtCslEfzt21w4nZ_13rust_jira_mcp6config10validationNtB5_14ValidationRule3new
FN:128,_RNvMs1_NtNtCslEfzt21w4nZ_13rust_jira_mcp6config10validationNtB5_14ValidationRule8required
FN:185,_RNvMs2_NtNtCslEfzt21w4nZ_13rust_jira_mcp6config10validationNtB5_15ConfigValidator14validate_field
FN:259,_RNvMs2_NtNtCslEfzt21w4nZ_13rust_jira_mcp6config10validationNtB5_15ConfigValidator15matches_pattern
FN:156,_RNvMs2_NtNtCslEfzt21w4nZ_13rust_jira_mcp6config10validationNtB5_15ConfigValidator3new
FN:161,_RNvMs2_NtNtCslEfzt21w4nZ_13rust_jira_mcp6config10validationNtB5_15ConfigValidator8add_rule
FN:176,_RNvMs2_NtNtCslEfzt21w4nZ_13rust_jira_mcp6config10validationNtB5_15ConfigValidator8validate
FN:33,_RNvXNtNtCslEfzt21w4nZ_13rust_jira_mcp6config10validationNtB2_21ConfigValidationErrorNtNtCs99E9PC2tmbt_4core3fmt7Display3fmt
FN:140,_RINvMs1_NtNtCsbRuuH6jbcRQ_13rust_jira_mcp6config10validationNtB6_14ValidationRule16custom_validatorpEBa_
FN:134,_RNvMs1_NtNtCsbRuuH6jbcRQ_13rust_jira_mcp6config10validationNtB5_14ValidationRule10min_length
FN:114,_RNvMs1_NtNtCsbRuuH6jbcRQ_13rust_jira_mcp6config10validationNtB5_14ValidationRule3new
FN:128,_RNvMs1_NtNtCsbRuuH6jbcRQ_13rust_jira_mcp6config10validationNtB5_14ValidationRule8required
FN:185,_RNvMs2_NtNtCsbRuuH6jbcRQ_13rust_jira_mcp6config10validationNtB5_15ConfigValidator14validate_field
FN:259,_RNvMs2_NtNtCsbRuuH6jbcRQ_13rust_jira_mcp6config10validationNtB5_15ConfigValidator15matches_pattern
FN:156,_RNvMs2_NtNtCsbRuuH6jbcRQ_13rust_jira_mcp6config10validationNtB5_15ConfigValidator3new
FN:161,_RNvMs2_NtNtCsbRuuH6jbcRQ_13rust_jira_mcp6config10validationNtB5_15ConfigValidator8add_rule
FN:176,_RNvMs2_NtNtCsbRuuH6jbcRQ_13rust_jira_mcp6config10validationNtB5_15ConfigValidator8validate
FN:33,_RNvXNtNtCsbRuuH6jbcRQ_13rust_jira_mcp6config10validationNtB2_21ConfigValidationErrorNtNtCs99E9PC2tmbt_4core3fmt7Display3fmt
FN:98,_RNvXs0_NtNtCsbRuuH6jbcRQ_13rust_jira_mcp6config10validationNtB5_14ValidationRuleNtNtCs99E9PC2tmbt_4core3fmt5Debug3fmt
FN:271,_RNvXs3_NtNtCsbRuuH6jbcRQ_13rust_jira_mcp6config10validationNtB5_15ConfigValidatorNtNtCs99E9PC2tmbt_4core7default7Default7default
FN:140,_RINvMs1_NtNtCs6CcTQqNWjGP_13rust_jira_mcp6config10validationNtB6_14ValidationRule16custom_validatorpEBa_
FN:134,_RNvMs1_NtNtCs6CcTQqNWjGP_13rust_jira_mcp6config10validationNtB5_14ValidationRule10min_length
FN:114,_RNvMs1_NtNtCs6CcTQqNWjGP_13rust_jira_mcp6config10validationNtB5_14ValidationRule3new
FN:128,_RNvMs1_NtNtCs6CcTQqNWjGP_13rust_jira_mcp6config10validationNtB5_14ValidationRule8required
FN:185,_RNvMs2_NtNtCs6CcTQqNWjGP_13rust_jira_mcp6config10validationNtB5_15ConfigValidator14validate_field
FN:259,_RNvMs2_NtNtCs6CcTQqNWjGP_13rust_jira_mcp6config10validationNtB5_15ConfigValidator15matches_pattern
FN:156,_RNvMs2_NtNtCs6CcTQqNWjGP_13rust_jira_mcp6config10validationNtB5_15ConfigValidator3new
FN:161,_RNvMs2_NtNtCs6CcTQqNWjGP_13rust_jira_mcp6config10validationNtB5_15ConfigValidator8add_rule
FN:176,_RNvMs2_NtNtCs6CcTQqNWjGP_13rust_jira_mcp6config10validationNtB5_15ConfigValidator8validate
FN:33,_RNvXNtNtCs6CcTQqNWjGP_13rust_jira_mcp6config10validationNtB2_21ConfigValidationErrorNtNtCs99E9PC2tmbt_4core3fmt7Display3fmt
FN:98,_RNvXs0_NtNtCs6CcTQqNWjGP_13rust_jira_mcp6config10validationNtB5_14ValidationRuleNtNtCs99E9PC2tmbt_4core3fmt5Debug3fmt
FN:271,_RNvXs3_NtNtCs6CcTQqNWjGP_13rust_jira_mcp6config10validationNtB5_15ConfigValidatorNtNtCs99E9PC2tmbt_4core7default7Default7default
FN:140,_RINvMs1_NtNtCskhkPsqpzxNu_13rust_jira_mcp6config10validationNtB6_14ValidationRule16custom_validatorNCNvCs79dAt4ahqWT_15validation_tests_20test_matches_pattern0EB1D_
FN:140,_RINvMs1_NtNtCskhkPsqpzxNu_13rust_jira_mcp6config10validationNtB6_14ValidationRule16custom_validatorNCNvCs79dAt4ahqWT_15validation_tests_20test_matches_patterns_0EB1D_
FN:140,_RINvMs1_NtNtCskhkPsqpzxNu_13rust_jira_mcp6config10validationNtB6_14ValidationRule16custom_validatorNCNvCs79dAt4ahqWT_15validation_tests_26test_validation_rule_debug0EB1D_
FN:140,_RINvMs1_NtNtCskhkPsqpzxNu_13rust_jira_mcp6config10validationNtB6_14ValidationRule16custom_validatorNCNvCs79dAt4ahqWT_15validation_tests_36test_validation_rule_builder_pattern0EB1D_
FN:140,_RINvMs1_NtNtCskhkPsqpzxNu_13rust_jira_mcp6config10validationNtB6_14ValidationRule16custom_validatorNCNvCs79dAt4ahqWT_15validation_tests_37test_validation_rule_custom_validator0EB1D_
FN:140,_RINvMs1_NtNtCskhkPsqpzxNu_13rust_jira_mcp6config10validationNtB6_14ValidationRule16custom_validatorNCNvCs79dAt4ahqWT_15validation_tests_38test_config_validator_validate_pattern0EB1D_
FN:140,_RINvMs1_NtNtCskhkPsqpzxNu_13rust_jira_mcp6config10validationNtB6_14ValidationRule16custom_validatorNCNvCs79dAt4ahqWT_15validation_tests_41test_config_validator_validate_max_length0EB1D_
FN:140,_RINvMs1_NtNtCskhkPsqpzxNu_13rust_jira_mcp6config10validationNtB6_14ValidationRule16custom_validatorNCNvCs79dAt4ahqWT_15validation_tests_44test_config_validator_validate_numeric_range0EB1D_
FN:140,_RINvMs1_NtNtCskhkPsqpzxNu_13rust_jira_mcp6config10validationNtB6_14ValidationRule16custom_validatorNCNvCs79dAt4ahqWT_15validation_tests_47test_config_validator_validate_custom_validator0EB1D_
FNDA:25,_RNvMs1_NtNtCskhkPsqpzxNu_13rust_jira_mcp6config10validationNtB5_14ValidationRule10min_length
FNDA:74,_RNvMs1_NtNtCskhkPsqpzxNu_13rust_jira_mcp6config10validationNtB5_14ValidationRule3new
FNDA:62,_RNvMs1_NtNtCskhkPsqpzxNu_13rust_jira_mcp6config10validationNtB5_14ValidationRule8required
FNDA:65,_RNvMs2_NtNtCskhkPsqpzxNu_13rust_jira_mcp6config10validationNtB5_15ConfigValidator14validate_field
FNDA:0,_RNvMs2_NtNtCskhkPsqpzxNu_13rust_jira_mcp6config10validationNtB5_15ConfigValidator15matches_pattern
FNDA:34,_RNvMs2_NtNtCskhkPsqpzxNu_13rust_jira_mcp6config10validationNtB5_15ConfigValidator3new
FNDA:67,_RNvMs2_NtNtCskhkPsqpzxNu_13rust_jira_mcp6config10validationNtB5_15ConfigValidator8add_rule
FNDA:66,_RNvMs2_NtNtCskhkPsqpzxNu_13rust_jira_mcp6config10validationNtB5_15ConfigValidator8validate
FNDA:16,_RNvXNtNtCskhkPsqpzxNu_13rust_jira_mcp6config10validationNtB2_21ConfigValidationErrorNtNtCs99E9PC2tmbt_4core3fmt7Display3fmt
FNDA:1,_RNvXs0_NtNtCskhkPsqpzxNu_13rust_jira_mcp6config10validationNtB5_14ValidationRuleNtNtCs99E9PC2tmbt_4core3fmt5Debug3fmt
FNDA:1,_RNvXs3_NtNtCskhkPsqpzxNu_13rust_jira_mcp6config10validationNtB5_15ConfigValidatorNtNtCs99E9PC2tmbt_4core7default7Default7default
FNDA:17,_RINvMs1_NtNtCskhkPsqpzxNu_13rust_jira_mcp6config10validationNtB6_14ValidationRule16custom_validatorNCNvMs_NtB8_4jiraNtB1G_10JiraConfig8validate0EBa_
FNDA:17,_RINvMs1_NtNtCskhkPsqpzxNu_13rust_jira_mcp6config10validationNtB6_14ValidationRule16custom_validatorNCNvMs_NtB8_4jiraNtB1G_10JiraConfig8validates_0EBa_
FNDA:0,_RINvMs1_NtNtCslEfzt21w4nZ_13rust_jira_mcp6config10validationNtB6_14ValidationRule16custom_validatorNCNvMs_NtB8_4jiraNtB1G_10JiraConfig8validate0EBa_
FNDA:0,_RINvMs1_NtNtCslEfzt21w4nZ_13rust_jira_mcp6config10validationNtB6_14ValidationRule16custom_validatorNCNvMs_NtB8_4jiraNtB1G_10JiraConfig8validates_0EBa_
FNDA:0,_RNvXs0_NtNtCslEfzt21w4nZ_13rust_jira_mcp6config10validationNtB5_14ValidationRuleNtNtCs99E9PC2tmbt_4core3fmt5Debug3fmt
FNDA:0,_RNvXs3_NtNtCslEfzt21w4nZ_13rust_jira_mcp6config10validationNtB5_15ConfigValidatorNtNtCs99E9PC2tmbt_4core7default7Default7default
FNDA:0,_RNvMs1_NtNtCslEfzt21w4nZ_13rust_jira_mcp6config10validationNtB5_14ValidationRule10min_length
FNDA:0,_RNvMs1_NtNtCslEfzt21w4nZ_13rust_jira_mcp6config10validationNtB5_14ValidationRule3new
FNDA:0,_RNvMs1_NtNtCslEfzt21w4nZ_13rust_jira_mcp6config10validationNtB5_14ValidationRule8required
FNDA:0,_RNvMs2_NtNtCslEfzt21w4nZ_13rust_jira_mcp6config10validationNtB5_15ConfigValidator14validate_field
FNDA:0,_RNvMs2_NtNtCslEfzt21w4nZ_13rust_jira_mcp6config10validationNtB5_15ConfigValidator15matches_pattern
FNDA:0,_RNvMs2_NtNtCslEfzt21w4nZ_13rust_jira_mcp6config10validationNtB5_15ConfigValidator3new
FNDA:0,_RNvMs2_NtNtCslEfzt21w4nZ_13rust_jira_mcp6config10validationNtB5_15ConfigValidator8add_rule
FNDA:0,_RNvMs2_NtNtCslEfzt21w4nZ_13rust_jira_mcp6config10validationNtB5_15ConfigValidator8validate
FNDA:0,_RNvXNtNtCslEfzt21w4nZ_13rust_jira_mcp6config10validationNtB2_21ConfigValidationErrorNtNtCs99E9PC2tmbt_4core3fmt7Display3fmt
FNDA:0,_RINvMs1_NtNtCsbRuuH6jbcRQ_13rust_jira_mcp6config10validationNtB6_14ValidationRule16custom_validatorpEBa_
FNDA:0,_RNvMs1_NtNtCsbRuuH6jbcRQ_13rust_jira_mcp6config10validationNtB5_14ValidationRule10min_length
FNDA:0,_RNvMs1_NtNtCsbRuuH6jbcRQ_13rust_jira_mcp6config10validationNtB5_14ValidationRule3new
FNDA:0,_RNvMs1_NtNtCsbRuuH6jbcRQ_13rust_jira_mcp6config10validationNtB5_14ValidationRule8required
FNDA:0,_RNvMs2_NtNtCsbRuuH6jbcRQ_13rust_jira_mcp6config10validationNtB5_15ConfigValidator14validate_field
FNDA:0,_RNvMs2_NtNtCsbRuuH6jbcRQ_13rust_jira_mcp6config10validationNtB5_15ConfigValidator15matches_pattern
FNDA:0,_RNvMs2_NtNtCsbRuuH6jbcRQ_13rust_jira_mcp6config10validationNtB5_15ConfigValidator3new
FNDA:0,_RNvMs2_NtNtCsbRuuH6jbcRQ_13rust_jira_mcp6config10validationNtB5_15ConfigValidator8add_rule
FNDA:0,_RNvMs2_NtNtCsbRuuH6jbcRQ_13rust_jira_mcp6config10validationNtB5_15ConfigValidator8validate
FNDA:0,_RNvXNtNtCsbRuuH6jbcRQ_13rust_jira_mcp6config10validationNtB2_21ConfigValidationErrorNtNtCs99E9PC2tmbt_4core3fmt7Display3fmt
FNDA:0,_RNvXs0_NtNtCsbRuuH6jbcRQ_13rust_jira_mcp6config10validationNtB5_14ValidationRuleNtNtCs99E9PC2tmbt_4core3fmt5Debug3fmt
FNDA:0,_RNvXs3_NtNtCsbRuuH6jbcRQ_13rust_jira_mcp6config10validationNtB5_15ConfigValidatorNtNtCs99E9PC2tmbt_4core7default7Default7default
FNDA:0,_RINvMs1_NtNtCs6CcTQqNWjGP_13rust_jira_mcp6config10validationNtB6_14ValidationRule16custom_validatorpEBa_
FNDA:0,_RNvMs1_NtNtCs6CcTQqNWjGP_13rust_jira_mcp6config10validationNtB5_14ValidationRule10min_length
FNDA:0,_RNvMs1_NtNtCs6CcTQqNWjGP_13rust_jira_mcp6config10validationNtB5_14ValidationRule3new
FNDA:0,_RNvMs1_NtNtCs6CcTQqNWjGP_13rust_jira_mcp6config10validationNtB5_14ValidationRule8required
FNDA:0,_RNvMs2_NtNtCs6CcTQqNWjGP_13rust_jira_mcp6config10validationNtB5_15ConfigValidator14validate_field
FNDA:0,_RNvMs2_NtNtCs6CcTQqNWjGP_13rust_jira_mcp6config10validationNtB5_15ConfigValidator15matches_pattern
FNDA:0,_RNvMs2_NtNtCs6CcTQqNWjGP_13rust_jira_mcp6config10validationNtB5_15ConfigValidator3new
FNDA:0,_RNvMs2_NtNtCs6CcTQqNWjGP_13rust_jira_mcp6config10validationNtB5_15ConfigValidator8add_rule
FNDA:0,_RNvMs2_NtNtCs6CcTQqNWjGP_13rust_jira_mcp6config10validationNtB5_15ConfigValidator8validate
FNDA:0,_RNvXNtNtCs6CcTQqNWjGP_13rust_jira_mcp6config10validationNtB2_21ConfigValidationErrorNtNtCs99E9PC2tmbt_4core3fmt7Display3fmt
FNDA:0,_RNvXs0_NtNtCs6CcTQqNWjGP_13rust_jira_mcp6config10validationNtB5_14ValidationRuleNtNtCs99E9PC2tmbt_4core3fmt5Debug3fmt
FNDA:0,_RNvXs3_NtNtCs6CcTQqNWjGP_13rust_jira_mcp6config10validationNtB5_15ConfigValidatorNtNtCs99E9PC2tmbt_4core7default7Default7default
FNDA:1,_RINvMs1_NtNtCskhkPsqpzxNu_13rust_jira_mcp6config10validationNtB6_14ValidationRule16custom_validatorNCNvCs79dAt4ahqWT_15validation_tests_20test_matches_pattern0EB1D_
FNDA:1,_RINvMs1_NtNtCskhkPsqpzxNu_13rust_jira_mcp6config10validationNtB6_14ValidationRule16custom_validatorNCNvCs79dAt4ahqWT_15validation_tests_20test_matches_patterns_0EB1D_
FNDA:1,_RINvMs1_NtNtCskhkPsqpzxNu_13rust_jira_mcp6config10validationNtB6_14ValidationRule16custom_validatorNCNvCs79dAt4ahqWT_15validation_tests_26test_validation_rule_debug0EB1D_
FNDA:1,_RINvMs1_NtNtCskhkPsqpzxNu_13rust_jira_mcp6config10validationNtB6_14ValidationRule16custom_validatorNCNvCs79dAt4ahqWT_15validation_tests_36test_validation_rule_builder_pattern0EB1D_
FNDA:1,_RINvMs1_NtNtCskhkPsqpzxNu_13rust_jira_mcp6config10validationNtB6_14ValidationRule16custom_validatorNCNvCs79dAt4ahqWT_15validation_tests_37test_validation_rule_custom_validator0EB1D_
FNDA:1,_RINvMs1_NtNtCskhkPsqpzxNu_13rust_jira_mcp6config10validationNtB6_14ValidationRule16custom_validatorNCNvCs79dAt4ahqWT_15validation_tests_38test_config_validator_validate_pattern0EB1D_
FNDA:1,_RINvMs1_NtNtCskhkPsqpzxNu_13rust_jira_mcp6config10validationNtB6_14ValidationRule16custom_validatorNCNvCs79dAt4ahqWT_15validation_tests_41test_config_validator_validate_max_length0EB1D_
FNDA:1,_RINvMs1_NtNtCskhkPsqpzxNu_13rust_jira_mcp6config10validationNtB6_14ValidationRule16custom_validatorNCNvCs79dAt4ahqWT_15validation_tests_44test_config_validator_validate_numeric_range0EB1D_
FNDA:1,_RINvMs1_NtNtCskhkPsqpzxNu_13rust_jira_mcp6config10validationNtB6_14ValidationRule16custom_validatorNCNvCs79dAt4ahqWT_15validation_tests_47test_config_validator_validate_custom_validator0EB1D_
FNF:12
FNH:11
DA:33,16
DA:34,16
DA:35,3
DA:36,3
DA:38,2
DA:39,2
DA:41,1
DA:42,1
DA:44,2
DA:45,2
DA:46,2
DA:47,2
DA:50,1
DA:51,1
DA:53,1
DA:54,1
DA:56,1
DA:57,1
DA:59,1
DA:60,1
DA:61,1
DA:62,1
DA:63,1
DA:64,0
DA:65,3
DA:66,2
DA:68,1
DA:70,1
DA:71,1
DA:73,3
DA:74,3
DA:75,3
DA:76,3
DA:80,16
DA:98,1
DA:99,1
DA:100,1
DA:101,1
DA:102,1
DA:103,1
DA:104,1
DA:105,1
DA:106,1
DA:107,1
DA:108,1
DA:109,1
DA:114,74
DA:115,74
DA:116,74
DA:117,74
DA:118,74
DA:119,74
DA:120,74
DA:121,74
DA:122,74
DA:123,74
DA:124,74
DA:125,74
DA:128,62
DA:129,62
DA:130,62
DA:131,62
DA:134,25
DA:135,25
DA:136,25
DA:137,25
DA:140,43
DA:141,43
DA:142,43
DA:144,43
DA:145,43
DA:146,43
DA:156,34
DA:157,34
DA:158,34
DA:161,67
DA:162,67
DA:163,67
DA:164,67
DA:176,66
DA:177,95
DA:178,94
DA:179,65
DA:180,29
DA:182,1
DA:183,66
DA:185,65
DA:187,65
DA:188,6
DA:189,6
DA:190,6
DA:191,59
DA:194,59
DA:195,2
DA:196,57
DA:199,57
DA:200,17
DA:201,5
DA:202,5
DA:203,5
DA:204,5
DA:205,5
DA:206,5
DA:207,12
DA:208,40
DA:211,52
DA:212,0
DA:213,0
DA:214,0
DA:215,0
DA:216,0
DA:217,0
DA:218,0
DA:219,0
DA:220,52
DA:223,52
DA:224,0
DA:225,0
DA:226,0
DA:227,0
DA:228,0
DA:229,0
DA:230,0
DA:231,0
DA:232,0
DA:233,0
DA:234,52
DA:237,52
DA:238,0
DA:239,0
DA:240,0
DA:241,0
DA:242,0
DA:243,0
DA:244,52
DA:247,52
DA:248,39
DA:249,18
DA:250,18
DA:251,18
DA:252,18
DA:253,21
DA:254,13
DA:256,34
DA:257,65
DA:259,0
DA:261,0
DA:262,0
DA:263,0
DA:264,0
DA:265,0
DA:267,0
DA:271,1
DA:272,1
DA:273,1
BRF:0
BRH:0
LF:155
LH:123
end_of_record
SF:/Users/garthdb/Projects/rust-jira-mcp/src/error/jira.rs
FN:65,_RNCNvMNtNtCskhkPsqpzxNu_13rust_jira_mcp5error4jiraNtB4_9JiraError18from_jira_response0B8_
FN:72,_RNCNvMNtNtCskhkPsqpzxNu_13rust_jira_mcp5error4jiraNtB4_9JiraError18from_jira_responses0_0B8_
FN:74,_RNCNvMNtNtCskhkPsqpzxNu_13rust_jira_mcp5error4jiraNtB4_9JiraError18from_jira_responses1_0B8_
FN:68,_RNCNvMNtNtCskhkPsqpzxNu_13rust_jira_mcp5error4jiraNtB4_9JiraError18from_jira_responses_0B8_
FN:107,_RNvMNtNtCskhkPsqpzxNu_13rust_jira_mcp5error4jiraNtB2_9JiraError10auth_error
FN:115,_RNvMNtNtCskhkPsqpzxNu_13rust_jira_mcp5error4jiraNtB2_9JiraError12config_error
FN:123,_RNvMNtNtCskhkPsqpzxNu_13rust_jira_mcp5error4jiraNtB2_9JiraError13unknown_error
FN:98,_RNvMNtNtCskhkPsqpzxNu_13rust_jira_mcp5error4jiraNtB2_9JiraError16validation_error
FN:63,_RNvMNtNtCskhkPsqpzxNu_13rust_jira_mcp5error4jiraNtB2_9JiraError18from_jira_response
FN:89,_RNvMNtNtCskhkPsqpzxNu_13rust_jira_mcp5error4jiraNtB2_9JiraError9api_error
FN:65,_RNCNvMNtNtCslEfzt21w4nZ_13rust_jira_mcp5error4jiraNtB4_9JiraError18from_jira_response0B8_
FN:72,_RNCNvMNtNtCslEfzt21w4nZ_13rust_jira_mcp5error4jiraNtB4_9JiraError18from_jira_responses0_0B8_
FN:74,_RNCNvMNtNtCslEfzt21w4nZ_13rust_jira_mcp5error4jiraNtB4_9JiraError18from_jira_responses1_0B8_
FN:68,_RNCNvMNtNtCslEfzt21w4nZ_13rust_jira_mcp5error4jiraNtB4_9JiraError18from_jira_responses_0B8_
FN:107,_RNvMNtNtCslEfzt21w4nZ_13rust_jira_mcp5error4jiraNtB2_9JiraError10auth_error
FN:115,_RNvMNtNtCslEfzt21w4nZ_13rust_jira_mcp5error4jiraNtB2_9JiraError12config_error
FN:123,_RNvMNtNtCslEfzt21w4nZ_13rust_jira_mcp5error4jiraNtB2_9JiraError13unknown_error
FN:98,_RNvMNtNtCslEfzt21w4nZ_13rust_jira_mcp5error4jiraNtB2_9JiraError16validation_error
FN:63,_RNvMNtNtCslEfzt21w4nZ_13rust_jira_mcp5error4jiraNtB2_9JiraError18from_jira_response
FN:89,_RNvMNtNtCslEfzt21w4nZ_13rust_jira_mcp5error4jiraNtB2_9JiraError9api_error
FN:65,_RNCNvMNtNtCsbRuuH6jbcRQ_13rust_jira_mcp5error4jiraNtB4_9JiraError18from_jira_response0B8_
FN:72,_RNCNvMNtNtCsbRuuH6jbcRQ_13rust_jira_mcp5error4jiraNtB4_9JiraError18from_jira_responses0_0B8_
FN:74,_RNCNvMNtNtCsbRuuH6jbcRQ_13rust_jira_mcp5error4jiraNtB4_9JiraError18from_jira_responses1_0B8_
FN:68,_RNCNvMNtNtCsbRuuH6jbcRQ_13rust_jira_mcp5error4jiraNtB4_9JiraError18from_jira_responses_0B8_
FN:107,_RNvMNtNtCsbRuuH6jbcRQ_13rust_jira_mcp5error4jiraNtB2_9JiraError10auth_error
FN:115,_RNvMNtNtCsbRuuH6jbcRQ_13rust_jira_mcp5error4jiraNtB2_9JiraError12config_error
FN:123,_RNvMNtNtCsbRuuH6jbcRQ_13rust_jira_mcp5error4jiraNtB2_9JiraError13unknown_error
FN:98,_RNvMNtNtCsbRuuH6jbcRQ_13rust_jira_mcp5error4jiraNtB2_9JiraError16validation_error
FN:63,_RNvMNtNtCsbRuuH6jbcRQ_13rust_jira_mcp5error4jiraNtB2_9JiraError18from_jira_response
FN:89,_RNvMNtNtCsbRuuH6jbcRQ_13rust_jira_mcp5error4jiraNtB2_9JiraError9api_error
FN:65,_RNCNvMNtNtCs6CcTQqNWjGP_13rust_jira_mcp5error4jiraNtB4_9JiraError18from_jira_response0B8_
FN:72,_RNCNvMNtNtCs6CcTQqNWjGP_13rust_jira_mcp5error4jiraNtB4_9JiraError18from_jira_responses0_0B8_
FN:74,_RNCNvMNtNtCs6CcTQqNWjGP_13rust_jira_mcp5error4jiraNtB4_9JiraError18from_jira_responses1_0B8_
FN:68,_RNCNvMNtNtCs6CcTQqNWjGP_13rust_jira_mcp5error4jiraNtB4_9JiraError18from_jira_responses_0B8_
FN:107,_RNvMNtNtCs6CcTQqNWjGP_13rust_jira_mcp5error4jiraNtB2_9JiraError10auth_error
FN:115,_RNvMNtNtCs6CcTQqNWjGP_13rust_jira_mcp5error4jiraNtB2_9JiraError12config_error
FN:123,_RNvMNtNtCs6CcTQqNWjGP_13rust_jira_mcp5error4jiraNtB2_9JiraError13unknown_error
FN:98,_RNvMNtNtCs6CcTQqNWjGP_13rust_jira_mcp5error4jiraNtB2_9JiraError16validation_error
FN:63,_RNvMNtNtCs6CcTQqNWjGP_13rust_jira_mcp5error4jiraNtB2_9JiraError18from_jira_response
FN:89,_RNvMNtNtCs6CcTQqNWjGP_13rust_jira_mcp5error4jiraNtB2_9JiraError9api_error
FNDA:4,_RNCNvMNtNtCskhkPsqpzxNu_13rust_jira_mcp5error4jiraNtB4_9JiraError18from_jira_response0B8_
FNDA:1,_RNCNvMNtNtCskhkPsqpzxNu_13rust_jira_mcp5error4jiraNtB4_9JiraError18from_jira_responses0_0B8_
FNDA:2,_RNCNvMNtNtCskhkPsqpzxNu_13rust_jira_mcp5error4jiraNtB4_9JiraError18from_jira_responses1_0B8_
FNDA:7,_RNCNvMNtNtCskhkPsqpzxNu_13rust_jira_mcp5error4jiraNtB4_9JiraError18from_jira_responses_0B8_
FNDA:1,_RNvMNtNtCskhkPsqpzxNu_13rust_jira_mcp5error4jiraNtB2_9JiraError10auth_error
FNDA:1,_RNvMNtNtCskhkPsqpzxNu_13rust_jira_mcp5error4jiraNtB2_9JiraError12config_error
FNDA:3,_RNvMNtNtCskhkPsqpzxNu_13rust_jira_mcp5error4jiraNtB2_9JiraError13unknown_error
FNDA:1,_RNvMNtNtCskhkPsqpzxNu_13rust_jira_mcp5error4jiraNtB2_9JiraError16validation_error
FNDA:19,_RNvMNtNtCskhkPsqpzxNu_13rust_jira_mcp5error4jiraNtB2_9JiraError18from_jira_response
FNDA:8,_RNvMNtNtCskhkPsqpzxNu_13rust_jira_mcp5error4jiraNtB2_9JiraError9api_error
FNDA:0,_RNCNvMNtNtCslEfzt21w4nZ_13rust_jira_mcp5error4jiraNtB4_9JiraError18from_jira_response0B8_
FNDA:0,_RNCNvMNtNtCslEfzt21w4nZ_13rust_jira_mcp5error4jiraNtB4_9JiraError18from_jira_responses0_0B8_
FNDA:0,_RNCNvMNtNtCslEfzt21w4nZ_13rust_jira_mcp5error4jiraNtB4_9JiraError18from_jira_responses1_0B8_
FNDA:0,_RNCNvMNtNtCslEfzt21w4nZ_13rust_jira_mcp5error4jiraNtB4_9JiraError18from_jira_responses_0B8_
FNDA:0,_RNvMNtNtCslEfzt21w4nZ_13rust_jira_mcp5error4jiraNtB2_9JiraError10auth_error
FNDA:0,_RNvMNtNtCslEfzt21w4nZ_13rust_jira_mcp5error4jiraNtB2_9JiraError12config_error
FNDA:0,_RNvMNtNtCslEfzt21w4nZ_13rust_jira_mcp5error4jiraNtB2_9JiraError13unknown_error
FNDA:0,_RNvMNtNtCslEfzt21w4nZ_13rust_jira_mcp5error4jiraNtB2_9JiraError16validation_error
FNDA:0,_RNvMNtNtCslEfzt21w4nZ_13rust_jira_mcp5error4jiraNtB2_9JiraError18from_jira_response
FNDA:0,_RNvMNtNtCslEfzt21w4nZ_13rust_jira_mcp5error4jiraNtB2_9JiraError9api_error
FNDA:0,_RNCNvMNtNtCsbRuuH6jbcRQ_13rust_jira_mcp5error4jiraNtB4_9JiraError18from_jira_response0B8_
FNDA:0,_RNCNvMNtNtCsbRuuH6jbcRQ_13rust_jira_mcp5error4jiraNtB4_9JiraError18from_jira_responses0_0B8_
FNDA:0,_RNCNvMNtNtCsbRuuH6jbcRQ_13rust_jira_mcp5error4jiraNtB4_9JiraError18from_jira_responses1_0B8_
FNDA:0,_RNCNvMNtNtCsbRuuH6jbcRQ_13rust_jira_mcp5error4jiraNtB4_9JiraError18from_jira_responses_0B8_
FNDA:0,_RNvMNtNtCsbRuuH6jbcRQ_13rust_jira_mcp5error4jiraNtB2_9JiraError10auth_error
FNDA:0,_RNvMNtNtCsbRuuH6jbcRQ_13rust_jira_mcp5error4jiraNtB2_9JiraError12config_error
FNDA:0,_RNvMNtNtCsbRuuH6jbcRQ_13rust_jira_mcp5error4jiraNtB2_9JiraError13unknown_error
FNDA:0,_RNvMNtNtCsbRuuH6jbcRQ_13rust_jira_mcp5error4jiraNtB2_9JiraError16validation_error
FNDA:0,_RNvMNtNtCsbRuuH6jbcRQ_13rust_jira_mcp5error4jiraNtB2_9JiraError18from_jira_response
FNDA:0,_RNvMNtNtCsbRuuH6jbcRQ_13rust_jira_mcp5error4jiraNtB2_9JiraError9api_error
FNDA:0,_RNCNvMNtNtCs6CcTQqNWjGP_13rust_jira_mcp5error4jiraNtB4_9JiraError18from_jira_response0B8_
FNDA:0,_RNCNvMNtNtCs6CcTQqNWjGP_13rust_jira_mcp5error4jiraNtB4_9JiraError18from_jira_responses0_0B8_
FNDA:0,_RNCNvMNtNtCs6CcTQqNWjGP_13rust_jira_mcp5error4jiraNtB4_9JiraError18from_jira_responses1_0B8_
FNDA:0,_RNCNvMNtNtCs6CcTQqNWjGP_13rust_jira_mcp5error4jiraNtB4_9JiraError18from_jira_responses_0B8_
FNDA:0,_RNvMNtNtCs6CcTQqNWjGP_13rust_jira_mcp5error4jiraNtB2_9JiraError10auth_error
FNDA:0,_RNvMNtNtCs6CcTQqNWjGP_13rust_jira_mcp5error4jiraNtB2_9JiraError12config_error
FNDA:0,_RNvMNtNtCs6CcTQqNWjGP_13rust_jira_mcp5error4jiraNtB2_9JiraError13unknown_error
FNDA:0,_RNvMNtNtCs6CcTQqNWjGP_13rust_jira_mcp5error4jiraNtB2_9JiraError16validation_error
FNDA:0,_RNvMNtNtCs6CcTQqNWjGP_13rust_jira_mcp5error4jiraNtB2_9JiraError18from_jira_response
FNDA:0,_RNvMNtNtCs6CcTQqNWjGP_13rust_jira_mcp5error4jiraNtB2_9JiraError9api_error
FNF:10
FNH:10
DA:63,19
DA:64,19
DA:65,19
DA:66,4
DA:67,4
DA:68,7
DA:69,4
DA:70,4
DA:71,4
DA:72,15
DA:73,1
DA:74,2
DA:75,1
DA:76,1
DA:78,14
DA:81,19
DA:82,19
DA:83,19
DA:84,19
DA:85,19
DA:89,8
DA:90,8
DA:91,8
DA:92,8
DA:93,8
DA:94,8
DA:98,1
DA:99,1
DA:100,1
DA:101,1
DA:102,1
DA:103,1
DA:107,1
DA:108,1
DA:109,1
DA:110,1
DA:111,1
DA:115,1
DA:116,1
DA:117,1
DA:118,1
DA:119,1
DA:123,3
DA:124,3
DA:125,3
DA:126,3
DA:127,3
BRF:0
BRH:0
LF:51
LH:51
end_of_record
SF:/Users/garthdb/Projects/rust-jira-mcp/src/jira/client.rs
FN:1369,_RINvMs_NtNtCskhkPsqpzxNu_13rust_jira_mcp4jira6clientNtB5_10JiraClient10zephyr_getNtNtCslJRJgdvPEaJ_10serde_json5value5ValueEB9_
FN:1369,_RINvMs_NtNtCskhkPsqpzxNu_13rust_jira_mcp4jira6clientNtB5_10JiraClient10zephyr_getNtNtNtB9_5types4jira26ZephyrTestCaseSearchResultEB9_
FN:1396,_RINvMs_NtNtCskhkPsqpzxNu_13rust_jira_mcp4jira6clientNtB5_10JiraClient10zephyr_putNtNtNtB9_5types4jira14ZephyrTestStepNtB1j_27ZephyrTestStepUpdateRequestEB9_
FN:1382,_RINvMs_NtNtCskhkPsqpzxNu_13rust_jira_mcp4jira6clientNtB5_10JiraClient11zephyr_postNtNtNtB9_5types4jira14ZephyrTestCaseNtB1k_27ZephyrTestCaseCreateRequestEB9_
FN:1382,_RINvMs_NtNtCskhkPsqpzxNu_13rust_jira_mcp4jira6clientNtB5_10JiraClient11zephyr_postNtNtNtB9_5types4jira14ZephyrTestStepNtB1k_27ZephyrTestStepCreateRequestEB9_
FN:1382,_RINvMs_NtNtCskhkPsqpzxNu_13rust_jira_mcp4jira6clientNtB5_10JiraClient11zephyr_postNtNtNtB9_5types4jira19ZephyrTestExecutionNtB1k_32ZephyrTestExecutionCreateRequestEB9_
FN:257,_RINvMs_NtNtCskhkPsqpzxNu_13rust_jira_mcp4jira6clientNtB5_10JiraClient13build_requestNtNtCslJRJgdvPEaJ_10serde_json5value5ValueEB9_
FN:257,_RINvMs_NtNtCskhkPsqpzxNu_13rust_jira_mcp4jira6clientNtB5_10JiraClient13build_requestNtNtNtB9_5types4jira22JiraLabelCreateRequestEB9_
FN:257,_RINvMs_NtNtCskhkPsqpzxNu_13rust_jira_mcp4jira6clientNtB5_10JiraClient13build_requestNtNtNtB9_5types4jira22JiraLabelUpdateRequestEB9_
FN:257,_RINvMs_NtNtCskhkPsqpzxNu_13rust_jira_mcp4jira6clientNtB5_10JiraClient13build_requestNtNtNtB9_5types4jira24JiraWorkLogCreateRequestEB9_
FN:257,_RINvMs_NtNtCskhkPsqpzxNu_13rust_jira_mcp4jira6clientNtB5_10JiraClient13build_requestNtNtNtB9_5types4jira24JiraWorkLogUpdateRequestEB9_
FN:257,_RINvMs_NtNtCskhkPsqpzxNu_13rust_jira_mcp4jira6clientNtB5_10JiraClient13build_requestNtNtNtB9_5types4jira26JiraComponentCreateRequestEB9_
FN:257,_RINvMs_NtNtCskhkPsqpzxNu_13rust_jira_mcp4jira6clientNtB5_10JiraClient13build_requestNtNtNtB9_5types4jira26JiraComponentUpdateRequestEB9_
FN:257,_RINvMs_NtNtCskhkPsqpzxNu_13rust_jira_mcp4jira6clientNtB5_10JiraClient13build_requestNtNtNtB9_5types4jira26JiraIssueLinkCreateRequestEB9_
FN:257,_RINvMs_NtNtCskhkPsqpzxNu_13rust_jira_mcp4jira6clientNtB5_10JiraClient13build_requestuEB9_
FN:1409,_RINvMs_NtNtCskhkPsqpzxNu_13rust_jira_mcp4jira6clientNtB5_10JiraClient13zephyr_deleteNtNtCslJRJgdvPEaJ_10serde_json5value5ValueEB9_
FN:1422,_RINvMs_NtNtCskhkPsqpzxNu_13rust_jira_mcp4jira6clientNtB5_10JiraClient14zephyr_requestNtNtCslJRJgdvPEaJ_10serde_json5value5ValueuEB9_
FN:1422,_RINvMs_NtNtCskhkPsqpzxNu_13rust_jira_mcp4jira6clientNtB5_10JiraClient14zephyr_requestNtNtNtB9_5types4jira14ZephyrTestCaseNtB1n_27ZephyrTestCaseCreateRequestEB9_
FN:1422,_RINvMs_NtNtCskhkPsqpzxNu_13rust_jira_mcp4jira6clientNtB5_10JiraClient14zephyr_requestNtNtNtB9_5types4jira14ZephyrTestStepNtB1n_27ZephyrTestStepCreateRequestEB9_
FN:1422,_RINvMs_NtNtCskhkPsqpzxNu_13rust_jira_mcp4jira6clientNtB5_10JiraClient14zephyr_requestNtNtNtB9_5types4jira14ZephyrTestStepNtB1n_27ZephyrTestStepUpdateRequestEB9_
FN:1422,_RINvMs_NtNtCskhkPsqpzxNu_13rust_jira_mcp4jira6clientNtB5_10JiraClient14zephyr_requestNtNtNtB9_5types4jira19ZephyrTestExecutionNtB1n_32ZephyrTestExecutionCreateRequestEB9_
FN:1422,_RINvMs_NtNtCskhkPsqpzxNu_13rust_jira_mcp4jira6clientNtB5_10JiraClient14zephyr_requestNtNtNtB9_5types4jira26ZephyrTestCaseSearchResultuEB9_
FN:1520,_RINvMs_NtNtCskhkPsqpzxNu_13rust_jira_mcp4jira6clientNtB5_10JiraClient20build_zephyr_requestNtNtNtB9_5types4jira27ZephyrTestCaseCreateRequestEB9_
FN:1520,_RINvMs_NtNtCskhkPsqpzxNu_13rust_jira_mcp4jira6clientNtB5_10JiraClient20build_zephyr_requestNtNtNtB9_5types4jira27ZephyrTestStepCreateRequestEB9_
FN:1520,_RINvMs_NtNtCskhkPsqpzxNu_13rust_jira_mcp4jira6clientNtB5_10JiraClient20build_zephyr_requestNtNtNtB9_5types4jira27ZephyrTestStepUpdateRequestEB9_
FN:1520,_RINvMs_NtNtCskhkPsqpzxNu_13rust_jira_mcp4jira6clientNtB5_10JiraClient20build_zephyr_requestNtNtNtB9_5types4jira32ZephyrTestExecutionCreateRequestEB9_
FN:1520,_RINvMs_NtNtCskhkPsqpzxNu_13rust_jira_mcp4jira6clientNtB5_10JiraClient20build_zephyr_requestuEB9_
FN:110,_RINvMs_NtNtCskhkPsqpzxNu_13rust_jira_mcp4jira6clientNtB5_10JiraClient3getINtNtCsiAD6NEzHbBo_5alloc3vec3VecNtNtNtB9_5types4jira10JiraStatusEEB9_
FN:110,_RINvMs_NtNtCskhkPsqpzxNu_13rust_jira_mcp4jira6clientNtB5_10JiraClient3getINtNtCsiAD6NEzHbBo_5alloc3vec3VecNtNtNtB9_5types4jira12JiraLinkTypeEEB9_
FN:110,_RINvMs_NtNtCskhkPsqpzxNu_13rust_jira_mcp4jira6clientNtB5_10JiraClient3getINtNtCsiAD6NEzHbBo_5alloc3vec3VecNtNtNtB9_5types4jira12JiraPriorityEEB9_
FN:110,_RINvMs_NtNtCskhkPsqpzxNu_13rust_jira_mcp4jira6clientNtB5_10JiraClient3getINtNtCsiAD6NEzHbBo_5alloc3vec3VecNtNtNtB9_5types4jira13JiraComponentEEB9_
FN:110,_RINvMs_NtNtCskhkPsqpzxNu_13rust_jira_mcp4jira6clientNtB5_10JiraClient3getNtNtCslJRJgdvPEaJ_10serde_json5value5ValueEB9_
FN:110,_RINvMs_NtNtCskhkPsqpzxNu_13rust_jira_mcp4jira6clientNtB5_10JiraClient3getNtNtNtB9_5types4jira13JiraIssueTypeEB9_
FN:110,_RINvMs_NtNtCskhkPsqpzxNu_13rust_jira_mcp4jira6clientNtB5_10JiraClient3getNtNtNtB9_5types4jira16JiraSearchResultEB9_
FN:110,_RINvMs_NtNtCskhkPsqpzxNu_13rust_jira_mcp4jira6clientNtB5_10JiraClient3getNtNtNtB9_5types4jira20JiraWatchersResponseEB9_
FN:110,_RINvMs_NtNtCskhkPsqpzxNu_13rust_jira_mcp4jira6clientNtB5_10JiraClient3getNtNtNtB9_5types4jira9JiraIssueEB9_
FN:135,_RINvMs_NtNtCskhkPsqpzxNu_13rust_jira_mcp4jira6clientNtB5_10JiraClient3putNtNtCslJRJgdvPEaJ_10serde_json5value5ValueB19_EB9_
FN:135,_RINvMs_NtNtCskhkPsqpzxNu_13rust_jira_mcp4jira6clientNtB5_10JiraClient3putNtNtNtB9_5types4jira11JiraWorkLogNtB1b_24JiraWorkLogUpdateRequestEB9_
FN:135,_RINvMs_NtNtCskhkPsqpzxNu_13rust_jira_mcp4jira6clientNtB5_10JiraClient3putNtNtNtB9_5types4jira13JiraComponentNtB1b_26JiraComponentUpdateRequestEB9_
FN:135,_RINvMs_NtNtCskhkPsqpzxNu_13rust_jira_mcp4jira6clientNtB5_10JiraClient3putNtNtNtB9_5types4jira9JiraLabelNtB1b_22JiraLabelUpdateRequestEB9_
FN:122,_RINvMs_NtNtCskhkPsqpzxNu_13rust_jira_mcp4jira6clientNtB5_10JiraClient4postNtNtCslJRJgdvPEaJ_10serde_json5value5ValueB1a_EB9_
FN:122,_RINvMs_NtNtCskhkPsqpzxNu_13rust_jira_mcp4jira6clientNtB5_10JiraClient4postNtNtCslJRJgdvPEaJ_10serde_json5value5ValueNtNtNtB9_5types4jira26JiraIssueLinkCreateRequestEB9_
FN:122,_RINvMs_NtNtCskhkPsqpzxNu_13rust_jira_mcp4jira6clientNtB5_10JiraClient4postNtNtNtB9_5types4jira11JiraCommentNtNtCslJRJgdvPEaJ_10serde_json5value5ValueEB9_
FN:122,_RINvMs_NtNtCskhkPsqpzxNu_13rust_jira_mcp4jira6clientNtB5_10JiraClient4postNtNtNtB9_5types4jira11JiraWorkLogNtB1c_24JiraWorkLogCreateRequestEB9_
FN:122,_RINvMs_NtNtCskhkPsqpzxNu_13rust_jira_mcp4jira6clientNtB5_10JiraClient4postNtNtNtB9_5types4jira13JiraComponentNtB1c_26JiraComponentCreateRequestEB9_
FN:122,_RINvMs_NtNtCskhkPsqpzxNu_13rust_jira_mcp4jira6clientNtB5_10JiraClient4postNtNtNtB9_5types4jira9JiraIssueNtNtCslJRJgdvPEaJ_10serde_json5value5ValueEB9_
FN:122,_RINvMs_NtNtCskhkPsqpzxNu_13rust_jira_mcp4jira6clientNtB5_10JiraClient4postNtNtNtB9_5types4jira9JiraLabelNtB1c_22JiraLabelCreateRequestEB9_
FN:148,_RINvMs_NtNtCskhkPsqpzxNu_13rust_jira_mcp4jira6clientNtB5_10JiraClient6deleteNtNtCslJRJgdvPEaJ_10serde_json5value5ValueEB9_
FN:160,_RINvMs_NtNtCskhkPsqpzxNu_13rust_jira_mcp4jira6clientNtB5_10JiraClient7requestINtNtCsiAD6NEzHbBo_5alloc3vec3VecNtNtNtB9_5types4jira10JiraStatusEuEB9_
FN:160,_RINvMs_NtNtCskhkPsqpzxNu_13rust_jira_mcp4jira6clientNtB5_10JiraClient7requestINtNtCsiAD6NEzHbBo_5alloc3vec3VecNtNtNtB9_5types4jira12JiraLinkTypeEuEB9_
FN:160,_RINvMs_NtNtCskhkPsqpzxNu_13rust_jira_mcp4jira6clientNtB5_10JiraClient7requestINtNtCsiAD6NEzHbBo_5alloc3vec3VecNtNtNtB9_5types4jira12JiraPriorityEuEB9_
FN:160,_RINvMs_NtNtCskhkPsqpzxNu_13rust_jira_mcp4jira6clientNtB5_10JiraClient7requestINtNtCsiAD6NEzHbBo_5alloc3vec3VecNtNtNtB9_5types4jira13JiraComponentEuEB9_
FN:160,_RINvMs_NtNtCskhkPsqpzxNu_13rust_jira_mcp4jira6clientNtB5_10JiraClient7requestNtNtCslJRJgdvPEaJ_10serde_json5value5ValueB1d_EB9_
FN:160,_RINvMs_NtNtCskhkPsqpzxNu_13rust_jira_mcp4jira6clientNtB5_10JiraClient7requestNtNtCslJRJgdvPEaJ_10serde_json5value5ValueNtNtNtB9_5types4jira26JiraIssueLinkCreateRequestEB9_
FN:160,_RINvMs_NtNtCskhkPsqpzxNu_13rust_jira_mcp4jira6clientNtB5_10JiraClient7requestNtNtCslJRJgdvPEaJ_10serde_json5value5ValueuEB9_
FN:160,_RINvMs_NtNtCskhkPsqpzxNu_13rust_jira_mcp4jira6clientNtB5_10JiraClient7requestNtNtNtB9_5types4jira11JiraCommentNtNtCslJRJgdvPEaJ_10serde_json5value5ValueEB9_
FN:160,_RINvMs_NtNtCskhkPsqpzxNu_13rust_jira_mcp4jira6clientNtB5_10JiraClient7requestNtNtNtB9_5types4jira11JiraWorkLogNtB1f_24JiraWorkLogCreateRequestEB9_
FN:160,_RINvMs_NtNtCskhkPsqpzxNu_13rust_jira_mcp4jira6clientNtB5_10JiraClient7requestNtNtNtB9_5types4jira11JiraWorkLogNtB1f_24JiraWorkLogUpdateRequestEB9_
FN:160,_RINvMs_NtNtCskhkPsqpzxNu_13rust_jira_mcp4jira6clientNtB5_10JiraClient7requestNtNtNtB9_5types4jira13JiraComponentNtB1f_26JiraComponentCreateRequestEB9_
FN:160,_RINvMs_NtNtCskhkPsqpzxNu_13rust_jira_mcp4jira6clientNtB5_10JiraClient7requestNtNtNtB9_5types4jira13JiraComponentNtB1f_26JiraComponentUpdateRequestEB9_
FN:160,_RINvMs_NtNtCskhkPsqpzxNu_13rust_jira_mcp4jira6clientNtB5_10JiraClient7requestNtNtNtB9_5types4jira13JiraIssueTypeuEB9_
FN:160,_RINvMs_NtNtCskhkPsqpzxNu_13rust_jira_mcp4jira6clientNtB5_10JiraClient7requestNtNtNtB9_5types4jira16JiraSearchResultuEB9_
FN:160,_RINvMs_NtNtCskhkPsqpzxNu_13rust_jira_mcp4jira6clientNtB5_10JiraClient7requestNtNtNtB9_5types4jira20JiraWatchersResponseuEB9_
FN:160,_RINvMs_NtNtCskhkPsqpzxNu_13rust_jira_mcp4jira6clientNtB5_10JiraClient7requestNtNtNtB9_5types4jira9JiraIssueNtNtCslJRJgdvPEaJ_10serde_json5value5ValueEB9_
FN:160,_RINvMs_NtNtCskhkPsqpzxNu_13rust_jira_mcp4jira6clientNtB5_10JiraClient7requestNtNtNtB9_5types4jira9JiraIssueuEB9_
FN:160,_RINvMs_NtNtCskhkPsqpzxNu_13rust_jira_mcp4jira6clientNtB5_10JiraClient7requestNtNtNtB9_5types4jira9JiraLabelNtB1f_22JiraLabelCreateRequestEB9_
FN:160,_RINvMs_NtNtCskhkPsqpzxNu_13rust_jira_mcp4jira6clientNtB5_10JiraClient7requestNtNtNtB9_5types4jira9JiraLabelNtB1f_22JiraLabelUpdateRequestEB9_
FN:1372,_RNCINvMs_NtNtCskhkPsqpzxNu_13rust_jira_mcp4jira6clientNtB7_10JiraClient10zephyr_getNtNtCslJRJgdvPEaJ_10serde_json5value5ValueE0Bb_
FN:1372,_RNCINvMs_NtNtCskhkPsqpzxNu_13rust_jira_mcp4jira6clientNtB7_10JiraClient10zephyr_getNtNtNtBb_5types4jira26ZephyrTestCaseSearchResultE0Bb_
FN:1400,_RNCINvMs_NtNtCskhkPsqpzxNu_13rust_jira_mcp4jira6clientNtB7_10JiraClient10zephyr_putNtNtNtBb_5types4jira14ZephyrTestStepNtB1l_27ZephyrTestStepUpdateRequestE0Bb_
FN:1386,_RNCINvMs_NtNtCskhkPsqpzxNu_13rust_jira_mcp4jira6clientNtB7_10JiraClient11zephyr_postNtNtNtBb_5types4jira14ZephyrTestCaseNtB1m_27ZephyrTestCaseCreateRequestE0Bb_
FN:1386,_RNCINvMs_NtNtCskhkPsqpzxNu_13rust_jira_mcp4jira6clientNtB7_10JiraClient11zephyr_postNtNtNtBb_5types4jira14ZephyrTestStepNtB1m_27ZephyrTestStepCreateRequestE0Bb_
FN:1386,_RNCINvMs_NtNtCskhkPsqpzxNu_13rust_jira_mcp4jira6clientNtB7_10JiraClient11zephyr_postNtNtNtBb_5types4jira19ZephyrTestExecutionNtB1m_32ZephyrTestExecutionCreateRequestE0Bb_
FN:1412,_RNCINvMs_NtNtCskhkPsqpzxNu_13rust_jira_mcp4jira6clientNtB7_10JiraClient13zephyr_deleteNtNtCslJRJgdvPEaJ_10serde_json5value5ValueE0Bb_
FN:1431,_RNCINvMs_NtNtCskhkPsqpzxNu_13rust_jira_mcp4jira6clientNtB7_10JiraClient14zephyr_requestNtNtCslJRJgdvPEaJ_10serde_json5value5ValueuE0Bb_
FN:1431,_RNCINvMs_NtNtCskhkPsqpzxNu_13rust_jira_mcp4jira6clientNtB7_10JiraClient14zephyr_requestNtNtNtBb_5types4jira14ZephyrTestCaseNtB1p_27ZephyrTestCaseCreateRequestE0Bb_
FN:1431,_RNCINvMs_NtNtCskhkPsqpzxNu_13rust_jira_mcp4jira6clientNtB7_10JiraClient14zephyr_requestNtNtNtBb_5types4jira14ZephyrTestStepNtB1p_27ZephyrTestStepCreateRequestE0Bb_
FN:1431,_RNCINvMs_NtNtCskhkPsqpzxNu_13rust_jira_mcp4jira6clientNtB7_10JiraClient14zephyr_requestNtNtNtBb_5types4jira14ZephyrTestStepNtB1p_27ZephyrTestStepUpdateRequestE0Bb_
FN:1431,_RNCINvMs_NtNtCskhkPsqpzxNu_13rust_jira_mcp4jira6clientNtB7_10JiraClient14zephyr_requestNtNtNtBb_5types4jira19ZephyrTestExecutionNtB1p_32ZephyrTestExecutionCreateRequestE0Bb_
FN:1431,_RNCINvMs_NtNtCskhkPsqpzxNu_13rust_jira_mcp4jira6clientNtB7_10JiraClient14zephyr_requestNtNtNtBb_5types4jira26ZephyrTestCaseSearchResultuE0Bb_
FN:113,_RNCINvMs_NtNtCskhkPsqpzxNu_13rust_jira_mcp4jira6clientNtB7_10JiraClient3getINtNtCsiAD6NEzHbBo_5alloc3vec3VecNtNtNtBb_5types4jira10JiraStatusEE0Bb_
FN:113,_RNCINvMs_NtNtCskhkPsqpzxNu_13rust_jira_mcp4jira6clientNtB7_10JiraClient3getINtNtCsiAD6NEzHbBo_5alloc3vec3VecNtNtNtBb_5types4jira12JiraLinkTypeEE0Bb_
FN:113,_RNCINvMs_NtNtCskhkPsqpzxNu_13rust_jira_mcp4jira6clientNtB7_10JiraClient3getINtNtCsiAD6NEzHbBo_5alloc3vec3VecNtNtNtBb_5types4jira12JiraPriorityEE0Bb_
FN:113,_RNCINvMs_NtNtCskhkPsqpzxNu_13rust_jira_mcp4jira6clientNtB7_10JiraClient3getINtNtCsiAD6NEzHbBo_5alloc3vec3VecNtNtNtBb_5types4jira13JiraComponentEE0Bb_
FN:113,_RNCINvMs_NtNtCskhkPsqpzxNu_13rust_jira_mcp4jira6clientNtB7_10JiraClient3getNtNtCslJRJgdvPEaJ_10serde_json5value5ValueE0Bb_
FN:113,_RNCINvMs_NtNtCskhkPsqpzxNu_13rust_jira_mcp4jira6clientNtB7_10JiraClient3getNtNtNtBb_5types4jira13JiraIssueTypeE0Bb_
FN:113,_RNCINvMs_NtNtCskhkPsqpzxNu_13rust_jira_mcp4jira6clientNtB7_10JiraClient3getNtNtNtBb_5types4jira16JiraSearchResultE0Bb_
FN:113,_RNCINvMs_NtNtCskhkPsqpzxNu_13rust_jira_mcp4jira6clientNtB7_10JiraClient3getNtNtNtBb_5types4jira20JiraWatchersResponseE0Bb_
FN:113,_RNCINvMs_NtNtCskhkPsqpzxNu_13rust_jira_mcp4jira6clientNtB7_10JiraClient3getNtNtNtBb_5types4jira9JiraIssueE0Bb_
FN:139,_RNCINvMs_NtNtCskhkPsqpzxNu_13rust_jira_mcp4jira6clientNtB7_10JiraClient3putNtNtCslJRJgdvPEaJ_10serde_json5value5ValueB1b_E0Bb_
FN:139,_RNCINvMs_NtNtCskhkPsqpzxNu_13rust_jira_mcp4jira6clientNtB7_10JiraClient3putNtNtNtBb_5types4jira11JiraWorkLogNtB1d_24JiraWorkLogUpdateRequestE0Bb_
FN:139,_RNCINvMs_NtNtCskhkPsqpzxNu_13rust_jira_mcp4jira6clientNtB7_10JiraClient3putNtNtNtBb_5types4jira13JiraComponentNtB1d_26JiraComponentUpdateRequestE0Bb_
FN:139,_RNCINvMs_NtNtCskhkPsqpzxNu_13rust_jira_mcp4jira6clientNtB7_10JiraClient3putNtNtNtBb_5types4jira9JiraLabelNtB1d_22JiraLabelUpdateRequestE0Bb_
FN:126,_RNCINvMs_NtNtCskhkPsqpzxNu_13rust_jira_mcp4jira6clientNtB7_10JiraClient4postNtNtCslJRJgdvPEaJ_10serde_json5value5ValueB1c_E0Bb_
FN:126,_RNCINvMs_NtNtCskhkPsqpzxNu_13rust_jira_mcp4jira6clientNtB7_10JiraClient4postNtNtCslJRJgdvPEaJ_10serde_json5value5ValueNtNtNtBb_5types4jira26JiraIssueLinkCreateRequestE0Bb_
FN:126,_RNCINvMs_NtNtCskhkPsqpzxNu_13rust_jira_mcp4jira6clientNtB7_10JiraClient4postNtNtNtBb_5types4jira11JiraCommentNtNtCslJRJgdvPEaJ_10serde_json5value5ValueE0Bb_
FN:126,_RNCINvMs_NtNtCskhkPsqpzxNu_13rust_jira_mcp4jira6clientNtB7_10JiraClient4postNtNtNtBb_5types4jira11JiraWorkLogNtB1e_24JiraWorkLogCreateRequestE0Bb_
FN:126,_RNCINvMs_NtNtCskhkPsqpzxNu_13rust_jira_mcp4jira6clientNtB7_10JiraClient4postNtNtNtBb_5types4jira13JiraComponentNtB1e_26JiraComponentCreateRequestE0Bb_
FN:126,_RNCINvMs_NtNtCskhkPsqpzxNu_13rust_jira_mcp4jira6clientNtB7_10JiraClient4postNtNtNtBb_5types4jira9JiraIssueNtNtCslJRJgdvPEaJ_10serde_json5value5ValueE0Bb_
FN:126,_RNCINvMs_NtNtCskhkPsqpzxNu_13rust_jira_mcp4jira6clientNtB7_10JiraClient4postNtNtNtBb_5types4jira9JiraLabelNtB1e_22JiraLabelCreateRequestE0Bb_
FN:151,_RNCINvMs_NtNtCskhkPsqpzxNu_13rust_jira_mcp4jira6clientNtB7_10JiraClient6deleteNtNtCslJRJgdvPEaJ_10serde_json5value5ValueE0Bb_
FN:164,_RNCINvMs_NtNtCskhkPsqpzxNu_13rust_jira_mcp4jira6clientNtB7_10JiraClient7requestINtNtCsiAD6NEzHbBo_5alloc3vec3VecNtNtNtBb_5types4jira10JiraStatusEuE0Bb_
FN:164,_RNCINvMs_NtNtCskhkPsqpzxNu_13rust_jira_mcp4jira6clientNtB7_10JiraClient7requestINtNtCsiAD6NEzHbBo_5alloc3vec3VecNtNtNtBb_5types4jira12JiraLinkTypeEuE0Bb_
FN:164,_RNCINvMs_NtNtCskhkPsqpzxNu_13rust_jira_mcp4jira6clientNtB7_10JiraClient7requestINtNtCsiAD6NEzHbBo_5alloc3vec3VecNtNtNtBb_5types4jira12JiraPriorityEuE0Bb_
FN:164,_RNCINvMs_NtNtCskhkPsqpzxNu_13rust_jira_mcp4jira6clientNtB7_10JiraClient7requestINtNtCsiAD6NEzHbBo_5alloc3vec3VecNtNtNtBb_5types4jira13JiraComponentEuE0Bb_
FN:164,_RNCINvMs_NtNtCskhkPsqpzxNu_13rust_jira_mcp4jira6clientNtB7_10JiraClient7requestNtNtCslJRJgdvPEaJ_10serde_json5value5ValueB1f_E0Bb_
FN:164,_RNCINvMs_NtNtCskhkPsqpzxNu_13rust_jira_mcp4jira6clientNtB7_10JiraClient7requestNtNtCslJRJgdvPEaJ_10serde_json5value5ValueNtNtNtBb_5types4jira26JiraIssueLinkCreateRequestE0Bb_
FN:164,_RNCINvMs_NtNtCskhkPsqpzxNu_13rust_jira_mcp4jira6clientNtB7_10JiraClient7requestNtNtCslJRJgdvPEaJ_10serde_json5value5ValueuE0Bb_
FN:164,_RNCINvMs_NtNtCskhkPsqpzxNu_13rust_jira_mcp4jira6clientNtB7_10JiraClient7requestNtNtNtBb_5types4jira11JiraCommentNtNtCslJRJgdvPEaJ_10serde_json5value5ValueE0Bb_
FN:164,_RNCINvMs_NtNtCskhkPsqpzxNu_13rust_jira_mcp4jira6clientNtB7_10JiraClient7requestNtNtNtBb_5types4jira11JiraWorkLogNtB1h_24JiraWorkLogCreateRequestE0Bb_
FN:164,_RNCINvMs_NtNtCskhkPsqpzxNu_13rust_jira_mcp4jira6clientNtB7_10JiraClient7requestNtNtNtBb_5types4jira11JiraWorkLogNtB1h_24JiraWorkLogUpdateRequestE0Bb_
FN:164,_RNCINvMs_NtNtCskhkPsqpzxNu_13rust_jira_mcp4jira6clientNtB7_10JiraClient7requestNtNtNtBb_5types4jira13JiraComponentNtB1h_26JiraComponentCreateRequestE0Bb_
FN:164,_RNCINvMs_NtNtCskhkPsqpzxNu_13rust_jira_mcp4jira6clientNtB7_10JiraClient7requestNtNtNtBb_5types4jira13JiraComponentNtB1h_26JiraComponentUpdateRequestE0Bb_
FN:164,_RNCINvMs_NtNtCskhkPsqpzxNu_13rust_jira_mcp4jira6clientNtB7_10JiraClient7requestNtNtNtBb_5types4jira13JiraIssueTypeuE0Bb_
FN:164,_RNCINvMs_NtNtCskhkPsqpzxNu_13rust_jira_mcp4jira6clientNtB7_10JiraClient7requestNtNtNtBb_5types4jira16JiraSearchResultuE0Bb_
FN:164,_RNCINvMs_NtNtCskhkPsqpzxNu_13rust_jira_mcp4jira6clientNtB7_10JiraClient7requestNtNtNtBb_5types4jira20JiraWatchersResponseuE0Bb_
FN:164,_RNCINvMs_NtNtCskhkPsqpzxNu_13rust_jira_mcp4jira6clientNtB7_10JiraClient7requestNtNtNtBb_5types4jira9JiraIssueNtNtCslJRJgdvPEaJ_10serde_json5value5ValueE0Bb_
FN:164,_RNCINvMs_NtNtCskhkPsqpzxNu_13rust_jira_mcp4jira6clientNtB7_10JiraClient7requestNtNtNtBb_5types4jira9JiraIssueuE0Bb_
FN:164,_RNCINvMs_NtNtCskhkPsqpzxNu_13rust_jira_mcp4jira6clientNtB7_10JiraClient7requestNtNtNtBb_5types4jira9JiraLabelNtB1h_22JiraLabelCreateRequestE0Bb_
FN:164,_RNCINvMs_NtNtCskhkPsqpzxNu_13rust_jira_mcp4jira6clientNtB7_10JiraClient7requestNtNtNtBb_5types4jira9JiraLabelNtB1h_22JiraLabelUpdateRequestE0Bb_
FN:1455,_RNCNCINvMs_NtNtCskhkPsqpzxNu_13rust_jira_mcp4jira6clientNtB9_10JiraClient14zephyr_requestNtNtCslJRJgdvPEaJ_10serde_json5value5ValueuE00Bd_
FN:1467,_RNCNCINvMs_NtNtCskhkPsqpzxNu_13rust_jira_mcp4jira6clientNtB9_10JiraClient14zephyr_requestNtNtCslJRJgdvPEaJ_10serde_json5value5ValueuE0s_0Bd_
FN:1455,_RNCNCINvMs_NtNtCskhkPsqpzxNu_13rust_jira_mcp4jira6clientNtB9_10JiraClient14zephyr_requestNtNtNtBd_5types4jira14ZephyrTestCaseNtB1r_27ZephyrTestCaseCreateRequestE00Bd_
FN:1467,_RNCNCINvMs_NtNtCskhkPsqpzxNu_13rust_jira_mcp4jira6clientNtB9_10JiraClient14zephyr_requestNtNtNtBd_5types4jira14ZephyrTestCaseNtB1r_27ZephyrTestCaseCreateRequestE0s_0Bd_
FN:1455,_RNCNCINvMs_NtNtCskhkPsqpzxNu_13rust_jira_mcp4jira6clientNtB9_10JiraClient14zephyr_requestNtNtNtBd_5types4jira14ZephyrTestStepNtB1r_27ZephyrTestStepCreateRequestE00Bd_
FN:1467,_RNCNCINvMs_NtNtCskhkPsqpzxNu_13rust_jira_mcp4jira6clientNtB9_10JiraClient14zephyr_requestNtNtNtBd_5types4jira14ZephyrTestStepNtB1r_27ZephyrTestStepCreateRequestE0s_0Bd_
FN:1455,_RNCNCINvMs_NtNtCskhkPsqpzxNu_13rust_jira_mcp4jira6clientNtB9_10JiraClient14zephyr_requestNtNtNtBd_5types4jira14ZephyrTestStepNtB1r_27ZephyrTestStepUpdateRequestE00Bd_
FN:1467,_RNCNCINvMs_NtNtCskhkPsqpzxNu_13rust_jira_mcp4jira6clientNtB9_10JiraClient14zephyr_requestNtNtNtBd_5types4jira14ZephyrTestStepNtB1r_27ZephyrTestStepUpdateRequestE0s_0Bd_
FN:1455,_RNCNCINvMs_NtNtCskhkPsqpzxNu_13rust_jira_mcp4jira6clientNtB9_10JiraClient14zephyr_requestNtNtNtBd_5types4jira19ZephyrTestExecutionNtB1r_32ZephyrTestExecutionCreateRequestE00Bd_
FN:1467,_RNCNCINvMs_NtNtCskhkPsqpzxNu_13rust_jira_mcp4jira6clientNtB9_10JiraClient14zephyr_requestNtNtNtBd_5types4jira19ZephyrTestExecutionNtB1r_32ZephyrTestExecutionCreateRequestE0s_0Bd_
FN:1455,_RNCNCINvMs_NtNtCskhkPsqpzxNu_13rust_jira_mcp4jira6clientNtB9_10JiraClient14zephyr_requestNtNtNtBd_5types4jira26ZephyrTestCaseSearchResultuE00Bd_
FN:1467,_RNCNCINvMs_NtNtCskhkPsqpzxNu_13rust_jira_mcp4jira6clientNtB9_10JiraClient14zephyr_requestNtNtNtBd_5types4jira26ZephyrTestCaseSearchResultuE0s_0Bd_
FN:190,_RNCNCINvMs_NtNtCskhkPsqpzxNu_13rust_jira_mcp4jira6clientNtB9_10JiraClient7requestINtNtCsiAD6NEzHbBo_5alloc3vec3VecNtNtNtBd_5types4jira10JiraStatusEuE00Bd_
FN:202,_RNCNCINvMs_NtNtCskhkPsqpzxNu_13rust_jira_mcp4jira6clientNtB9_10JiraClient7requestINtNtCsiAD6NEzHbBo_5alloc3vec3VecNtNtNtBd_5types4jira10JiraStatusEuE0s_0Bd_
FN:190,_RNCNCINvMs_NtNtCskhkPsqpzxNu_13rust_jira_mcp4jira6clientNtB9_10JiraClient7requestINtNtCsiAD6NEzHbBo_5alloc3vec3VecNtNtNtBd_5types4jira12JiraLinkTypeEuE00Bd_
FN:202,_RNCNCINvMs_NtNtCskhkPsqpzxNu_13rust_jira_mcp4jira6clientNtB9_10JiraClient7requestINtNtCsiAD6NEzHbBo_5alloc3vec3VecNtNtNtBd_5types4jira12JiraLinkTypeEuE0s_0Bd_
FN:190,_RNCNCINvMs_NtNtCskhkPsqpzxNu_13rust_jira_mcp4jira6clientNtB9_10JiraClient7requestINtNtCsiAD6NEzHbBo_5alloc3vec3VecNtNtNtBd_5types4jira12JiraPriorityEuE00Bd_
FN:202,_RNCNCINvMs_NtNtCskhkPsqpzxNu_13rust_jira_mcp4jira6clientNtB9_10JiraClient7requestINtNtCsiAD6NEzHbBo_5alloc3vec3VecNtNtNtBd_5types4jira12JiraPriorityEuE0s_0Bd_
FN:190,_RNCNCINvMs_NtNtCskhkPsqpzxNu_13rust_jira_mcp4jira6clientNtB9_10JiraClient7requestINtNtCsiAD6NEzHbBo_5alloc3vec3VecNtNtNtBd_5types4jira13JiraComponentEuE00Bd_
FN:202,_RNCNCINvMs_NtNtCskhkPsqpzxNu_13rust_jira_mcp4jira6clientNtB9_10JiraClient7requestINtNtCsiAD6NEzHbBo_5alloc3vec3VecNtNtNtBd_5types4jira13JiraComponentEuE0s_0Bd_
FN:190,_RNCNCINvMs_NtNtCskhkPsqpzxNu_13rust_jira_mcp4jira6clientNtB9_10JiraClient7requestNtNtCslJRJgdvPEaJ_10serde_json5value5ValueB1h_E00Bd_
FN:202,_RNCNCINvMs_NtNtCskhkPsqpzxNu_13rust_jira_mcp4jira6clientNtB9_10JiraClient7requestNtNtCslJRJgdvPEaJ_10serde_json5value5ValueB1h_E0s_0Bd_
FN:190,_RNCNCINvMs_NtNtCskhkPsqpzxNu_13rust_jira_mcp4jira6clientNtB9_10JiraClient7requestNtNtCslJRJgdvPEaJ_10serde_json5value5ValueNtNtNtBd_5types4jira26JiraIssueLinkCreateRequestE00Bd_
FN:202,_RNCNCINvMs_NtNtCskhkPsqpzxNu_13rust_jira_mcp4jira6clientNtB9_10JiraClient7requestNtNtCslJRJgdvPEaJ_10serde_json5value5ValueNtNtNtBd_5types4jira26JiraIssueLinkCreateRequestE0s_0Bd_
FN:190,_RNCNCINvMs_NtNtCskhkPsqpzxNu_13rust_jira_mcp4jira6clientNtB9_10JiraClient7requestNtNtCslJRJgdvPEaJ_10serde_json5value5ValueuE00Bd_
FN:202,_RNCNCINvMs_NtNtCskhkPsqpzxNu_13rust_jira_mcp4jira6clientNtB9_10JiraClient7requestNtNtCslJRJgdvPEaJ_10serde_json5value5ValueuE0s_0Bd_
FN:190,_RNCNCINvMs_NtNtCskhkPsqpzxNu_13rust_jira_mcp4jira6clientNtB9_10JiraClient7requestNtNtNtBd_5types4jira11JiraCommentNtNtCslJRJgdvPEaJ_10serde_json5value5ValueE00Bd_
FN:202,_RNCNCINvMs_NtNtCskhkPsqpzxNu_13rust_jira_mcp4jira6clientNtB9_10JiraClient7requestNtNtNtBd_5types4jira11JiraCommentNtNtCslJRJgdvPEaJ_10serde_json5value5ValueE0s_0Bd_
FN:190,_RNCNCINvMs_NtNtCskhkPsqpzxNu_13rust_jira_mcp4jira6clientNtB9_10JiraClient7requestNtNtNtBd_5types4jira11JiraWorkLogNtB1j_24JiraWorkLogCreateRequestE00Bd_
FN:202,_RNCNCINvMs_NtNtCskhkPsqpzxNu_13rust_jira_mcp4jira6clientNtB9_10JiraClient7requestNtNtNtBd_5types4jira11JiraWorkLogNtB1j_24JiraWorkLogCreateRequestE0s_0Bd_
FN:190,_RNCNCINvMs_NtNtCskhkPsqpzxNu_13rust_jira_mcp4jira6clientNtB9_10JiraClient7requestNtNtNtBd_5types4jira11JiraWorkLogNtB1j_24JiraWorkLogUpdateRequestE00Bd_
FN:202,_RNCNCINvMs_NtNtCskhkPsqpzxNu_13rust_jira_mcp4jira6clientNtB9_10JiraClient7requestNtNtNtBd_5types4jira11JiraWorkLogNtB1j_24JiraWorkLogUpdateRequestE0s_0Bd_
FN:190,_RNCNCINvMs_NtNtCskhkPsqpzxNu_13rust_jira_mcp4jira6clientNtB9_10JiraClient7requestNtNtNtBd_5types4jira13JiraComponentNtB1j_26JiraComponentCreateRequestE00Bd_
FN:202,_RNCNCINvMs_NtNtCskhkPsqpzxNu_13rust_jira_mcp4jira6clientNtB9_10JiraClient7requestNtNtNtBd_5types4jira13JiraComponentNtB1j_26JiraComponentCreateRequestE0s_0Bd_
FN:190,_RNCNCINvMs_NtNtCskhkPsqpzxNu_13rust_jira_mcp4jira6clientNtB9_10JiraClient7requestNtNtNtBd_5types4jira13JiraComponentNtB1j_26JiraComponentUpdateRequestE00Bd_
FN:202,_RNCNCINvMs_NtNtCskhkPsqpzxNu_13rust_jira_mcp4jira6clientNtB9_10JiraClient7requestNtNtNtBd_5types4jira13JiraComponentNtB1j_26JiraComponentUpdateRequestE0s_0Bd_
FN:190,_RNCNCINvMs_NtNtCskhkPsqpzxNu_13rust_jira_mcp4jira6clientNtB9_10JiraClient7requestNtNtNtBd_5types4jira13JiraIssueTypeuE00Bd_
FN:202,_RNCNCINvMs_NtNtCskhkPsqpzxNu_13rust_jira_mcp4jira6clientNtB9_10JiraClient7requestNtNtNtBd_5types4jira13JiraIssueTypeuE0s_0Bd_
FN:190,_RNCNCINvMs_NtNtCskhkPsqpzxNu_13rust_jira_mcp4jira6clientNtB9_10JiraClient7requestNtNtNtBd_5types4jira16JiraSearchResultuE00Bd_
FN:202,_RNCNCINvMs_NtNtCskhkPsqpzxNu_13rust_jira_mcp4jira6clientNtB9_10JiraClient7requestNtNtNtBd_5types4jira16JiraSearchResultuE0s_0Bd_
FN:190,_RNCNCINvMs_NtNtCskhkPsqpzxNu_13rust_jira_mcp4jira6clientNtB9_10JiraClient7requestNtNtNtBd_5types4jira20JiraWatchersResponseuE00Bd_
FN:202,_RNCNCINvMs_NtNtCskhkPsqpzxNu_13rust_jira_mcp4jira6clientNtB9_10JiraClient7requestNtNtNtBd_5types4jira20JiraWatchersResponseuE0s_0Bd_
FN:190,_RNCNCINvMs_NtNtCskhkPsqpzxNu_13rust_jira_mcp4jira6clientNtB9_10JiraClient7requestNtNtNtBd_5types4jira9JiraIssueNtNtCslJRJgdvPEaJ_10serde_json5value5ValueE00Bd_
FN:202,_RNCNCINvMs_NtNtCskhkPsqpzxNu_13rust_jira_mcp4jira6clientNtB9_10JiraClient7requestNtNtNtBd_5types4jira9JiraIssueNtNtCslJRJgdvPEaJ_10serde_json5value5ValueE0s_0Bd_
FN:190,_RNCNCINvMs_NtNtCskhkPsqpzxNu_13rust_jira_mcp4jira6clientNtB9_10JiraClient7requestNtNtNtBd_5types4jira9JiraIssueuE00Bd_
FN:202,_RNCNCINvMs_NtNtCskhkPsqpzxNu_13rust_jira_mcp4jira6clientNtB9_10JiraClient7requestNtNtNtBd_5types4jira9JiraIssueuE0s_0Bd_
FN:190,_RNCNCINvMs_NtNtCskhkPsqpzxNu_13rust_jira_mcp4jira6clientNtB9_10JiraClient7requestNtNtNtBd_5types4jira9JiraLabelNtB1j_22JiraLabelCreateRequestE00Bd_
FN:202,_RNCNCINvMs_NtNtCskhkPsqpzxNu_13rust_jira_mcp4jira6clientNtB9_10JiraClient7requestNtNtNtBd_5types4jira9JiraLabelNtB1j_22JiraLabelCreateRequestE0s_0Bd_
FN:190,_RNCNCINvMs_NtNtCskhkPsqpzxNu_13rust_jira_mcp4jira6clientNtB9_10JiraClient7requestNtNtNtBd_5types4jira9JiraLabelNtB1j_22JiraLabelUpdateRequestE00Bd_
FN:202,_RNCNCINvMs_NtNtCskhkPsqpzxNu_13rust_jira_mcp4jira6clientNtB9_10JiraClient7requestNtNtNtBd_5types4jira9JiraLabelNtB1j_22JiraLabelUpdateRequestE0s_0Bd_
FN:1211,_RNCNCNvMs_NtNtCskhkPsqpzxNu_13rust_jira_mcp4jira6clientNtB8_10JiraClient10get_labels00Bc_
FN:635,_RNCNCNvMs_NtNtCskhkPsqpzxNu_13rust_jira_mcp4jira6clientNtB8_10JiraClient11link_issues00Bc_
FN:389,_RNCNCNvMs_NtNtCskhkPsqpzxNu_13rust_jira_mcp4jira6clientNtB8_10JiraClient12get_comments00Bc_
FN:390,_RNCNCNvMs_NtNtCskhkPsqpzxNu_13rust_jira_mcp4jira6clientNtB8_10JiraClient12get_comments0s_0Bc_
FN:332,_RNCNCNvMs_NtNtCskhkPsqpzxNu_13rust_jira_mcp4jira6clientNtB8_10JiraClient13search_issues00Bc_
FN:578,_RNCNCNvMs_NtNtCskhkPsqpzxNu_13rust_jira_mcp4jira6clientNtB8_10JiraClient15get_issue_links00Bc_
FN:414,_RNCNCNvMs_NtNtCskhkPsqpzxNu_13rust_jira_mcp4jira6clientNtB8_10JiraClient15get_transitions00Bc_
FN:415,_RNCNCNvMs_NtNtCskhkPsqpzxNu_13rust_jira_mcp4jira6clientNtB8_10JiraClient15get_transitions0s_0Bc_
FN:1152,_RNCNCNvMs_NtNtCskhkPsqpzxNu_13rust_jira_mcp4jira6clientNtB8_10JiraClient17bulk_add_comments00Bc_
FN:552,_RNCNCNvMs_NtNtCskhkPsqpzxNu_13rust_jira_mcp4jira6clientNtB8_10JiraClient17get_custom_fields00Bc_
FN:1006,_RNCNCNvMs_NtNtCskhkPsqpzxNu_13rust_jira_mcp4jira6clientNtB8_10JiraClient17perform_operation00Bc_
FN:1010,_RNCNCNvMs_NtNtCskhkPsqpzxNu_13rust_jira_mcp4jira6clientNtB8_10JiraClient17perform_operation0s0_0Bc_
FN:1018,_RNCNCNvMs_NtNtCskhkPsqpzxNu_13rust_jira_mcp4jira6clientNtB8_10JiraClient17perform_operation0s1_0Bc_
FN:1019,_RNCNCNvMs_NtNtCskhkPsqpzxNu_13rust_jira_mcp4jira6clientNtB8_10JiraClient17perform_operation0s2_0Bc_
FN:1036,_RNCNCNvMs_NtNtCskhkPsqpzxNu_13rust_jira_mcp4jira6clientNtB8_10JiraClient17perform_operation0s3_0Bc_
FN:1037,_RNCNCNvMs_NtNtCskhkPsqpzxNu_13rust_jira_mcp4jira6clientNtB8_10JiraClient17perform_operation0s4_0Bc_
FN:1040,_RNCNCNvMs_NtNtCskhkPsqpzxNu_13rust_jira_mcp4jira6clientNtB8_10JiraClient17perform_operation0s5_0Bc_
FN:1048,_RNCNCNvMs_NtNtCskhkPsqpzxNu_13rust_jira_mcp4jira6clientNtB8_10JiraClient17perform_operation0s6_0Bc_
FN:1049,_RNCNCNvMs_NtNtCskhkPsqpzxNu_13rust_jira_mcp4jira6clientNtB8_10JiraClient17perform_operation0s7_0Bc_
FN:1007,_RNCNCNvMs_NtNtCskhkPsqpzxNu_13rust_jira_mcp4jira6clientNtB8_10JiraClient17perform_operation0s_0Bc_
FN:724,_RNCNCNvMs_NtNtCskhkPsqpzxNu_13rust_jira_mcp4jira6clientNtB8_10JiraClient17upload_attachment00Bc_
FN:1091,_RNCNCNvMs_NtNtCskhkPsqpzxNu_13rust_jira_mcp4jira6clientNtB8_10JiraClient18bulk_update_issues00Bc_
FN:771,_RNCNCNvMs_NtNtCskhkPsqpzxNu_13rust_jira_mcp4jira6clientNtB8_10JiraClient19download_attachment00Bc_
FN:790,_RNCNCNvMs_NtNtCskhkPsqpzxNu_13rust_jira_mcp4jira6clientNtB8_10JiraClient19get_issue_work_logs00Bc_
FN:791,_RNCNCNvMs_NtNtCskhkPsqpzxNu_13rust_jira_mcp4jira6clientNtB8_10JiraClient19get_issue_work_logs0s_0Bc_
FN:656,_RNCNCNvMs_NtNtCskhkPsqpzxNu_13rust_jira_mcp4jira6clientNtB8_10JiraClient21get_issue_attachments00Bc_
FN:657,_RNCNCNvMs_NtNtCskhkPsqpzxNu_13rust_jira_mcp4jira6clientNtB8_10JiraClient21get_issue_attachments0s_0Bc_
FN:1776,_RNCNCNvMs_NtNtCskhkPsqpzxNu_13rust_jira_mcp4jira6clientNtB8_10JiraClient21get_zephyr_test_plans00Bc_
FN:1777,_RNCNCNvMs_NtNtCskhkPsqpzxNu_13rust_jira_mcp4jira6clientNtB8_10JiraClient21get_zephyr_test_plans0s_0Bc_
FN:1559,_RNCNCNvMs_NtNtCskhkPsqpzxNu_13rust_jira_mcp4jira6clientNtB8_10JiraClient21get_zephyr_test_steps00Bc_
FN:1560,_RNCNCNvMs_NtNtCskhkPsqpzxNu_13rust_jira_mcp4jira6clientNtB8_10JiraClient21get_zephyr_test_steps0s_0Bc_
FN:1124,_RNCNCNvMs_NtNtCskhkPsqpzxNu_13rust_jira_mcp4jira6clientNtB8_10JiraClient22bulk_transition_issues00Bc_
FN:1735,_RNCNCNvMs_NtNtCskhkPsqpzxNu_13rust_jira_mcp4jira6clientNtB8_10JiraClient22get_zephyr_test_cycles00Bc_
FN:1736,_RNCNCNvMs_NtNtCskhkPsqpzxNu_13rust_jira_mcp4jira6clientNtB8_10JiraClient22get_zephyr_test_cycles0s_0Bc_
FN:481,_RNCNCNvMs_NtNtCskhkPsqpzxNu_13rust_jira_mcp4jira6clientNtB8_10JiraClient23get_project_issue_types00Bc_
FN:482,_RNCNCNvMs_NtNtCskhkPsqpzxNu_13rust_jira_mcp4jira6clientNtB8_10JiraClient23get_project_issue_types0s_0Bc_
FN:1641,_RNCNCNvMs_NtNtCskhkPsqpzxNu_13rust_jira_mcp4jira6clientNtB8_10JiraClient24search_zephyr_test_cases00Bc_
FN:1687,_RNCNCNvMs_NtNtCskhkPsqpzxNu_13rust_jira_mcp4jira6clientNtB8_10JiraClient26get_zephyr_test_executions00Bc_
FN:1688,_RNCNCNvMs_NtNtCskhkPsqpzxNu_13rust_jira_mcp4jira6clientNtB8_10JiraClient26get_zephyr_test_executions0s_0Bc_
FN:45,_RNCNvMNtNtCskhkPsqpzxNu_13rust_jira_mcp4jira6clientNtB4_11RateLimiter14wait_if_needed0B8_
FN:1205,_RNCNvMs_NtNtCskhkPsqpzxNu_13rust_jira_mcp4jira6clientNtB6_10JiraClient10get_labels0Ba_
FN:369,_RNCNvMs_NtNtCskhkPsqpzxNu_13rust_jira_mcp4jira6clientNtB6_10JiraClient11add_comment0Ba_
FN:1307,_RNCNvMs_NtNtCskhkPsqpzxNu_13rust_jira_mcp4jira6clientNtB6_10JiraClient11clone_issue0Ba_
FN:623,_RNCNvMs_NtNtCskhkPsqpzxNu_13rust_jira_mcp4jira6clientNtB6_10JiraClient11link_issues0Ba_
FN:812,_RNCNvMs_NtNtCskhkPsqpzxNu_13rust_jira_mcp4jira6clientNtB6_10JiraClient12add_work_log0Ba_
FN:345,_RNCNvMs_NtNtCskhkPsqpzxNu_13rust_jira_mcp4jira6clientNtB6_10JiraClient12create_issue0Ba_
FN:1228,_RNCNvMs_NtNtCskhkPsqpzxNu_13rust_jira_mcp4jira6clientNtB6_10JiraClient12create_label0Ba_
FN:1251,_RNCNvMs_NtNtCskhkPsqpzxNu_13rust_jira_mcp4jira6clientNtB6_10JiraClient12delete_label0Ba_
FN:382,_RNCNvMs_NtNtCskhkPsqpzxNu_13rust_jira_mcp4jira6clientNtB6_10JiraClient12get_comments0Ba_
FN:537,_RNCNvMs_NtNtCskhkPsqpzxNu_13rust_jira_mcp4jira6clientNtB6_10JiraClient12get_statuses0Ba_
FN:358,_RNCNvMs_NtNtCskhkPsqpzxNu_13rust_jira_mcp4jira6clientNtB6_10JiraClient12update_issue0Ba_
FN:1241,_RNCNvMs_NtNtCskhkPsqpzxNu_13rust_jira_mcp4jira6clientNtB6_10JiraClient12update_label0Ba_
FN:935,_RNCNvMs_NtNtCskhkPsqpzxNu_13rust_jira_mcp4jira6clientNtB6_10JiraClient13process_batch0Ba_
FN:317,_RNCNvMs_NtNtCskhkPsqpzxNu_13rust_jira_mcp4jira6clientNtB6_10JiraClient13search_issues0Ba_
FN:563,_RNCNvMs_NtNtCskhkPsqpzxNu_13rust_jira_mcp4jira6clientNtB6_10JiraClient14get_link_types0Ba_
FN:528,_RNCNvMs_NtNtCskhkPsqpzxNu_13rust_jira_mcp4jira6clientNtB6_10JiraClient14get_priorities0Ba_
FN:837,_RNCNvMs_NtNtCskhkPsqpzxNu_13rust_jira_mcp4jira6clientNtB6_10JiraClient15delete_work_log0Ba_
FN:572,_RNCNvMs_NtNtCskhkPsqpzxNu_13rust_jira_mcp4jira6clientNtB6_10JiraClient15get_issue_links0Ba_
FN:407,_RNCNvMs_NtNtCskhkPsqpzxNu_13rust_jira_mcp4jira6clientNtB6_10JiraClient15get_transitions0Ba_
FN:827,_RNCNvMs_NtNtCskhkPsqpzxNu_13rust_jira_mcp4jira6clientNtB6_10JiraClient15update_work_log0Ba_
FN:1512,_RNCNvMs_NtNtCskhkPsqpzxNu_13rust_jira_mcp4jira6clientNtB6_10JiraClient16build_zephyr_url0Ba_
FN:1516,_RNCNvMs_NtNtCskhkPsqpzxNu_13rust_jira_mcp4jira6clientNtB6_10JiraClient16build_zephyr_urls_0Ba_
FN:1267,_RNCNvMs_NtNtCskhkPsqpzxNu_13rust_jira_mcp4jira6clientNtB6_10JiraClient16create_component0Ba_
FN:1290,_RNCNvMs_NtNtCskhkPsqpzxNu_13rust_jira_mcp4jira6clientNtB6_10JiraClient16delete_component0Ba_
FN:437,_RNCNvMs_NtNtCskhkPsqpzxNu_13rust_jira_mcp4jira6clientNtB6_10JiraClient16transition_issue0Ba_
FN:1280,_RNCNvMs_NtNtCskhkPsqpzxNu_13rust_jira_mcp4jira6clientNtB6_10JiraClient16update_component0Ba_
FN:1178,_RNCNvMs_NtNtCskhkPsqpzxNu_13rust_jira_mcp4jira6clientNtB6_10JiraClient17add_issue_watcher0Ba_
FN:1143,_RNCNvMs_NtNtCskhkPsqpzxNu_13rust_jira_mcp4jira6clientNtB6_10JiraClient17bulk_add_comments0Ba_
FN:595,_RNCNvMs_NtNtCskhkPsqpzxNu_13rust_jira_mcp4jira6clientNtB6_10JiraClient17create_issue_link0Ba_
FN:735,_RNCNvMs_NtNtCskhkPsqpzxNu_13rust_jira_mcp4jira6clientNtB6_10JiraClient17delete_attachment0Ba_
FN:606,_RNCNvMs_NtNtCskhkPsqpzxNu_13rust_jira_mcp4jira6clientNtB6_10JiraClient17delete_issue_link0Ba_
FN:546,_RNCNvMs_NtNtCskhkPsqpzxNu_13rust_jira_mcp4jira6clientNtB6_10JiraClient17get_custom_fields0Ba_
FN:996,_RNCNvMs_NtNtCskhkPsqpzxNu_13rust_jira_mcp4jira6clientNtB6_10JiraClient17perform_operation0Ba_
FN:680,_RNCNvMs_NtNtCskhkPsqpzxNu_13rust_jira_mcp4jira6clientNtB6_10JiraClient17upload_attachment0Ba_
FN:1086,_RNCNvMs_NtNtCskhkPsqpzxNu_13rust_jira_mcp4jira6clientNtB6_10JiraClient18bulk_update_issues0Ba_
FN:1168,_RNCNvMs_NtNtCskhkPsqpzxNu_13rust_jira_mcp4jira6clientNtB6_10JiraClient18get_issue_watchers0Ba_
FN:746,_RNCNvMs_NtNtCskhkPsqpzxNu_13rust_jira_mcp4jira6clientNtB6_10JiraClient19download_attachment0Ba_
FN:784,_RNCNvMs_NtNtCskhkPsqpzxNu_13rust_jira_mcp4jira6clientNtB6_10JiraClient19get_issue_work_logs0Ba_
FN:853,_RNCNvMs_NtNtCskhkPsqpzxNu_13rust_jira_mcp4jira6clientNtB6_10JiraClient20get_project_metadata0Ba_
FN:1192,_RNCNvMs_NtNtCskhkPsqpzxNu_13rust_jira_mcp4jira6clientNtB6_10JiraClient20remove_issue_watcher0Ba_
FN:650,_RNCNvMs_NtNtCskhkPsqpzxNu_13rust_jira_mcp4jira6clientNtB6_10JiraClient21get_issue_attachments0Ba_
FN:1769,_RNCNvMs_NtNtCskhkPsqpzxNu_13rust_jira_mcp4jira6clientNtB6_10JiraClient21get_zephyr_test_plans0Ba_
FN:1552,_RNCNvMs_NtNtCskhkPsqpzxNu_13rust_jira_mcp4jira6clientNtB6_10JiraClient21get_zephyr_test_steps0Ba_
FN:1111,_RNCNvMs_NtNtCskhkPsqpzxNu_13rust_jira_mcp4jira6clientNtB6_10JiraClient22bulk_transition_issues0Ba_
FN:518,_RNCNvMs_NtNtCskhkPsqpzxNu_13rust_jira_mcp4jira6clientNtB6_10JiraClient22get_project_components0Ba_
FN:1728,_RNCNvMs_NtNtCskhkPsqpzxNu_13rust_jira_mcp4jira6clientNtB6_10JiraClient22get_zephyr_test_cycles0Ba_
FN:1657,_RNCNvMs_NtNtCskhkPsqpzxNu_13rust_jira_mcp4jira6clientNtB6_10JiraClient23create_zephyr_test_case0Ba_
FN:1580,_RNCNvMs_NtNtCskhkPsqpzxNu_13rust_jira_mcp4jira6clientNtB6_10JiraClient23create_zephyr_test_step0Ba_
FN:1605,_RNCNvMs_NtNtCskhkPsqpzxNu_13rust_jira_mcp4jira6clientNtB6_10JiraClient23delete_zephyr_test_step0Ba_
FN:885,_RNCNvMs_NtNtCskhkPsqpzxNu_13rust_jira_mcp4jira6clientNtB6_10JiraClient23execute_bulk_operations0Ba_
FN:505,_RNCNvMs_NtNtCskhkPsqpzxNu_13rust_jira_mcp4jira6clientNtB6_10JiraClient23get_issue_type_metadata0Ba_
FN:475,_RNCNvMs_NtNtCskhkPsqpzxNu_13rust_jira_mcp4jira6clientNtB6_10JiraClient23get_project_issue_types0Ba_
FN:1595,_RNCNvMs_NtNtCskhkPsqpzxNu_13rust_jira_mcp4jira6clientNtB6_10JiraClient23update_zephyr_test_step0Ba_
FN:956,_RNCNvMs_NtNtCskhkPsqpzxNu_13rust_jira_mcp4jira6clientNtB6_10JiraClient24execute_single_operation0Ba_
FN:1628,_RNCNvMs_NtNtCskhkPsqpzxNu_13rust_jira_mcp4jira6clientNtB6_10JiraClient24search_zephyr_test_cases0Ba_
FN:462,_RNCNvMs_NtNtCskhkPsqpzxNu_13rust_jira_mcp4jira6clientNtB6_10JiraClient25get_project_configuration0Ba_
FN:1680,_RNCNvMs_NtNtCskhkPsqpzxNu_13rust_jira_mcp4jira6clientNtB6_10JiraClient26get_zephyr_test_executions0Ba_
FN:1708,_RNCNvMs_NtNtCskhkPsqpzxNu_13rust_jira_mcp4jira6clientNtB6_10JiraClient28create_zephyr_test_execution0Ba_
FN:249,_RNCNvMs_NtNtCskhkPsqpzxNu_13rust_jira_mcp4jira6clientNtB6_10JiraClient9build_url0Ba_
FN:253,_RNCNvMs_NtNtCskhkPsqpzxNu_13rust_jira_mcp4jira6clientNtB6_10JiraClient9build_urls_0Ba_
FN:302,_RNCNvMs_NtNtCskhkPsqpzxNu_13rust_jira_mcp4jira6clientNtB6_10JiraClient9get_issue0Ba_
FN:45,_RNvMNtNtCskhkPsqpzxNu_13rust_jira_mcp4jira6clientNtB2_11RateLimiter14wait_if_needed
FN:34,_RNvMNtNtCskhkPsqpzxNu_13rust_jira_mcp4jira6clientNtB2_11RateLimiter3new
FN:1205,_RNvMs_NtNtCskhkPsqpzxNu_13rust_jira_mcp4jira6clientNtB4_10JiraClient10get_labels
FN:369,_RNvMs_NtNtCskhkPsqpzxNu_13rust_jira_mcp4jira6clientNtB4_10JiraClient11add_comment
FN:95,_RNvMs_NtNtCskhkPsqpzxNu_13rust_jira_mcp4jira6clientNtB4_10JiraClient11auth_header
FN:1303,_RNvMs_NtNtCskhkPsqpzxNu_13rust_jira_mcp4jira6clientNtB4_10JiraClient11clone_issue
FN:101,_RNvMs_NtNtCskhkPsqpzxNu_13rust_jira_mcp4jira6clientNtB4_10JiraClient11http_client
FN:617,_RNvMs_NtNtCskhkPsqpzxNu_13rust_jira_mcp4jira6clientNtB4_10JiraClient11link_issues
FN:808,_RNvMs_NtNtCskhkPsqpzxNu_13rust_jira_mcp4jira6clientNtB4_10JiraClient12add_work_log
FN:89,_RNvMs_NtNtCskhkPsqpzxNu_13rust_jira_mcp4jira6clientNtB4_10JiraClient12api_base_url
FN:345,_RNvMs_NtNtCskhkPsqpzxNu_13rust_jira_mcp4jira6clientNtB4_10JiraClient12create_issue
FN:1228,_RNvMs_NtNtCskhkPsqpzxNu_13rust_jira_mcp4jira6clientNtB4_10JiraClient12create_label
FN:1251,_RNvMs_NtNtCskhkPsqpzxNu_13rust_jira_mcp4jira6clientNtB4_10JiraClient12delete_label
FN:382,_RNvMs_NtNtCskhkPsqpzxNu_13rust_jira_mcp4jira6clientNtB4_10JiraClient12get_comments
FN:537,_RNvMs_NtNtCskhkPsqpzxNu_13rust_jira_mcp4jira6clientNtB4_10JiraClient12get_statuses
FN:284,_RNvMs_NtNtCskhkPsqpzxNu_13rust_jira_mcp4jira6clientNtB4_10JiraClient12should_retry
FN:354,_RNvMs_NtNtCskhkPsqpzxNu_13rust_jira_mcp4jira6clientNtB4_10JiraClient12update_issue
FN:1237,_RNvMs_NtNtCskhkPsqpzxNu_13rust_jira_mcp4jira6clientNtB4_10JiraClient12update_label
FN:931,_RNvMs_NtNtCskhkPsqpzxNu_13rust_jira_mcp4jira6clientNtB4_10JiraClient13process_batch
FN:312,_RNvMs_NtNtCskhkPsqpzxNu_13rust_jira_mcp4jira6clientNtB4_10JiraClient13search_issues
FN:563,_RNvMs_NtNtCskhkPsqpzxNu_13rust_jira_mcp4jira6clientNtB4_10JiraClient14get_link_types
FN:528,_RNvMs_NtNtCskhkPsqpzxNu_13rust_jira_mcp4jira6clientNtB4_10JiraClient14get_priorities
FN:837,_RNvMs_NtNtCskhkPsqpzxNu_13rust_jira_mcp4jira6clientNtB4_10JiraClient15delete_work_log
FN:572,_RNvMs_NtNtCskhkPsqpzxNu_13rust_jira_mcp4jira6clientNtB4_10JiraClient15get_issue_links
FN:407,_RNvMs_NtNtCskhkPsqpzxNu_13rust_jira_mcp4jira6clientNtB4_10JiraClient15get_transitions
FN:822,_RNvMs_NtNtCskhkPsqpzxNu_13rust_jira_mcp4jira6clientNtB4_10JiraClient15update_work_log
FN:1510,_RNvMs_NtNtCskhkPsqpzxNu_13rust_jira_mcp4jira6clientNtB4_10JiraClient16build_zephyr_url
FN:1264,_RNvMs_NtNtCskhkPsqpzxNu_13rust_jira_mcp4jira6clientNtB4_10JiraClient16create_component
FN:1290,_RNvMs_NtNtCskhkPsqpzxNu_13rust_jira_mcp4jira6clientNtB4_10JiraClient16delete_component
FN:432,_RNvMs_NtNtCskhkPsqpzxNu_13rust_jira_mcp4jira6clientNtB4_10JiraClient16transition_issue
FN:1276,_RNvMs_NtNtCskhkPsqpzxNu_13rust_jira_mcp4jira6clientNtB4_10JiraClient16update_component
FN:1178,_RNvMs_NtNtCskhkPsqpzxNu_13rust_jira_mcp4jira6clientNtB4_10JiraClient17add_issue_watcher
FN:1138,_RNvMs_NtNtCskhkPsqpzxNu_13rust_jira_mcp4jira6clientNtB4_10JiraClient17bulk_add_comments
FN:595,_RNvMs_NtNtCskhkPsqpzxNu_13rust_jira_mcp4jira6clientNtB4_10JiraClient17create_issue_link
FN:735,_RNvMs_NtNtCskhkPsqpzxNu_13rust_jira_mcp4jira6clientNtB4_10JiraClient17delete_attachment
FN:606,_RNvMs_NtNtCskhkPsqpzxNu_13rust_jira_mcp4jira6clientNtB4_10JiraClient17delete_issue_link
FN:546,_RNvMs_NtNtCskhkPsqpzxNu_13rust_jira_mcp4jira6clientNtB4_10JiraClient17get_custom_fields
FN:996,_RNvMs_NtNtCskhkPsqpzxNu_13rust_jira_mcp4jira6clientNtB4_10JiraClient17perform_operation
FN:674,_RNvMs_NtNtCskhkPsqpzxNu_13rust_jira_mcp4jira6clientNtB4_10JiraClient17upload_attachment
FN:1081,_RNvMs_NtNtCskhkPsqpzxNu_13rust_jira_mcp4jira6clientNtB4_10JiraClient18bulk_update_issues
FN:1168,_RNvMs_NtNtCskhkPsqpzxNu_13rust_jira_mcp4jira6clientNtB4_10JiraClient18get_issue_watchers
FN:746,_RNvMs_NtNtCskhkPsqpzxNu_13rust_jira_mcp4jira6clientNtB4_10JiraClient19download_attachment
FN:784,_RNvMs_NtNtCskhkPsqpzxNu_13rust_jira_mcp4jira6clientNtB4_10JiraClient19get_issue_work_logs
FN:1359,_RNvMs_NtNtCskhkPsqpzxNu_13rust_jira_mcp4jira6clientNtB4_10JiraClient19zephyr_api_base_url
FN:853,_RNvMs_NtNtCskhkPsqpzxNu_13rust_jira_mcp4jira6clientNtB4_10JiraClient20get_project_metadata
FN:1192,_RNvMs_NtNtCskhkPsqpzxNu_13rust_jira_mcp4jira6clientNtB4_10JiraClient20remove_issue_watcher
FN:650,_RNvMs_NtNtCskhkPsqpzxNu_13rust_jira_mcp4jira6clientNtB4_10JiraClient21get_issue_attachments
FN:1769,_RNvMs_NtNtCskhkPsqpzxNu_13rust_jira_mcp4jira6clientNtB4_10JiraClient21get_zephyr_test_plans
FN:1552,_RNvMs_NtNtCskhkPsqpzxNu_13rust_jira_mcp4jira6clientNtB4_10JiraClient21get_zephyr_test_steps
FN:1105,_RNvMs_NtNtCskhkPsqpzxNu_13rust_jira_mcp4jira6clientNtB4_10JiraClient22bulk_transition_issues
FN:515,_RNvMs_NtNtCskhkPsqpzxNu_13rust_jira_mcp4jira6clientNtB4_10JiraClient22get_project_components
FN:1728,_RNvMs_NtNtCskhkPsqpzxNu_13rust_jira_mcp4jira6clientNtB4_10JiraClient22get_zephyr_test_cycles
FN:1064,_RNvMs_NtNtCskhkPsqpzxNu_13rust_jira_mcp4jira6clientNtB4_10JiraClient22should_retry_operation
FN:1654,_RNvMs_NtNtCskhkPsqpzxNu_13rust_jira_mcp4jira6clientNtB4_10JiraClient23create_zephyr_test_case
FN:1577,_RNvMs_NtNtCskhkPsqpzxNu_13rust_jira_mcp4jira6clientNtB4_10JiraClient23create_zephyr_test_step
FN:1605,_RNvMs_NtNtCskhkPsqpzxNu_13rust_jira_mcp4jira6clientNtB4_10JiraClient23delete_zephyr_test_step
FN:881,_RNvMs_NtNtCskhkPsqpzxNu_13rust_jira_mcp4jira6clientNtB4_10JiraClient23execute_bulk_operations
FN:502,_RNvMs_NtNtCskhkPsqpzxNu_13rust_jira_mcp4jira6clientNtB4_10JiraClient23get_issue_type_metadata
FN:472,_RNvMs_NtNtCskhkPsqpzxNu_13rust_jira_mcp4jira6clientNtB4_10JiraClient23get_project_issue_types
FN:1590,_RNvMs_NtNtCskhkPsqpzxNu_13rust_jira_mcp4jira6clientNtB4_10JiraClient23update_zephyr_test_step
FN:952,_RNvMs_NtNtCskhkPsqpzxNu_13rust_jira_mcp4jira6clientNtB4_10JiraClient24execute_single_operation
FN:1623,_RNvMs_NtNtCskhkPsqpzxNu_13rust_jira_mcp4jira6clientNtB4_10JiraClient24search_zephyr_test_cases
FN:462,_RNvMs_NtNtCskhkPsqpzxNu_13rust_jira_mcp4jira6clientNtB4_10JiraClient25get_project_configuration
FN:1677,_RNvMs_NtNtCskhkPsqpzxNu_13rust_jira_mcp4jira6clientNtB4_10JiraClient26get_zephyr_test_executions
FN:1705,_RNvMs_NtNtCskhkPsqpzxNu_13rust_jira_mcp4jira6clientNtB4_10JiraClient28create_zephyr_test_execution
FN:71,_RNvMs_NtNtCskhkPsqpzxNu_13rust_jira_mcp4jira6clientNtB4_10JiraClient3new
FN:247,_RNvMs_NtNtCskhkPsqpzxNu_13rust_jira_mcp4jira6clientNtB4_10JiraClient9build_url
FN:302,_RNvMs_NtNtCskhkPsqpzxNu_13rust_jira_mcp4jira6clientNtB4_10JiraClient9get_issue
FN:1396,_RINvMs_NtNtCskhkPsqpzxNu_13rust_jira_mcp4jira6clientNtB5_10JiraClient10zephyr_putNtNtCslJRJgdvPEaJ_10serde_json5value5ValueB1h_ECselElugPp0Na_16jira_client_test
FN:1382,_RINvMs_NtNtCskhkPsqpzxNu_13rust_jira_mcp4jira6clientNtB5_10JiraClient11zephyr_postNtNtCslJRJgdvPEaJ_10serde_json5value5ValueB1i_ECselElugPp0Na_16jira_client_test
FN:1422,_RINvMs_NtNtCskhkPsqpzxNu_13rust_jira_mcp4jira6clientNtB5_10JiraClient14zephyr_requestNtNtCslJRJgdvPEaJ_10serde_json5value5ValueB1l_ECselElugPp0Na_16jira_client_test
FN:1520,_RINvMs_NtNtCskhkPsqpzxNu_13rust_jira_mcp4jira6clientNtB5_10JiraClient20build_zephyr_requestNtNtCslJRJgdvPEaJ_10serde_json5value5ValueECselElugPp0Na_16jira_client_test
FN:1400,_RNCINvMs_NtNtCskhkPsqpzxNu_13rust_jira_mcp4jira6clientNtB7_10JiraClient10zephyr_putNtNtCslJRJgdvPEaJ_10serde_json5value5ValueB1j_E0CselElugPp0Na_16jira_client_test
FN:1386,_RNCINvMs_NtNtCskhkPsqpzxNu_13rust_jira_mcp4jira6clientNtB7_10JiraClient11zephyr_postNtNtCslJRJgdvPEaJ_10serde_json5value5ValueB1k_E0CselElugPp0Na_16jira_client_test
FN:1431,_RNCINvMs_NtNtCskhkPsqpzxNu_13rust_jira_mcp4jira6clientNtB7_10JiraClient14zephyr_requestNtNtCslJRJgdvPEaJ_10serde_json5value5ValueB1n_E0CselElugPp0Na_16jira_client_test
FN:1455,_RNCNCINvMs_NtNtCskhkPsqpzxNu_13rust_jira_mcp4jira6clientNtB9_10JiraClient14zephyr_requestNtNtCslJRJgdvPEaJ_10serde_json5value5ValueB1p_E00CselElugPp0Na_16jira_client_test
FN:1467,_RNCNCINvMs_NtNtCskhkPsqpzxNu_13rust_jira_mcp4jira6clientNtB9_10JiraClient14zephyr_requestNtNtCslJRJgdvPEaJ_10serde_json5value5ValueB1p_E0s_0CselElugPp0Na_16jira_client_test
FN:45,_RNvMNtNtCslEfzt21w4nZ_13rust_jira_mcp4jira6clientNtB2_11RateLimiter14wait_if_needed
FN:34,_RNvMNtNtCslEfzt21w4nZ_13rust_jira_mcp4jira6clientNtB2_11RateLimiter3new
FN:1205,_RNvMs_NtNtCslEfzt21w4nZ_13rust_jira_mcp4jira6clientNtB4_10JiraClient10get_labels
FN:369,_RNvMs_NtNtCslEfzt21w4nZ_13rust_jira_mcp4jira6clientNtB4_10JiraClient11add_comment
FN:95,_RNvMs_NtNtCslEfzt21w4nZ_13rust_jira_mcp4jira6clientNtB4_10JiraClient11auth_header
FN:1303,_RNvMs_NtNtCslEfzt21w4nZ_13rust_jira_mcp4jira6clientNtB4_10JiraClient11clone_issue
FN:101,_RNvMs_NtNtCslEfzt21w4nZ_13rust_jira_mcp4jira6clientNtB4_10JiraClient11http_client
FN:617,_RNvMs_NtNtCslEfzt21w4nZ_13rust_jira_mcp4jira6clientNtB4_10JiraClient11link_issues
FN:808,_RNvMs_NtNtCslEfzt21w4nZ_13rust_jira_mcp4jira6clientNtB4_10JiraClient12add_work_log
FN:89,_RNvMs_NtNtCslEfzt21w4nZ_13rust_jira_mcp4jira6clientNtB4_10JiraClient12api_base_url
FN:345,_RNvMs_NtNtCslEfzt21w4nZ_13rust_jira_mcp4jira6clientNtB4_10JiraClient12create_issue
FN:1228,_RNvMs_NtNtCslEfzt21w4nZ_13rust_jira_mcp4jira6clientNtB4_10JiraClient12create_label
FN:1251,_RNvMs_NtNtCslEfzt21w4nZ_13rust_jira_mcp4jira6clientNtB4_10JiraClient12delete_label
FN:382,_RNvMs_NtNtCslEfzt21w4nZ_13rust_jira_mcp4jira6clientNtB4_10JiraClient12get_comments
FN:537,_RNvMs_NtNtCslEfzt21w4nZ_13rust_jira_mcp4jira6clientNtB4_10JiraClient12get_statuses
FN:284,_RNvMs_NtNtCslEfzt21w4nZ_13rust_jira_mcp4jira6clientNtB4_10JiraClient12should_retry
FN:354,_RNvMs_NtNtCslEfzt21w4nZ_13rust_jira_mcp4jira6clientNtB4_10JiraClient12update_issue
FN:1237,_RNvMs_NtNtCslEfzt21w4nZ_13rust_jira_mcp4jira6clientNtB4_10JiraClient12update_label
FN:931,_RNvMs_NtNtCslEfzt21w4nZ_13rust_jira_mcp4jira6clientNtB4_10JiraClient13process_batch
FN:312,_RNvMs_NtNtCslEfzt21w4nZ_13rust_jira_mcp4jira6clientNtB4_10JiraClient13search_issues
FN:563,_RNvMs_NtNtCslEfzt21w4nZ_13rust_jira_mcp4jira6clientNtB4_10JiraClient14get_link_types
FN:528,_RNvMs_NtNtCslEfzt21w4nZ_13rust_jira_mcp4jira6clientNtB4_10JiraClient14get_priorities
FN:837,_RNvMs_NtNtCslEfzt21w4nZ_13rust_jira_mcp4jira6clientNtB4_10JiraClient15delete_work_log
FN:572,_RNvMs_NtNtCslEfzt21w4nZ_13rust_jira_mcp4jira6clientNtB4_10JiraClient15get_issue_links
FN:407,_RNvMs_NtNtCslEfzt21w4nZ_13rust_jira_mcp4jira6clientNtB4_10JiraClient15get_transitions
FN:822,_RNvMs_NtNtCslEfzt21w4nZ_13rust_jira_mcp4jira6clientNtB4_10JiraClient15update_work_log
FN:1510,_RNvMs_NtNtCslEfzt21w4nZ_13rust_jira_mcp4jira6clientNtB4_10JiraClient16build_zephyr_url
FN:1264,_RNvMs_NtNtCslEfzt21w4nZ_13rust_jira_mcp4jira6clientNtB4_10JiraClient16create_component
FN:1290,_RNvMs_NtNtCslEfzt21w4nZ_13rust_jira_mcp4jira6clientNtB4_10JiraClient16delete_component
FN:432,_RNvMs_NtNtCslEfzt21w4nZ_13rust_jira_mcp4jira6clientNtB4_10JiraClient16transition_issue
FN:1276,_RNvMs_NtNtCslEfzt21w4nZ_13rust_jira_mcp4jira6clientNtB4_10JiraClient16update_component
FN:1178,_RNvMs_NtNtCslEfzt21w4nZ_13rust_jira_mcp4jira6clientNtB4_10JiraClient17add_issue_watcher
FN:1138,_RNvMs_NtNtCslEfzt21w4nZ_13rust_jira_mcp4jira6clientNtB4_10JiraClient17bulk_add_comments
FN:595,_RNvMs_NtNtCslEfzt21w4nZ_13rust_jira_mcp4jira6clientNtB4_10JiraClient17create_issue_link
FN:735,_RNvMs_NtNtCslEfzt21w4nZ_13rust_jira_mcp4jira6clientNtB4_10JiraClient17delete_attachment
FN:606,_RNvMs_NtNtCslEfzt21w4nZ_13rust_jira_mcp4jira6clientNtB4_10JiraClient17delete_issue_link
FN:546,_RNvMs_NtNtCslEfzt21w4nZ_13rust_jira_mcp4jira6clientNtB4_10JiraClient17get_custom_fields
FN:996,_RNvMs_NtNtCslEfzt21w4nZ_13rust_jira_mcp4jira6clientNtB4_10JiraClient17perform_operation
FN:674,_RNvMs_NtNtCslEfzt21w4nZ_13rust_jira_mcp4jira6clientNtB4_10JiraClient17upload_attachment
FN:1081,_RNvMs_NtNtCslEfzt21w4nZ_13rust_jira_mcp4jira6clientNtB4_10JiraClient18bulk_update_issues
FN:1168,_RNvMs_NtNtCslEfzt21w4nZ_13rust_jira_mcp4jira6clientNtB4_10JiraClient18get_issue_watchers
FN:746,_RNvMs_NtNtCslEfzt21w4nZ_13rust_jira_mcp4jira6clientNtB4_10JiraClient19download_attachment
FN:784,_RNvMs_NtNtCslEfzt21w4nZ_13rust_jira_mcp4jira6clientNtB4_10JiraClient19get_issue_work_logs
FN:1359,_RNvMs_NtNtCslEfzt21w4nZ_13rust_jira_mcp4jira6clientNtB4_10JiraClient19zephyr_api_base_url
FN:853,_RNvMs_NtNtCslEfzt21w4nZ_13rust_jira_mcp4jira6clientNtB4_10JiraClient20get_project_metadata
FN:1192,_RNvMs_NtNtCslEfzt21w4nZ_13rust_jira_mcp4jira6clientNtB4_10JiraClient20remove_issue_watcher
FN:650,_RNvMs_NtNtCslEfzt21w4nZ_13rust_jira_mcp4jira6clientNtB4_10JiraClient21get_issue_attachments
FN:1769,_RNvMs_NtNtCslEfzt21w4nZ_13rust_jira_mcp4jira6clientNtB4_10JiraClient21get_zephyr_test_plans
FN:1552,_RNvMs_NtNtCslEfzt21w4nZ_13rust_jira_mcp4jira6clientNtB4_10JiraClient21get_zephyr_test_steps
FN:1105,_RNvMs_NtNtCslEfzt21w4nZ_13rust_jira_mcp4jira6clientNtB4_10JiraClient22bulk_transition_issues
FN:515,_RNvMs_NtNtCslEfzt21w4nZ_13rust_jira_mcp4jira6clientNtB4_10JiraClient22get_project_components
FN:1728,_RNvMs_NtNtCslEfzt21w4nZ_13rust_jira_mcp4jira6clientNtB4_10JiraClient22get_zephyr_test_cycles
FN:1064,_RNvMs_NtNtCslEfzt21w4nZ_13rust_jira_mcp4jira6clientNtB4_10JiraClient22should_retry_operation
FN:1654,_RNvMs_NtNtCslEfzt21w4nZ_13rust_jira_mcp4jira6clientNtB4_10JiraClient23create_zephyr_test_case
FN:1577,_RNvMs_NtNtCslEfzt21w4nZ_13rust_jira_mcp4jira6clientNtB4_10JiraClient23create_zephyr_test_step
FN:1605,_RNvMs_NtNtCslEfzt21w4nZ_13rust_jira_mcp4jira6clientNtB4_10JiraClient23delete_zephyr_test_step
FN:881,_RNvMs_NtNtCslEfzt21w4nZ_13rust_jira_mcp4jira6clientNtB4_10JiraClient23execute_bulk_operations
FN:502,_RNvMs_NtNtCslEfzt21w4nZ_13rust_jira_mcp4jira6clientNtB4_10JiraClient23get_issue_type_metadata
FN:472,_RNvMs_NtNtCslEfzt21w4nZ_13rust_jira_mcp4jira6clientNtB4_10JiraClient23get_project_issue_types
FN:1590,_RNvMs_NtNtCslEfzt21w4nZ_13rust_jira_mcp4jira6clientNtB4_10JiraClient23update_zephyr_test_step
FN:952,_RNvMs_NtNtCslEfzt21w4nZ_13rust_jira_mcp4jira6clientNtB4_10JiraClient24execute_single_operation
FN:1623,_RNvMs_NtNtCslEfzt21w4nZ_13rust_jira_mcp4jira6clientNtB4_10JiraClient24search_zephyr_test_cases
FN:462,_RNvMs_NtNtCslEfzt21w4nZ_13rust_jira_mcp4jira6clientNtB4_10JiraClient25get_project_configuration
FN:1677,_RNvMs_NtNtCslEfzt21w4nZ_13rust_jira_mcp4jira6clientNtB4_10JiraClient26get_zephyr_test_executions
FN:1705,_RNvMs_NtNtCslEfzt21w4nZ_13rust_jira_mcp4jira6clientNtB4_10JiraClient28create_zephyr_test_execution
FN:71,_RNvMs_NtNtCslEfzt21w4nZ_13rust_jira_mcp4jira6clientNtB4_10JiraClient3new
FN:247,_RNvMs_NtNtCslEfzt21w4nZ_13rust_jira_mcp4jira6clientNtB4_10JiraClient9build_url
FN:302,_RNvMs_NtNtCslEfzt21w4nZ_13rust_jira_mcp4jira6clientNtB4_10JiraClient9get_issue
FN:1369,_RINvMs_NtNtCslEfzt21w4nZ_13rust_jira_mcp4jira6clientNtB5_10JiraClient10zephyr_getNtNtCslJRJgdvPEaJ_10serde_json5value5ValueEB9_
FN:1369,_RINvMs_NtNtCslEfzt21w4nZ_13rust_jira_mcp4jira6clientNtB5_10JiraClient10zephyr_getNtNtNtB9_5types4jira26ZephyrTestCaseSearchResultEB9_
FN:1396,_RINvMs_NtNtCslEfzt21w4nZ_13rust_jira_mcp4jira6clientNtB5_10JiraClient10zephyr_putNtNtNtB9_5types4jira14ZephyrTestStepNtB1j_27ZephyrTestStepUpdateRequestEB9_
FN:1382,_RINvMs_NtNtCslEfzt21w4nZ_13rust_jira_mcp4jira6clientNtB5_10JiraClient11zephyr_postNtNtNtB9_5types4jira14ZephyrTestCaseNtB1k_27ZephyrTestCaseCreateRequestEB9_
FN:1382,_RINvMs_NtNtCslEfzt21w4nZ_13rust_jira_mcp4jira6clientNtB5_10JiraClient11zephyr_postNtNtNtB9_5types4jira14ZephyrTestStepNtB1k_27ZephyrTestStepCreateRequestEB9_
FN:1382,_RINvMs_NtNtCslEfzt21w4nZ_13rust_jira_mcp4jira6clientNtB5_10JiraClient11zephyr_postNtNtNtB9_5types4jira19ZephyrTestExecutionNtB1k_32ZephyrTestExecutionCreateRequestEB9_
FN:257,_RINvMs_NtNtCslEfzt21w4nZ_13rust_jira_mcp4jira6clientNtB5_10JiraClient13build_requestNtNtCslJRJgdvPEaJ_10serde_json5value5ValueEB9_
FN:257,_RINvMs_NtNtCslEfzt21w4nZ_13rust_jira_mcp4jira6clientNtB5_10JiraClient13build_requestNtNtNtB9_5types4jira22JiraLabelCreateRequestEB9_
FN:257,_RINvMs_NtNtCslEfzt21w4nZ_13rust_jira_mcp4jira6clientNtB5_10JiraClient13build_requestNtNtNtB9_5types4jira22JiraLabelUpdateRequestEB9_
FN:257,_RINvMs_NtNtCslEfzt21w4nZ_13rust_jira_mcp4jira6clientNtB5_10JiraClient13build_requestNtNtNtB9_5types4jira24JiraWorkLogCreateRequestEB9_
FN:257,_RINvMs_NtNtCslEfzt21w4nZ_13rust_jira_mcp4jira6clientNtB5_10JiraClient13build_requestNtNtNtB9_5types4jira24JiraWorkLogUpdateRequestEB9_
FN:257,_RINvMs_NtNtCslEfzt21w4nZ_13rust_jira_mcp4jira6clientNtB5_10JiraClient13build_requestNtNtNtB9_5types4jira26JiraComponentCreateRequestEB9_
FN:257,_RINvMs_NtNtCslEfzt21w4nZ_13rust_jira_mcp4jira6clientNtB5_10JiraClient13build_requestNtNtNtB9_5types4jira26JiraComponentUpdateRequestEB9_
FN:257,_RINvMs_NtNtCslEfzt21w4nZ_13rust_jira_mcp4jira6clientNtB5_10JiraClient13build_requestNtNtNtB9_5types4jira26JiraIssueLinkCreateRequestEB9_
FN:257,_RINvMs_NtNtCslEfzt21w4nZ_13rust_jira_mcp4jira6clientNtB5_10JiraClient13build_requestuEB9_
FN:1409,_RINvMs_NtNtCslEfzt21w4nZ_13rust_jira_mcp4jira6clientNtB5_10JiraClient13zephyr_deleteNtNtCslJRJgdvPEaJ_10serde_json5value5ValueEB9_
FN:1422,_RINvMs_NtNtCslEfzt21w4nZ_13rust_jira_mcp4jira6clientNtB5_10JiraClient14zephyr_requestNtNtCslJRJgdvPEaJ_10serde_json5value5ValueuEB9_
FN:1422,_RINvMs_NtNtCslEfzt21w4nZ_13rust_jira_mcp4jira6clientNtB5_10JiraClient14zephyr_requestNtNtNtB9_5types4jira14ZephyrTestCaseNtB1n_27ZephyrTestCaseCreateRequestEB9_
FN:1422,_RINvMs_NtNtCslEfzt21w4nZ_13rust_jira_mcp4jira6clientNtB5_10JiraClient14zephyr_requestNtNtNtB9_5types4jira14ZephyrTestStepNtB1n_27ZephyrTestStepCreateRequestEB9_
FN:1422,_RINvMs_NtNtCslEfzt21w4nZ_13rust_jira_mcp4jira6clientNtB5_10JiraClient14zephyr_requestNtNtNtB9_5types4jira14ZephyrTestStepNtB1n_27ZephyrTestStepUpdateRequestEB9_
FN:1422,_RINvMs_NtNtCslEfzt21w4nZ_13rust_jira_mcp4jira6clientNtB5_10JiraClient14zephyr_requestNtNtNtB9_5types4jira19ZephyrTestExecutionNtB1n_32ZephyrTestExecutionCreateRequestEB9_
FN:1422,_RINvMs_NtNtCslEfzt21w4nZ_13rust_jira_mcp4jira6clientNtB5_10JiraClient14zephyr_requestNtNtNtB9_5types4jira26ZephyrTestCaseSearchResultuEB9_
FN:1520,_RINvMs_NtNtCslEfzt21w4nZ_13rust_jira_mcp4jira6clientNtB5_10JiraClient20build_zephyr_requestNtNtNtB9_5types4jira27ZephyrTestCaseCreateRequestEB9_
FN:1520,_RINvMs_NtNtCslEfzt21w4nZ_13rust_jira_mcp4jira6clientNtB5_10JiraClient20build_zephyr_requestNtNtNtB9_5types4jira27ZephyrTestStepCreateRequestEB9_
FN:1520,_RINvMs_NtNtCslEfzt21w4nZ_13rust_jira_mcp4jira6clientNtB5_10JiraClient20build_zephyr_requestNtNtNtB9_5types4jira27ZephyrTestStepUpdateRequestEB9_
FN:1520,_RINvMs_NtNtCslEfzt21w4nZ_13rust_jira_mcp4jira6clientNtB5_10JiraClient20build_zephyr_requestNtNtNtB9_5types4jira32ZephyrTestExecutionCreateRequestEB9_
FN:1520,_RINvMs_NtNtCslEfzt21w4nZ_13rust_jira_mcp4jira6clientNtB5_10JiraClient20build_zephyr_requestuEB9_
FN:110,_RINvMs_NtNtCslEfzt21w4nZ_13rust_jira_mcp4jira6clientNtB5_10JiraClient3getINtNtCsiAD6NEzHbBo_5alloc3vec3VecNtNtNtB9_5types4jira10JiraStatusEEB9_
FN:110,_RINvMs_NtNtCslEfzt21w4nZ_13rust_jira_mcp4jira6clientNtB5_10JiraClient3getINtNtCsiAD6NEzHbBo_5alloc3vec3VecNtNtNtB9_5types4jira12JiraLinkTypeEEB9_
FN:110,_RINvMs_NtNtCslEfzt21w4nZ_13rust_jira_mcp4jira6clientNtB5_10JiraClient3getINtNtCsiAD6NEzHbBo_5alloc3vec3VecNtNtNtB9_5types4jira12JiraPriorityEEB9_
FN:110,_RINvMs_NtNtCslEfzt21w4nZ_13rust_jira_mcp4jira6clientNtB5_10JiraClient3getINtNtCsiAD6NEzHbBo_5alloc3vec3VecNtNtNtB9_5types4jira13JiraComponentEEB9_
FN:110,_RINvMs_NtNtCslEfzt21w4nZ_13rust_jira_mcp4jira6clientNtB5_10JiraClient3getNtNtCslJRJgdvPEaJ_10serde_json5value5ValueEB9_
FN:110,_RINvMs_NtNtCslEfzt21w4nZ_13rust_jira_mcp4jira6clientNtB5_10JiraClient3getNtNtNtB9_5types4jira13JiraIssueTypeEB9_
FN:110,_RINvMs_NtNtCslEfzt21w4nZ_13rust_jira_mcp4jira6clientNtB5_10JiraClient3getNtNtNtB9_5types4jira16JiraSearchResultEB9_
FN:110,_RINvMs_NtNtCslEfzt21w4nZ_13rust_jira_mcp4jira6clientNtB5_10JiraClient3getNtNtNtB9_5types4jira20JiraWatchersResponseEB9_
FN:110,_RINvMs_NtNtCslEfzt21w4nZ_13rust_jira_mcp4jira6clientNtB5_10JiraClient3getNtNtNtB9_5types4jira9JiraIssueEB9_
FN:135,_RINvMs_NtNtCslEfzt21w4nZ_13rust_jira_mcp4jira6clientNtB5_10JiraClient3putNtNtCslJRJgdvPEaJ_10serde_json5value5ValueB19_EB9_
FN:135,_RINvMs_NtNtCslEfzt21w4nZ_13rust_jira_mcp4jira6clientNtB5_10JiraClient3putNtNtNtB9_5types4jira11JiraWorkLogNtB1b_24JiraWorkLogUpdateRequestEB9_
FN:135,_RINvMs_NtNtCslEfzt21w4nZ_13rust_jira_mcp4jira6clientNtB5_10JiraClient3putNtNtNtB9_5types4jira13JiraComponentNtB1b_26JiraComponentUpdateRequestEB9_
FN:135,_RINvMs_NtNtCslEfzt21w4nZ_13rust_jira_mcp4jira6clientNtB5_10JiraClient3putNtNtNtB9_5types4jira9JiraLabelNtB1b_22JiraLabelUpdateRequestEB9_
FN:122,_RINvMs_NtNtCslEfzt21w4nZ_13rust_jira_mcp4jira6clientNtB5_10JiraClient4postNtNtCslJRJgdvPEaJ_10serde_json5value5ValueB1a_EB9_
FN:122,_RINvMs_NtNtCslEfzt21w4nZ_13rust_jira_mcp4jira6clientNtB5_10JiraClient4postNtNtCslJRJgdvPEaJ_10serde_json5value5ValueNtNtNtB9_5types4jira26JiraIssueLinkCreateRequestEB9_
FN:122,_RINvMs_NtNtCslEfzt21w4nZ_13rust_jira_mcp4jira6clientNtB5_10JiraClient4postNtNtNtB9_5types4jira11JiraCommentNtNtCslJRJgdvPEaJ_10serde_json5value5ValueEB9_
FN:122,_RINvMs_NtNtCslEfzt21w4nZ_13rust_jira_mcp4jira6clientNtB5_10JiraClient4postNtNtNtB9_5types4jira11JiraWorkLogNtB1c_24JiraWorkLogCreateRequestEB9_
FN:122,_RINvMs_NtNtCslEfzt21w4nZ_13rust_jira_mcp4jira6clientNtB5_10JiraClient4postNtNtNtB9_5types4jira13JiraComponentNtB1c_26JiraComponentCreateRequestEB9_
FN:122,_RINvMs_NtNtCslEfzt21w4nZ_13rust_jira_mcp4jira6clientNtB5_10JiraClient4postNtNtNtB9_5types4jira9JiraIssueNtNtCslJRJgdvPEaJ_10serde_json5value5ValueEB9_
FN:122,_RINvMs_NtNtCslEfzt21w4nZ_13rust_jira_mcp4jira6clientNtB5_10JiraClient4postNtNtNtB9_5types4jira9JiraLabelNtB1c_22JiraLabelCreateRequestEB9_
FN:148,_RINvMs_NtNtCslEfzt21w4nZ_13rust_jira_mcp4jira6clientNtB5_10JiraClient6deleteNtNtCslJRJgdvPEaJ_10serde_json5value5ValueEB9_
FN:160,_RINvMs_NtNtCslEfzt21w4nZ_13rust_jira_mcp4jira6clientNtB5_10JiraClient7requestINtNtCsiAD6NEzHbBo_5alloc3vec3VecNtNtNtB9_5types4jira10JiraStatusEuEB9_
FN:160,_RINvMs_NtNtCslEfzt21w4nZ_13rust_jira_mcp4jira6clientNtB5_10JiraClient7requestINtNtCsiAD6NEzHbBo_5alloc3vec3VecNtNtNtB9_5types4jira12JiraLinkTypeEuEB9_
FN:160,_RINvMs_NtNtCslEfzt21w4nZ_13rust_jira_mcp4jira6clientNtB5_10JiraClient7requestINtNtCsiAD6NEzHbBo_5alloc3vec3VecNtNtNtB9_5types4jira12JiraPriorityEuEB9_
FN:160,_RINvMs_NtNtCslEfzt21w4nZ_13rust_jira_mcp4jira6clientNtB5_10JiraClient7requestINtNtCsiAD6NEzHbBo_5alloc3vec3VecNtNtNtB9_5types4jira13JiraComponentEuEB9_
FN:160,_RINvMs_NtNtCslEfzt21w4nZ_13rust_jira_mcp4jira6clientNtB5_10JiraClient7requestNtNtCslJRJgdvPEaJ_10serde_json5value5ValueB1d_EB9_
FN:160,_RINvMs_NtNtCslEfzt21w4nZ_13rust_jira_mcp4jira6clientNtB5_10JiraClient7requestNtNtCslJRJgdvPEaJ_10serde_json5value5ValueNtNtNtB9_5types4jira26JiraIssueLinkCreateRequestEB9_
FN:160,_RINvMs_NtNtCslEfzt21w4nZ_13rust_jira_mcp4jira6clientNtB5_10JiraClient7requestNtNtCslJRJgdvPEaJ_10serde_json5value5ValueuEB9_
FN:160,_RINvMs_NtNtCslEfzt21w4nZ_13rust_jira_mcp4jira6clientNtB5_10JiraClient7requestNtNtNtB9_5types4jira11JiraCommentNtNtCslJRJgdvPEaJ_10serde_json5value5ValueEB9_
FN:160,_RINvMs_NtNtCslEfzt21w4nZ_13rust_jira_mcp4jira6clientNtB5_10JiraClient7requestNtNtNtB9_5types4jira11JiraWorkLogNtB1f_24JiraWorkLogCreateRequestEB9_
FN:160,_RINvMs_NtNtCslEfzt21w4nZ_13rust_jira_mcp4jira6clientNtB5_10JiraClient7requestNtNtNtB9_5types4jira11JiraWorkLogNtB1f_24JiraWorkLogUpdateRequestEB9_
FN:160,_RINvMs_NtNtCslEfzt21w4nZ_13rust_jira_mcp4jira6clientNtB5_10JiraClient7requestNtNtNtB9_5types4jira13JiraComponentNtB1f_26JiraComponentCreateRequestEB9_
FN:160,_RINvMs_NtNtCslEfzt21w4nZ_13rust_jira_mcp4jira6clientNtB5_10JiraClient7requestNtNtNtB9_5types4jira13JiraComponentNtB1f_26JiraComponentUpdateRequestEB9_
FN:160,_RINvMs_NtNtCslEfzt21w4nZ_13rust_jira_mcp4jira6clientNtB5_10JiraClient7requestNtNtNtB9_5types4jira13JiraIssueTypeuEB9_
FN:160,_RINvMs_NtNtCslEfzt21w4nZ_13rust_jira_mcp4jira6clientNtB5_10JiraClient7requestNtNtNtB9_5types4jira16JiraSearchResultuEB9_
FN:160,_RINvMs_NtNtCslEfzt21w4nZ_13rust_jira_mcp4jira6clientNtB5_10JiraClient7requestNtNtNtB9_5types4jira20JiraWatchersResponseuEB9_
FN:160,_RINvMs_NtNtCslEfzt21w4nZ_13rust_jira_mcp4jira6clientNtB5_10JiraClient7requestNtNtNtB9_5types4jira9JiraIssueNtNtCslJRJgdvPEaJ_10serde_json5value5ValueEB9_
FN:160,_RINvMs_NtNtCslEfzt21w4nZ_13rust_jira_mcp4jira6clientNtB5_10JiraClient7requestNtNtNtB9_5types4jira9JiraIssueuEB9_
FN:160,_RINvMs_NtNtCslEfzt21w4nZ_13rust_jira_mcp4jira6clientNtB5_10JiraClient7requestNtNtNtB9_5types4jira9JiraLabelNtB1f_22JiraLabelCreateRequestEB9_
FN:160,_RINvMs_NtNtCslEfzt21w4nZ_13rust_jira_mcp4jira6clientNtB5_10JiraClient7requestNtNtNtB9_5types4jira9JiraLabelNtB1f_22JiraLabelUpdateRequestEB9_
FN:1372,_RNCINvMs_NtNtCslEfzt21w4nZ_13rust_jira_mcp4jira6clientNtB7_10JiraClient10zephyr_getNtNtCslJRJgdvPEaJ_10serde_json5value5ValueE0Bb_
FN:1372,_RNCINvMs_NtNtCslEfzt21w4nZ_13rust_jira_mcp4jira6clientNtB7_10JiraClient10zephyr_getNtNtNtBb_5types4jira26ZephyrTestCaseSearchResultE0Bb_
FN:1400,_RNCINvMs_NtNtCslEfzt21w4nZ_13rust_jira_mcp4jira6clientNtB7_10JiraClient10zephyr_putNtNtNtBb_5types4jira14ZephyrTestStepNtB1l_27ZephyrTestStepUpdateRequestE0Bb_
FN:1386,_RNCINvMs_NtNtCslEfzt21w4nZ_13rust_jira_mcp4jira6clientNtB7_10JiraClient11zephyr_postNtNtNtBb_5types4jira14ZephyrTestCaseNtB1m_27ZephyrTestCaseCreateRequestE0Bb_
FN:1386,_RNCINvMs_NtNtCslEfzt21w4nZ_13rust_jira_mcp4jira6clientNtB7_10JiraClient11zephyr_postNtNtNtBb_5types4jira14ZephyrTestStepNtB1m_27ZephyrTestStepCreateRequestE0Bb_
FN:1386,_RNCINvMs_NtNtCslEfzt21w4nZ_13rust_jira_mcp4jira6clientNtB7_10JiraClient11zephyr_postNtNtNtBb_5types4jira19ZephyrTestExecutionNtB1m_32ZephyrTestExecutionCreateRequestE0Bb_
FN:1412,_RNCINvMs_NtNtCslEfzt21w4nZ_13rust_jira_mcp4jira6clientNtB7_10JiraClient13zephyr_deleteNtNtCslJRJgdvPEaJ_10serde_json5value5ValueE0Bb_
FN:1431,_RNCINvMs_NtNtCslEfzt21w4nZ_13rust_jira_mcp4jira6clientNtB7_10JiraClient14zephyr_requestNtNtCslJRJgdvPEaJ_10serde_json5value5ValueuE0Bb_
FN:1431,_RNCINvMs_NtNtCslEfzt21w4nZ_13rust_jira_mcp4jira6clientNtB7_10JiraClient14zephyr_requestNtNtNtBb_5types4jira14ZephyrTestCaseNtB1p_27ZephyrTestCaseCreateRequestE0Bb_
FN:1431,_RNCINvMs_NtNtCslEfzt21w4nZ_13rust_jira_mcp4jira6clientNtB7_10JiraClient14zephyr_requestNtNtNtBb_5types4jira14ZephyrTestStepNtB1p_27ZephyrTestStepCreateRequestE0Bb_
FN:1431,_RNCINvMs_NtNtCslEfzt21w4nZ_13rust_jira_mcp4jira6clientNtB7_10JiraClient14zephyr_requestNtNtNtBb_5types4jira14ZephyrTestStepNtB1p_27ZephyrTestStepUpdateRequestE0Bb_
FN:1431,_RNCINvMs_NtNtCslEfzt21w4nZ_13rust_jira_mcp4jira6clientNtB7_10JiraClient14zephyr_requestNtNtNtBb_5types4jira19ZephyrTestExecutionNtB1p_32ZephyrTestExecutionCreateRequestE0Bb_
FN:1431,_RNCINvMs_NtNtCslEfzt21w4nZ_13rust_jira_mcp4jira6clientNtB7_10JiraClient14zephyr_requestNtNtNtBb_5types4jira26ZephyrTestCaseSearchResultuE0Bb_
FN:113,_RNCINvMs_NtNtCslEfzt21w4nZ_13rust_jira_mcp4jira6clientNtB7_10JiraClient3getINtNtCsiAD6NEzHbBo_5alloc3vec3VecNtNtNtBb_5types4jira10JiraStatusEE0Bb_
FN:113,_RNCINvMs_NtNtCslEfzt21w4nZ_13rust_jira_mcp4jira6clientNtB7_10JiraClient3getINtNtCsiAD6NEzHbBo_5alloc3vec3VecNtNtNtBb_5types4jira12JiraLinkTypeEE0Bb_
FN:113,_RNCINvMs_NtNtCslEfzt21w4nZ_13rust_jira_mcp4jira6clientNtB7_10JiraClient3getINtNtCsiAD6NEzHbBo_5alloc3vec3VecNtNtNtBb_5types4jira12JiraPriorityEE0Bb_
FN:113,_RNCINvMs_NtNtCslEfzt21w4nZ_13rust_jira_mcp4jira6clientNtB7_10JiraClient3getINtNtCsiAD6NEzHbBo_5alloc3vec3VecNtNtNtBb_5types4jira13JiraComponentEE0Bb_
FN:113,_RNCINvMs_NtNtCslEfzt21w4nZ_13rust_jira_mcp4jira6clientNtB7_10JiraClient3getNtNtCslJRJgdvPEaJ_10serde_json5value5ValueE0Bb_
FN:113,_RNCINvMs_NtNtCslEfzt21w4nZ_13rust_jira_mcp4jira6clientNtB7_10JiraClient3getNtNtNtBb_5types4jira13JiraIssueTypeE0Bb_
FN:113,_RNCINvMs_NtNtCslEfzt21w4nZ_13rust_jira_mcp4jira6clientNtB7_10JiraClient3getNtNtNtBb_5types4jira16JiraSearchResultE0Bb_
FN:113,_RNCINvMs_NtNtCslEfzt21w4nZ_13rust_jira_mcp4jira6clientNtB7_10JiraClient3getNtNtNtBb_5types4jira20JiraWatchersResponseE0Bb_
FN:113,_RNCINvMs_NtNtCslEfzt21w4nZ_13rust_jira_mcp4jira6clientNtB7_10JiraClient3getNtNtNtBb_5types4jira9JiraIssueE0Bb_
FN:139,_RNCINvMs_NtNtCslEfzt21w4nZ_13rust_jira_mcp4jira6clientNtB7_10JiraClient3putNtNtCslJRJgdvPEaJ_10serde_json5value5ValueB1b_E0Bb_
FN:139,_RNCINvMs_NtNtCslEfzt21w4nZ_13rust_jira_mcp4jira6clientNtB7_10JiraClient3putNtNtNtBb_5types4jira11JiraWorkLogNtB1d_24JiraWorkLogUpdateRequestE0Bb_
FN:139,_RNCINvMs_NtNtCslEfzt21w4nZ_13rust_jira_mcp4jira6clientNtB7_10JiraClient3putNtNtNtBb_5types4jira13JiraComponentNtB1d_26JiraComponentUpdateRequestE0Bb_
FN:139,_RNCINvMs_NtNtCslEfzt21w4nZ_13rust_jira_mcp4jira6clientNtB7_10JiraClient3putNtNtNtBb_5types4jira9JiraLabelNtB1d_22JiraLabelUpdateRequestE0Bb_
FN:126,_RNCINvMs_NtNtCslEfzt21w4nZ_13rust_jira_mcp4jira6clientNtB7_10JiraClient4postNtNtCslJRJgdvPEaJ_10serde_json5value5ValueB1c_E0Bb_
FN:126,_RNCINvMs_NtNtCslEfzt21w4nZ_13rust_jira_mcp4jira6clientNtB7_10JiraClient4postNtNtCslJRJgdvPEaJ_10serde_json5value5ValueNtNtNtBb_5types4jira26JiraIssueLinkCreateRequestE0Bb_
FN:126,_RNCINvMs_NtNtCslEfzt21w4nZ_13rust_jira_mcp4jira6clientNtB7_10JiraClient4postNtNtNtBb_5types4jira11JiraCommentNtNtCslJRJgdvPEaJ_10serde_json5value5ValueE0Bb_
FN:126,_RNCINvMs_NtNtCslEfzt21w4nZ_13rust_jira_mcp4jira6clientNtB7_10JiraClient4postNtNtNtBb_5types4jira11JiraWorkLogNtB1e_24JiraWorkLogCreateRequestE0Bb_
FN:126,_RNCINvMs_NtNtCslEfzt21w4nZ_13rust_jira_mcp4jira6clientNtB7_10JiraClient4postNtNtNtBb_5types4jira13JiraComponentNtB1e_26JiraComponentCreateRequestE0Bb_
FN:126,_RNCINvMs_NtNtCslEfzt21w4nZ_13rust_jira_mcp4jira6clientNtB7_10JiraClient4postNtNtNtBb_5types4jira9JiraIssueNtNtCslJRJgdvPEaJ_10serde_json5value5ValueE0Bb_
FN:126,_RNCINvMs_NtNtCslEfzt21w4nZ_13rust_jira_mcp4jira6clientNtB7_10JiraClient4postNtNtNtBb_5types4jira9JiraLabelNtB1e_22JiraLabelCreateRequestE0Bb_
FN:151,_RNCINvMs_NtNtCslEfzt21w4nZ_13rust_jira_mcp4jira6clientNtB7_10JiraClient6deleteNtNtCslJRJgdvPEaJ_10serde_json5value5ValueE0Bb_
FN:164,_RNCINvMs_NtNtCslEfzt21w4nZ_13rust_jira_mcp4jira6clientNtB7_10JiraClient7requestINtNtCsiAD6NEzHbBo_5alloc3vec3VecNtNtNtBb_5types4jira10JiraStatusEuE0Bb_
FN:164,_RNCINvMs_NtNtCslEfzt21w4nZ_13rust_jira_mcp4jira6clientNtB7_10JiraClient7requestINtNtCsiAD6NEzHbBo_5alloc3vec3VecNtNtNtBb_5types4jira12JiraLinkTypeEuE0Bb_
FN:164,_RNCINvMs_NtNtCslEfzt21w4nZ_13rust_jira_mcp4jira6clientNtB7_10JiraClient7requestINtNtCsiAD6NEzHbBo_5alloc3vec3VecNtNtNtBb_5types4jira12JiraPriorityEuE0Bb_
FN:164,_RNCINvMs_NtNtCslEfzt21w4nZ_13rust_jira_mcp4jira6clientNtB7_10JiraClient7requestINtNtCsiAD6NEzHbBo_5alloc3vec3VecNtNtNtBb_5types4jira13JiraComponentEuE0Bb_
FN:164,_RNCINvMs_NtNtCslEfzt21w4nZ_13rust_jira_mcp4jira6clientNtB7_10JiraClient7requestNtNtCslJRJgdvPEaJ_10serde_json5value5ValueB1f_E0Bb_
FN:164,_RNCINvMs_NtNtCslEfzt21w4nZ_13rust_jira_mcp4jira6clientNtB7_10JiraClient7requestNtNtCslJRJgdvPEaJ_10serde_json5value5ValueNtNtNtBb_5types4jira26JiraIssueLinkCreateRequestE0Bb_
FN:164,_RNCINvMs_NtNtCslEfzt21w4nZ_13rust_jira_mcp4jira6clientNtB7_10JiraClient7requestNtNtCslJRJgdvPEaJ_10serde_json5value5ValueuE0Bb_
FN:164,_RNCINvMs_NtNtCslEfzt21w4nZ_13rust_jira_mcp4jira6clientNtB7_10JiraClient7requestNtNtNtBb_5types4jira11JiraCommentNtNtCslJRJgdvPEaJ_10serde_json5value5ValueE0Bb_
FN:164,_RNCINvMs_NtNtCslEfzt21w4nZ_13rust_jira_mcp4jira6clientNtB7_10JiraClient7requestNtNtNtBb_5types4jira11JiraWorkLogNtB1h_24JiraWorkLogCreateRequestE0Bb_
FN:164,_RNCINvMs_NtNtCslEfzt21w4nZ_13rust_jira_mcp4jira6clientNtB7_10JiraClient7requestNtNtNtBb_5types4jira11JiraWorkLogNtB1h_24JiraWorkLogUpdateRequestE0Bb_
FN:164,_RNCINvMs_NtNtCslEfzt21w4nZ_13rust_jira_mcp4jira6clientNtB7_10JiraClient7requestNtNtNtBb_5types4jira13JiraComponentNtB1h_26JiraComponentCreateRequestE0Bb_
FN:164,_RNCINvMs_NtNtCslEfzt21w4nZ_13rust_jira_mcp4jira6clientNtB7_10JiraClient7requestNtNtNtBb_5types4jira13JiraComponentNtB1h_26JiraComponentUpdateRequestE0Bb_
FN:164,_RNCINvMs_NtNtCslEfzt21w4nZ_13rust_jira_mcp4jira6clientNtB7_10JiraClient7requestNtNtNtBb_5types4jira13JiraIssueTypeuE0Bb_
FN:164,_RNCINvMs_NtNtCslEfzt21w4nZ_13rust_jira_mcp4jira6clientNtB7_10JiraClient7requestNtNtNtBb_5types4jira16JiraSearchResultuE0Bb_
FN:164,_RNCINvMs_NtNtCslEfzt21w4nZ_13rust_jira_mcp4jira6clientNtB7_10JiraClient7requestNtNtNtBb_5types4jira20JiraWatchersResponseuE0Bb_
FN:164,_RNCINvMs_NtNtCslEfzt21w4nZ_13rust_jira_mcp4jira6clientNtB7_10JiraClient7requestNtNtNtBb_5types4jira9JiraIssueNtNtCslJRJgdvPEaJ_10serde_json5value5ValueE0Bb_
FN:164,_RNCINvMs_NtNtCslEfzt21w4nZ_13rust_jira_mcp4jira6clientNtB7_10JiraClient7requestNtNtNtBb_5types4jira9JiraIssueuE0Bb_
FN:164,_RNCINvMs_NtNtCslEfzt21w4nZ_13rust_jira_mcp4jira6clientNtB7_10JiraClient7requestNtNtNtBb_5types4jira9JiraLabelNtB1h_22JiraLabelCreateRequestE0Bb_
FN:164,_RNCINvMs_NtNtCslEfzt21w4nZ_13rust_jira_mcp4jira6clientNtB7_10JiraClient7requestNtNtNtBb_5types4jira9JiraLabelNtB1h_22JiraLabelUpdateRequestE0Bb_
FN:1455,_RNCNCINvMs_NtNtCslEfzt21w4nZ_13rust_jira_mcp4jira6clientNtB9_10JiraClient14zephyr_requestNtNtCslJRJgdvPEaJ_10serde_json5value5ValueuE00Bd_
FN:1467,_RNCNCINvMs_NtNtCslEfzt21w4nZ_13rust_jira_mcp4jira6clientNtB9_10JiraClient14zephyr_requestNtNtCslJRJgdvPEaJ_10serde_json5value5ValueuE0s_0Bd_
FN:1455,_RNCNCINvMs_NtNtCslEfzt21w4nZ_13rust_jira_mcp4jira6clientNtB9_10JiraClient14zephyr_requestNtNtNtBd_5types4jira14ZephyrTestCaseNtB1r_27ZephyrTestCaseCreateRequestE00Bd_
FN:1467,_RNCNCINvMs_NtNtCslEfzt21w4nZ_13rust_jira_mcp4jira6clientNtB9_10JiraClient14zephyr_requestNtNtNtBd_5types4jira14ZephyrTestCaseNtB1r_27ZephyrTestCaseCreateRequestE0s_0Bd_
FN:1455,_RNCNCINvMs_NtNtCslEfzt21w4nZ_13rust_jira_mcp4jira6clientNtB9_10JiraClient14zephyr_requestNtNtNtBd_5types4jira14ZephyrTestStepNtB1r_27ZephyrTestStepCreateRequestE00Bd_
FN:1467,_RNCNCINvMs_NtNtCslEfzt21w4nZ_13rust_jira_mcp4jira6clientNtB9_10JiraClient14zephyr_requestNtNtNtBd_5types4jira14ZephyrTestStepNtB1r_27ZephyrTestStepCreateRequestE0s_0Bd_
FN:1455,_RNCNCINvMs_NtNtCslEfzt21w4nZ_13rust_jira_mcp4jira6clientNtB9_10JiraClient14zephyr_requestNtNtNtBd_5types4jira14ZephyrTestStepNtB1r_27ZephyrTestStepUpdateRequestE00Bd_
FN:1467,_RNCNCINvMs_NtNtCslEfzt21w4nZ_13rust_jira_mcp4jira6clientNtB9_10JiraClient14zephyr_requestNtNtNtBd_5types4jira14ZephyrTestStepNtB1r_27ZephyrTestStepUpdateRequestE0s_0Bd_
FN:1455,_RNCNCINvMs_NtNtCslEfzt21w4nZ_13rust_jira_mcp4jira6clientNtB9_10JiraClient14zephyr_requestNtNtNtBd_5types4jira19ZephyrTestExecutionNtB1r_32ZephyrTestExecutionCreateRequestE00Bd_
FN:1467,_RNCNCINvMs_NtNtCslEfzt21w4nZ_13rust_jira_mcp4jira6clientNtB9_10JiraClient14zephyr_requestNtNtNtBd_5types4jira19ZephyrTestExecutionNtB1r_32ZephyrTestExecutionCreateRequestE0s_0Bd_
FN:1455,_RNCNCINvMs_NtNtCslEfzt21w4nZ_13rust_jira_mcp4jira6clientNtB9_10JiraClient14zephyr_requestNtNtNtBd_5types4jira26ZephyrTestCaseSearchResultuE00Bd_
FN:1467,_RNCNCINvMs_NtNtCslEfzt21w4nZ_13rust_jira_mcp4jira6clientNtB9_10JiraClient14zephyr_requestNtNtNtBd_5types4jira26ZephyrTestCaseSearchResultuE0s_0Bd_
FN:190,_RNCNCINvMs_NtNtCslEfzt21w4nZ_13rust_jira_mcp4jira6clientNtB9_10JiraClient7requestINtNtCsiAD6NEzHbBo_5alloc3vec3VecNtNtNtBd_5types4jira10JiraStatusEuE00Bd_
FN:202,_RNCNCINvMs_NtNtCslEfzt21w4nZ_13rust_jira_mcp4jira6clientNtB9_10JiraClient7requestINtNtCsiAD6NEzHbBo_5alloc3vec3VecNtNtNtBd_5types4jira10JiraStatusEuE0s_0Bd_
FN:190,_RNCNCINvMs_NtNtCslEfzt21w4nZ_13rust_jira_mcp4jira6clientNtB9_10JiraClient7requestINtNtCsiAD6NEzHbBo_5alloc3vec3VecNtNtNtBd_5types4jira12JiraLinkTypeEuE00Bd_
FN:202,_RNCNCINvMs_NtNtCslEfzt21w4nZ_13rust_jira_mcp4jira6clientNtB9_10JiraClient7requestINtNtCsiAD6NEzHbBo_5alloc3vec3VecNtNtNtBd_5types4jira12JiraLinkTypeEuE0s_0Bd_
FN:190,_RNCNCINvMs_NtNtCslEfzt21w4nZ_13rust_jira_mcp4jira6clientNtB9_10JiraClient7requestINtNtCsiAD6NEzHbBo_5alloc3vec3VecNtNtNtBd_5types4jira12JiraPriorityEuE00Bd_
FN:202,_RNCNCINvMs_NtNtCslEfzt21w4nZ_13rust_jira_mcp4jira6clientNtB9_10JiraClient7requestINtNtCsiAD6NEzHbBo_5alloc3vec3VecNtNtNtBd_5types4jira12JiraPriorityEuE0s_0Bd_
FN:190,_RNCNCINvMs_NtNtCslEfzt21w4nZ_13rust_jira_mcp4jira6clientNtB9_10JiraClient7requestINtNtCsiAD6NEzHbBo_5alloc3vec3VecNtNtNtBd_5types4jira13JiraComponentEuE00Bd_
FN:202,_RNCNCINvMs_NtNtCslEfzt21w4nZ_13rust_jira_mcp4jira6clientNtB9_10JiraClient7requestINtNtCsiAD6NEzHbBo_5alloc3vec3VecNtNtNtBd_5types4jira13JiraComponentEuE0s_0Bd_
FN:190,_RNCNCINvMs_NtNtCslEfzt21w4nZ_13rust_jira_mcp4jira6clientNtB9_10JiraClient7requestNtNtCslJRJgdvPEaJ_10serde_json5value5ValueB1h_E00Bd_
FN:202,_RNCNCINvMs_NtNtCslEfzt21w4nZ_13rust_jira_mcp4jira6clientNtB9_10JiraClient7requestNtNtCslJRJgdvPEaJ_10serde_json5value5ValueB1h_E0s_0Bd_
FN:190,_RNCNCINvMs_NtNtCslEfzt21w4nZ_13rust_jira_mcp4jira6clientNtB9_10JiraClient7requestNtNtCslJRJgdvPEaJ_10serde_json5value5ValueNtNtNtBd_5types4jira26JiraIssueLinkCreateRequestE00Bd_
FN:202,_RNCNCINvMs_NtNtCslEfzt21w4nZ_13rust_jira_mcp4jira6clientNtB9_10JiraClient7requestNtNtCslJRJgdvPEaJ_10serde_json5value5ValueNtNtNtBd_5types4jira26JiraIssueLinkCreateRequestE0s_0Bd_
FN:190,_RNCNCINvMs_NtNtCslEfzt21w4nZ_13rust_jira_mcp4jira6clientNtB9_10JiraClient7requestNtNtCslJRJgdvPEaJ_10serde_json5value5ValueuE00Bd_
FN:202,_RNCNCINvMs_NtNtCslEfzt21w4nZ_13rust_jira_mcp4jira6clientNtB9_10JiraClient7requestNtNtCslJRJgdvPEaJ_10serde_json5value5ValueuE0s_0Bd_
FN:190,_RNCNCINvMs_NtNtCslEfzt21w4nZ_13rust_jira_mcp4jira6clientNtB9_10JiraClient7requestNtNtNtBd_5types4jira11JiraCommentNtNtCslJRJgdvPEaJ_10serde_json5value5ValueE00Bd_
FN:202,_RNCNCINvMs_NtNtCslEfzt21w4nZ_13rust_jira_mcp4jira6clientNtB9_10JiraClient7requestNtNtNtBd_5types4jira11JiraCommentNtNtCslJRJgdvPEaJ_10serde_json5value5ValueE0s_0Bd_
FN:190,_RNCNCINvMs_NtNtCslEfzt21w4nZ_13rust_jira_mcp4jira6clientNtB9_10JiraClient7requestNtNtNtBd_5types4jira11JiraWorkLogNtB1j_24JiraWorkLogCreateRequestE00Bd_
FN:202,_RNCNCINvMs_NtNtCslEfzt21w4nZ_13rust_jira_mcp4jira6clientNtB9_10JiraClient7requestNtNtNtBd_5types4jira11JiraWorkLogNtB1j_24JiraWorkLogCreateRequestE0s_0Bd_
FN:190,_RNCNCINvMs_NtNtCslEfzt21w4nZ_13rust_jira_mcp4jira6clientNtB9_10JiraClient7requestNtNtNtBd_5types4jira11JiraWorkLogNtB1j_24JiraWorkLogUpdateRequestE00Bd_
FN:202,_RNCNCINvMs_NtNtCslEfzt21w4nZ_13rust_jira_mcp4jira6clientNtB9_10JiraClient7requestNtNtNtBd_5types4jira11JiraWorkLogNtB1j_24JiraWorkLogUpdateRequestE0s_0Bd_
FN:190,_RNCNCINvMs_NtNtCslEfzt21w4nZ_13rust_jira_mcp4jira6clientNtB9_10JiraClient7requestNtNtNtBd_5types4jira13JiraComponentNtB1j_26JiraComponentCreateRequestE00Bd_
FN:202,_RNCNCINvMs_NtNtCslEfzt21w4nZ_13rust_jira_mcp4jira6clientNtB9_10JiraClient7requestNtNtNtBd_5types4jira13JiraComponentNtB1j_26JiraComponentCreateRequestE0s_0Bd_
FN:190,_RNCNCINvMs_NtNtCslEfzt21w4nZ_13rust_jira_mcp4jira6clientNtB9_10JiraClient7requestNtNtNtBd_5types4jira13JiraComponentNtB1j_26JiraComponentUpdateRequestE00Bd_
FN:202,_RNCNCINvMs_NtNtCslEfzt21w4nZ_13rust_jira_mcp4jira6clientNtB9_10JiraClient7requestNtNtNtBd_5types4jira13JiraComponentNtB1j_26JiraComponentUpdateRequestE0s_0Bd_
FN:190,_RNCNCINvMs_NtNtCslEfzt21w4nZ_13rust_jira_mcp4jira6clientNtB9_10JiraClient7requestNtNtNtBd_5types4jira13JiraIssueTypeuE00Bd_
FN:202,_RNCNCINvMs_NtNtCslEfzt21w4nZ_13rust_jira_mcp4jira6clientNtB9_10JiraClient7requestNtNtNtBd_5types4jira13JiraIssueTypeuE0s_0Bd_
FN:190,_RNCNCINvMs_NtNtCslEfzt21w4nZ_13rust_jira_mcp4jira6clientNtB9_10JiraClient7requestNtNtNtBd_5types4jira16JiraSearchResultuE00Bd_
FN:202,_RNCNCINvMs_NtNtCslEfzt21w4nZ_13rust_jira_mcp4jira6clientNtB9_10JiraClient7requestNtNtNtBd_5types4jira16JiraSearchResultuE0s_0Bd_
FN:190,_RNCNCINvMs_NtNtCslEfzt21w4nZ_13rust_jira_mcp4jira6clientNtB9_10JiraClient7requestNtNtNtBd_5types4jira20JiraWatchersResponseuE00Bd_
FN:202,_RNCNCINvMs_NtNtCslEfzt21w4nZ_13rust_jira_mcp4jira6clientNtB9_10JiraClient7requestNtNtNtBd_5types4jira20JiraWatchersResponseuE0s_0Bd_
FN:190,_RNCNCINvMs_NtNtCslEfzt21w4nZ_13rust_jira_mcp4jira6clientNtB9_10JiraClient7requestNtNtNtBd_5types4jira9JiraIssueNtNtCslJRJgdvPEaJ_10serde_json5value5ValueE00Bd_
FN:202,_RNCNCINvMs_NtNtCslEfzt21w4nZ_13rust_jira_mcp4jira6clientNtB9_10JiraClient7requestNtNtNtBd_5types4jira9JiraIssueNtNtCslJRJgdvPEaJ_10serde_json5value5ValueE0s_0Bd_
FN:190,_RNCNCINvMs_NtNtCslEfzt21w4nZ_13rust_jira_mcp4jira6clientNtB9_10JiraClient7requestNtNtNtBd_5types4jira9JiraIssueuE00Bd_
FN:202,_RNCNCINvMs_NtNtCslEfzt21w4nZ_13rust_jira_mcp4jira6clientNtB9_10JiraClient7requestNtNtNtBd_5types4jira9JiraIssueuE0s_0Bd_
FN:190,_RNCNCINvMs_NtNtCslEfzt21w4nZ_13rust_jira_mcp4jira6clientNtB9_10JiraClient7requestNtNtNtBd_5types4jira9JiraLabelNtB1j_22JiraLabelCreateRequestE00Bd_
FN:202,_RNCNCINvMs_NtNtCslEfzt21w4nZ_13rust_jira_mcp4jira6clientNtB9_10JiraClient7requestNtNtNtBd_5types4jira9JiraLabelNtB1j_22JiraLabelCreateRequestE0s_0Bd_
FN:190,_RNCNCINvMs_NtNtCslEfzt21w4nZ_13rust_jira_mcp4jira6clientNtB9_10JiraClient7requestNtNtNtBd_5types4jira9JiraLabelNtB1j_22JiraLabelUpdateRequestE00Bd_
FN:202,_RNCNCINvMs_NtNtCslEfzt21w4nZ_13rust_jira_mcp4jira6clientNtB9_10JiraClient7requestNtNtNtBd_5types4jira9JiraLabelNtB1j_22JiraLabelUpdateRequestE0s_0Bd_
FN:1211,_RNCNCNvMs_NtNtCslEfzt21w4nZ_13rust_jira_mcp4jira6clientNtB8_10JiraClient10get_labels00Bc_
FN:635,_RNCNCNvMs_NtNtCslEfzt21w4nZ_13rust_jira_mcp4jira6clientNtB8_10JiraClient11link_issues00Bc_
FN:389,_RNCNCNvMs_NtNtCslEfzt21w4nZ_13rust_jira_mcp4jira6clientNtB8_10JiraClient12get_comments00Bc_
FN:390,_RNCNCNvMs_NtNtCslEfzt21w4nZ_13rust_jira_mcp4jira6clientNtB8_10JiraClient12get_comments0s_0Bc_
FN:332,_RNCNCNvMs_NtNtCslEfzt21w4nZ_13rust_jira_mcp4jira6clientNtB8_10JiraClient13search_issues00Bc_
FN:578,_RNCNCNvMs_NtNtCslEfzt21w4nZ_13rust_jira_mcp4jira6clientNtB8_10JiraClient15get_issue_links00Bc_
FN:414,_RNCNCNvMs_NtNtCslEfzt21w4nZ_13rust_jira_mcp4jira6clientNtB8_10JiraClient15get_transitions00Bc_
FN:415,_RNCNCNvMs_NtNtCslEfzt21w4nZ_13rust_jira_mcp4jira6clientNtB8_10JiraClient15get_transitions0s_0Bc_
FN:1152,_RNCNCNvMs_NtNtCslEfzt21w4nZ_13rust_jira_mcp4jira6clientNtB8_10JiraClient17bulk_add_comments00Bc_
FN:552,_RNCNCNvMs_NtNtCslEfzt21w4nZ_13rust_jira_mcp4jira6clientNtB8_10JiraClient17get_custom_fields00Bc_
FN:1006,_RNCNCNvMs_NtNtCslEfzt21w4nZ_13rust_jira_mcp4jira6clientNtB8_10JiraClient17perform_operation00Bc_
FN:1010,_RNCNCNvMs_NtNtCslEfzt21w4nZ_13rust_jira_mcp4jira6clientNtB8_10JiraClient17perform_operation0s0_0Bc_
FN:1018,_RNCNCNvMs_NtNtCslEfzt21w4nZ_13rust_jira_mcp4jira6clientNtB8_10JiraClient17perform_operation0s1_0Bc_
FN:1019,_RNCNCNvMs_NtNtCslEfzt21w4nZ_13rust_jira_mcp4jira6clientNtB8_10JiraClient17perform_operation0s2_0Bc_
FN:1036,_RNCNCNvMs_NtNtCslEfzt21w4nZ_13rust_jira_mcp4jira6clientNtB8_10JiraClient17perform_operation0s3_0Bc_
FN:1037,_RNCNCNvMs_NtNtCslEfzt21w4nZ_13rust_jira_mcp4jira6clientNtB8_10JiraClient17perform_operation0s4_0Bc_
FN:1040,_RNCNCNvMs_NtNtCslEfzt21w4nZ_13rust_jira_mcp4jira6clientNtB8_10JiraClient17perform_operation0s5_0Bc_
FN:1048,_RNCNCNvMs_NtNtCslEfzt21w4nZ_13rust_jira_mcp4jira6clientNtB8_10JiraClient17perform_operation0s6_0Bc_
FN:1049,_RNCNCNvMs_NtNtCslEfzt21w4nZ_13rust_jira_mcp4jira6clientNtB8_10JiraClient17perform_operation0s7_0Bc_
FN:1007,_RNCNCNvMs_NtNtCslEfzt21w4nZ_13rust_jira_mcp4jira6clientNtB8_10JiraClient17perform_operation0s_0Bc_
FN:724,_RNCNCNvMs_NtNtCslEfzt21w4nZ_13rust_jira_mcp4jira6clientNtB8_10JiraClient17upload_attachment00Bc_
FN:1091,_RNCNCNvMs_NtNtCslEfzt21w4nZ_13rust_jira_mcp4jira6clientNtB8_10JiraClient18bulk_update_issues00Bc_
FN:771,_RNCNCNvMs_NtNtCslEfzt21w4nZ_13rust_jira_mcp4jira6clientNtB8_10JiraClient19download_attachment00Bc_
FN:790,_RNCNCNvMs_NtNtCslEfzt21w4nZ_13rust_jira_mcp4jira6clientNtB8_10JiraClient19get_issue_work_logs00Bc_
FN:791,_RNCNCNvMs_NtNtCslEfzt21w4nZ_13rust_jira_mcp4jira6clientNtB8_10JiraClient19get_issue_work_logs0s_0Bc_
FN:656,_RNCNCNvMs_NtNtCslEfzt21w4nZ_13rust_jira_mcp4jira6clientNtB8_10JiraClient21get_issue_attachments00Bc_
FN:657,_RNCNCNvMs_NtNtCslEfzt21w4nZ_13rust_jira_mcp4jira6clientNtB8_10JiraClient21get_issue_attachments0s_0Bc_
FN:1776,_RNCNCNvMs_NtNtCslEfzt21w4nZ_13rust_jira_mcp4jira6clientNtB8_10JiraClient21get_zephyr_test_plans00Bc_
FN:1777,_RNCNCNvMs_NtNtCslEfzt21w4nZ_13rust_jira_mcp4jira6clientNtB8_10JiraClient21get_zephyr_test_plans0s_0Bc_
FN:1559,_RNCNCNvMs_NtNtCslEfzt21w4nZ_13rust_jira_mcp4jira6clientNtB8_10JiraClient21get_zephyr_test_steps00Bc_
FN:1560,_RNCNCNvMs_NtNtCslEfzt21w4nZ_13rust_jira_mcp4jira6clientNtB8_10JiraClient21get_zephyr_test_steps0s_0Bc_
FN:1124,_RNCNCNvMs_NtNtCslEfzt21w4nZ_13rust_jira_mcp4jira6clientNtB8_10JiraClient22bulk_transition_issues00Bc_
FN:1735,_RNCNCNvMs_NtNtCslEfzt21w4nZ_13rust_jira_mcp4jira6clientNtB8_10JiraClient22get_zephyr_test_cycles00Bc_
FN:1736,_RNCNCNvMs_NtNtCslEfzt21w4nZ_13rust_jira_mcp4jira6clientNtB8_10JiraClient22get_zephyr_test_cycles0s_0Bc_
FN:481,_RNCNCNvMs_NtNtCslEfzt21w4nZ_13rust_jira_mcp4jira6clientNtB8_10JiraClient23get_project_issue_types00Bc_
FN:482,_RNCNCNvMs_NtNtCslEfzt21w4nZ_13rust_jira_mcp4jira6clientNtB8_10JiraClient23get_project_issue_types0s_0Bc_
FN:1641,_RNCNCNvMs_NtNtCslEfzt21w4nZ_13rust_jira_mcp4jira6clientNtB8_10JiraClient24search_zephyr_test_cases00Bc_
FN:1687,_RNCNCNvMs_NtNtCslEfzt21w4nZ_13rust_jira_mcp4jira6clientNtB8_10JiraClient26get_zephyr_test_executions00Bc_
FN:1688,_RNCNCNvMs_NtNtCslEfzt21w4nZ_13rust_jira_mcp4jira6clientNtB8_10JiraClient26get_zephyr_test_executions0s_0Bc_
FN:45,_RNCNvMNtNtCslEfzt21w4nZ_13rust_jira_mcp4jira6clientNtB4_11RateLimiter14wait_if_needed0B8_
FN:1205,_RNCNvMs_NtNtCslEfzt21w4nZ_13rust_jira_mcp4jira6clientNtB6_10JiraClient10get_labels0Ba_
FN:369,_RNCNvMs_NtNtCslEfzt21w4nZ_13rust_jira_mcp4jira6clientNtB6_10JiraClient11add_comment0Ba_
FN:1307,_RNCNvMs_NtNtCslEfzt21w4nZ_13rust_jira_mcp4jira6clientNtB6_10JiraClient11clone_issue0Ba_
FN:623,_RNCNvMs_NtNtCslEfzt21w4nZ_13rust_jira_mcp4jira6clientNtB6_10JiraClient11link_issues0Ba_
FN:812,_RNCNvMs_NtNtCslEfzt21w4nZ_13rust_jira_mcp4jira6clientNtB6_10JiraClient12add_work_log0Ba_
FN:345,_RNCNvMs_NtNtCslEfzt21w4nZ_13rust_jira_mcp4jira6clientNtB6_10JiraClient12create_issue0Ba_
FN:1228,_RNCNvMs_NtNtCslEfzt21w4nZ_13rust_jira_mcp4jira6clientNtB6_10JiraClient12create_label0Ba_
FN:1251,_RNCNvMs_NtNtCslEfzt21w4nZ_13rust_jira_mcp4jira6clientNtB6_10JiraClient12delete_label0Ba_
FN:382,_RNCNvMs_NtNtCslEfzt21w4nZ_13rust_jira_mcp4jira6clientNtB6_10JiraClient12get_comments0Ba_
FN:537,_RNCNvMs_NtNtCslEfzt21w4nZ_13rust_jira_mcp4jira6clientNtB6_10JiraClient12get_statuses0Ba_
FN:358,_RNCNvMs_NtNtCslEfzt21w4nZ_13rust_jira_mcp4jira6clientNtB6_10JiraClient12update_issue0Ba_
FN:1241,_RNCNvMs_NtNtCslEfzt21w4nZ_13rust_jira_mcp4jira6clientNtB6_10JiraClient12update_label0Ba_
FN:935,_RNCNvMs_NtNtCslEfzt21w4nZ_13rust_jira_mcp4jira6clientNtB6_10JiraClient13process_batch0Ba_
FN:317,_RNCNvMs_NtNtCslEfzt21w4nZ_13rust_jira_mcp4jira6clientNtB6_10JiraClient13search_issues0Ba_
FN:563,_RNCNvMs_NtNtCslEfzt21w4nZ_13rust_jira_mcp4jira6clientNtB6_10JiraClient14get_link_types0Ba_
FN:528,_RNCNvMs_NtNtCslEfzt21w4nZ_13rust_jira_mcp4jira6clientNtB6_10JiraClient14get_priorities0Ba_
FN:837,_RNCNvMs_NtNtCslEfzt21w4nZ_13rust_jira_mcp4jira6clientNtB6_10JiraClient15delete_work_log0Ba_
FN:572,_RNCNvMs_NtNtCslEfzt21w4nZ_13rust_jira_mcp4jira6clientNtB6_10JiraClient15get_issue_links0Ba_
FN:407,_RNCNvMs_NtNtCslEfzt21w4nZ_13rust_jira_mcp4jira6clientNtB6_10JiraClient15get_transitions0Ba_
FN:827,_RNCNvMs_NtNtCslEfzt21w4nZ_13rust_jira_mcp4jira6clientNtB6_10JiraClient15update_work_log0Ba_
FN:1512,_RNCNvMs_NtNtCslEfzt21w4nZ_13rust_jira_mcp4jira6clientNtB6_10JiraClient16build_zephyr_url0Ba_
FN:1516,_RNCNvMs_NtNtCslEfzt21w4nZ_13rust_jira_mcp4jira6clientNtB6_10JiraClient16build_zephyr_urls_0Ba_
FN:1267,_RNCNvMs_NtNtCslEfzt21w4nZ_13rust_jira_mcp4jira6clientNtB6_10JiraClient16create_component0Ba_
FN:1290,_RNCNvMs_NtNtCslEfzt21w4nZ_13rust_jira_mcp4jira6clientNtB6_10JiraClient16delete_component0Ba_
FN:437,_RNCNvMs_NtNtCslEfzt21w4nZ_13rust_jira_mcp4jira6clientNtB6_10JiraClient16transition_issue0Ba_
FN:1280,_RNCNvMs_NtNtCslEfzt21w4nZ_13rust_jira_mcp4jira6clientNtB6_10JiraClient16update_component0Ba_
FN:1178,_RNCNvMs_NtNtCslEfzt21w4nZ_13rust_jira_mcp4jira6clientNtB6_10JiraClient17add_issue_watcher0Ba_
FN:1143,_RNCNvMs_NtNtCslEfzt21w4nZ_13rust_jira_mcp4jira6clientNtB6_10JiraClient17bulk_add_comments0Ba_
FN:595,_RNCNvMs_NtNtCslEfzt21w4nZ_13rust_jira_mcp4jira6clientNtB6_10JiraClient17create_issue_link0Ba_
FN:735,_RNCNvMs_NtNtCslEfzt21w4nZ_13rust_jira_mcp4jira6clientNtB6_10JiraClient17delete_attachment0Ba_
FN:606,_RNCNvMs_NtNtCslEfzt21w4nZ_13rust_jira_mcp4jira6clientNtB6_10JiraClient17delete_issue_link0Ba_
FN:546,_RNCNvMs_NtNtCslEfzt21w4nZ_13rust_jira_mcp4jira6clientNtB6_10JiraClient17get_custom_fields0Ba_
FN:996,_RNCNvMs_NtNtCslEfzt21w4nZ_13rust_jira_mcp4jira6clientNtB6_10JiraClient17perform_operation0Ba_
FN:680,_RNCNvMs_NtNtCslEfzt21w4nZ_13rust_jira_mcp4jira6clientNtB6_10JiraClient17upload_attachment0Ba_
FN:1086,_RNCNvMs_NtNtCslEfzt21w4nZ_13rust_jira_mcp4jira6clientNtB6_10JiraClient18bulk_update_issues0Ba_
FN:1168,_RNCNvMs_NtNtCslEfzt21w4nZ_13rust_jira_mcp4jira6clientNtB6_10JiraClient18get_issue_watchers0Ba_
FN:746,_RNCNvMs_NtNtCslEfzt21w4nZ_13rust_jira_mcp4jira6clientNtB6_10JiraClient19download_attachment0Ba_
FN:784,_RNCNvMs_NtNtCslEfzt21w4nZ_13rust_jira_mcp4jira6clientNtB6_10JiraClient19get_issue_work_logs0Ba_
FN:853,_RNCNvMs_NtNtCslEfzt21w4nZ_13rust_jira_mcp4jira6clientNtB6_10JiraClient20get_project_metadata0Ba_
FN:1192,_RNCNvMs_NtNtCslEfzt21w4nZ_13rust_jira_mcp4jira6clientNtB6_10JiraClient20remove_issue_watcher0Ba_
FN:650,_RNCNvMs_NtNtCslEfzt21w4nZ_13rust_jira_mcp4jira6clientNtB6_10JiraClient21get_issue_attachments0Ba_
FN:1769,_RNCNvMs_NtNtCslEfzt21w4nZ_13rust_jira_mcp4jira6clientNtB6_10JiraClient21get_zephyr_test_plans0Ba_
FN:1552,_RNCNvMs_NtNtCslEfzt21w4nZ_13rust_jira_mcp4jira6clientNtB6_10JiraClient21get_zephyr_test_steps0Ba_
FN:1111,_RNCNvMs_NtNtCslEfzt21w4nZ_13rust_jira_mcp4jira6clientNtB6_10JiraClient22bulk_transition_issues0Ba_
FN:518,_RNCNvMs_NtNtCslEfzt21w4nZ_13rust_jira_mcp4jira6clientNtB6_10JiraClient22get_project_components0Ba_
FN:1728,_RNCNvMs_NtNtCslEfzt21w4nZ_13rust_jira_mcp4jira6clientNtB6_10JiraClient22get_zephyr_test_cycles0Ba_
FN:1657,_RNCNvMs_NtNtCslEfzt21w4nZ_13rust_jira_mcp4jira6clientNtB6_10JiraClient23create_zephyr_test_case0Ba_
FN:1580,_RNCNvMs_NtNtCslEfzt21w4nZ_13rust_jira_mcp4jira6clientNtB6_10JiraClient23create_zephyr_test_step0Ba_
FN:1605,_RNCNvMs_NtNtCslEfzt21w4nZ_13rust_jira_mcp4jira6clientNtB6_10JiraClient23delete_zephyr_test_step0Ba_
FN:885,_RNCNvMs_NtNtCslEfzt21w4nZ_13rust_jira_mcp4jira6clientNtB6_10JiraClient23execute_bulk_operations0Ba_
FN:505,_RNCNvMs_NtNtCslEfzt21w4nZ_13rust_jira_mcp4jira6clientNtB6_10JiraClient23get_issue_type_metadata0Ba_
FN:475,_RNCNvMs_NtNtCslEfzt21w4nZ_13rust_jira_mcp4jira6clientNtB6_10JiraClient23get_project_issue_types0Ba_
FN:1595,_RNCNvMs_NtNtCslEfzt21w4nZ_13rust_jira_mcp4jira6clientNtB6_10JiraClient23update_zephyr_test_step0Ba_
FN:956,_RNCNvMs_NtNtCslEfzt21w4nZ_13rust_jira_mcp4jira6clientNtB6_10JiraClient24execute_single_operation0Ba_
FN:1628,_RNCNvMs_NtNtCslEfzt21w4nZ_13rust_jira_mcp4jira6clientNtB6_10JiraClient24search_zephyr_test_cases0Ba_
FN:462,_RNCNvMs_NtNtCslEfzt21w4nZ_13rust_jira_mcp4jira6clientNtB6_10JiraClient25get_project_configuration0Ba_
FN:1680,_RNCNvMs_NtNtCslEfzt21w4nZ_13rust_jira_mcp4jira6clientNtB6_10JiraClient26get_zephyr_test_executions0Ba_
FN:1708,_RNCNvMs_NtNtCslEfzt21w4nZ_13rust_jira_mcp4jira6clientNtB6_10JiraClient28create_zephyr_test_execution0Ba_
FN:249,_RNCNvMs_NtNtCslEfzt21w4nZ_13rust_jira_mcp4jira6clientNtB6_10JiraClient9build_url0Ba_
FN:253,_RNCNvMs_NtNtCslEfzt21w4nZ_13rust_jira_mcp4jira6clientNtB6_10JiraClient9build_urls_0Ba_
FN:302,_RNCNvMs_NtNtCslEfzt21w4nZ_13rust_jira_mcp4jira6clientNtB6_10JiraClient9get_issue0Ba_
FN:1369,_RINvMs_NtNtCsbRuuH6jbcRQ_13rust_jira_mcp4jira6clientNtB5_10JiraClient10zephyr_getpEB9_
FN:1396,_RINvMs_NtNtCsbRuuH6jbcRQ_13rust_jira_mcp4jira6clientNtB5_10JiraClient10zephyr_putppEB9_
FN:1382,_RINvMs_NtNtCsbRuuH6jbcRQ_13rust_jira_mcp4jira6clientNtB5_10JiraClient11zephyr_postppEB9_
FN:257,_RINvMs_NtNtCsbRuuH6jbcRQ_13rust_jira_mcp4jira6clientNtB5_10JiraClient13build_requestpEB9_
FN:1409,_RINvMs_NtNtCsbRuuH6jbcRQ_13rust_jira_mcp4jira6clientNtB5_10JiraClient13zephyr_deletepEB9_
FN:1422,_RINvMs_NtNtCsbRuuH6jbcRQ_13rust_jira_mcp4jira6clientNtB5_10JiraClient14zephyr_requestppEB9_
FN:1520,_RINvMs_NtNtCsbRuuH6jbcRQ_13rust_jira_mcp4jira6clientNtB5_10JiraClient20build_zephyr_requestpEB9_
FN:110,_RINvMs_NtNtCsbRuuH6jbcRQ_13rust_jira_mcp4jira6clientNtB5_10JiraClient3getpEB9_
FN:135,_RINvMs_NtNtCsbRuuH6jbcRQ_13rust_jira_mcp4jira6clientNtB5_10JiraClient3putppEB9_
FN:122,_RINvMs_NtNtCsbRuuH6jbcRQ_13rust_jira_mcp4jira6clientNtB5_10JiraClient4postppEB9_
FN:148,_RINvMs_NtNtCsbRuuH6jbcRQ_13rust_jira_mcp4jira6clientNtB5_10JiraClient6deletepEB9_
FN:160,_RINvMs_NtNtCsbRuuH6jbcRQ_13rust_jira_mcp4jira6clientNtB5_10JiraClient7requestppEB9_
FN:1372,_RNCINvMs_NtNtCsbRuuH6jbcRQ_13rust_jira_mcp4jira6clientNtB7_10JiraClient10zephyr_getpE0Bb_
FN:1400,_RNCINvMs_NtNtCsbRuuH6jbcRQ_13rust_jira_mcp4jira6clientNtB7_10JiraClient10zephyr_putppE0Bb_
FN:1386,_RNCINvMs_NtNtCsbRuuH6jbcRQ_13rust_jira_mcp4jira6clientNtB7_10JiraClient11zephyr_postppE0Bb_
FN:1412,_RNCINvMs_NtNtCsbRuuH6jbcRQ_13rust_jira_mcp4jira6clientNtB7_10JiraClient13zephyr_deletepE0Bb_
FN:1431,_RNCINvMs_NtNtCsbRuuH6jbcRQ_13rust_jira_mcp4jira6clientNtB7_10JiraClient14zephyr_requestppE0Bb_
FN:113,_RNCINvMs_NtNtCsbRuuH6jbcRQ_13rust_jira_mcp4jira6clientNtB7_10JiraClient3getpE0Bb_
FN:139,_RNCINvMs_NtNtCsbRuuH6jbcRQ_13rust_jira_mcp4jira6clientNtB7_10JiraClient3putppE0Bb_
FN:126,_RNCINvMs_NtNtCsbRuuH6jbcRQ_13rust_jira_mcp4jira6clientNtB7_10JiraClient4postppE0Bb_
FN:151,_RNCINvMs_NtNtCsbRuuH6jbcRQ_13rust_jira_mcp4jira6clientNtB7_10JiraClient6deletepE0Bb_
FN:164,_RNCINvMs_NtNtCsbRuuH6jbcRQ_13rust_jira_mcp4jira6clientNtB7_10JiraClient7requestppE0Bb_
FN:1455,_RNCNCINvMs_NtNtCsbRuuH6jbcRQ_13rust_jira_mcp4jira6clientNtB9_10JiraClient14zephyr_requestppE00Bd_
FN:1467,_RNCNCINvMs_NtNtCsbRuuH6jbcRQ_13rust_jira_mcp4jira6clientNtB9_10JiraClient14zephyr_requestppE0s_0Bd_
FN:190,_RNCNCINvMs_NtNtCsbRuuH6jbcRQ_13rust_jira_mcp4jira6clientNtB9_10JiraClient7requestppE00Bd_
FN:202,_RNCNCINvMs_NtNtCsbRuuH6jbcRQ_13rust_jira_mcp4jira6clientNtB9_10JiraClient7requestppE0s_0Bd_
FN:1211,_RNCNCNvMs_NtNtCsbRuuH6jbcRQ_13rust_jira_mcp4jira6clientNtB8_10JiraClient10get_labels00Bc_
FN:635,_RNCNCNvMs_NtNtCsbRuuH6jbcRQ_13rust_jira_mcp4jira6clientNtB8_10JiraClient11link_issues00Bc_
FN:389,_RNCNCNvMs_NtNtCsbRuuH6jbcRQ_13rust_jira_mcp4jira6clientNtB8_10JiraClient12get_comments00Bc_
FN:390,_RNCNCNvMs_NtNtCsbRuuH6jbcRQ_13rust_jira_mcp4jira6clientNtB8_10JiraClient12get_comments0s_0Bc_
FN:332,_RNCNCNvMs_NtNtCsbRuuH6jbcRQ_13rust_jira_mcp4jira6clientNtB8_10JiraClient13search_issues00Bc_
FN:578,_RNCNCNvMs_NtNtCsbRuuH6jbcRQ_13rust_jira_mcp4jira6clientNtB8_10JiraClient15get_issue_links00Bc_
FN:414,_RNCNCNvMs_NtNtCsbRuuH6jbcRQ_13rust_jira_mcp4jira6clientNtB8_10JiraClient15get_transitions00Bc_
FN:415,_RNCNCNvMs_NtNtCsbRuuH6jbcRQ_13rust_jira_mcp4jira6clientNtB8_10JiraClient15get_transitions0s_0Bc_
FN:1152,_RNCNCNvMs_NtNtCsbRuuH6jbcRQ_13rust_jira_mcp4jira6clientNtB8_10JiraClient17bulk_add_comments00Bc_
FN:552,_RNCNCNvMs_NtNtCsbRuuH6jbcRQ_13rust_jira_mcp4jira6clientNtB8_10JiraClient17get_custom_fields00Bc_
FN:1006,_RNCNCNvMs_NtNtCsbRuuH6jbcRQ_13rust_jira_mcp4jira6clientNtB8_10JiraClient17perform_operation00Bc_
FN:1010,_RNCNCNvMs_NtNtCsbRuuH6jbcRQ_13rust_jira_mcp4jira6clientNtB8_10JiraClient17perform_operation0s0_0Bc_
FN:1018,_RNCNCNvMs_NtNtCsbRuuH6jbcRQ_13rust_jira_mcp4jira6clientNtB8_10JiraClient17perform_operation0s1_0Bc_
FN:1019,_RNCNCNvMs_NtNtCsbRuuH6jbcRQ_13rust_jira_mcp4jira6clientNtB8_10JiraClient17perform_operation0s2_0Bc_
FN:1036,_RNCNCNvMs_NtNtCsbRuuH6jbcRQ_13rust_jira_mcp4jira6clientNtB8_10JiraClient17perform_operation0s3_0Bc_
FN:1037,_RNCNCNvMs_NtNtCsbRuuH6jbcRQ_13rust_jira_mcp4jira6clientNtB8_10JiraClient17perform_operation0s4_0Bc_
FN:1040,_RNCNCNvMs_NtNtCsbRuuH6jbcRQ_13rust_jira_mcp4jira6clientNtB8_10JiraClient17perform_operation0s5_0Bc_
FN:1048,_RNCNCNvMs_NtNtCsbRuuH6jbcRQ_13rust_jira_mcp4jira6clientNtB8_10JiraClient17perform_operation0s6_0Bc_
FN:1049,_RNCNCNvMs_NtNtCsbRuuH6jbcRQ_13rust_jira_mcp4jira6clientNtB8_10JiraClient17perform_operation0s7_0Bc_
FN:1007,_RNCNCNvMs_NtNtCsbRuuH6jbcRQ_13rust_jira_mcp4jira6clientNtB8_10JiraClient17perform_operation0s_0Bc_
FN:724,_RNCNCNvMs_NtNtCsbRuuH6jbcRQ_13rust_jira_mcp4jira6clientNtB8_10JiraClient17upload_attachment00Bc_
FN:1091,_RNCNCNvMs_NtNtCsbRuuH6jbcRQ_13rust_jira_mcp4jira6clientNtB8_10JiraClient18bulk_update_issues00Bc_
FN:771,_RNCNCNvMs_NtNtCsbRuuH6jbcRQ_13rust_jira_mcp4jira6clientNtB8_10JiraClient19download_attachment00Bc_
FN:790,_RNCNCNvMs_NtNtCsbRuuH6jbcRQ_13rust_jira_mcp4jira6clientNtB8_10JiraClient19get_issue_work_logs00Bc_
FN:791,_RNCNCNvMs_NtNtCsbRuuH6jbcRQ_13rust_jira_mcp4jira6clientNtB8_10JiraClient19get_issue_work_logs0s_0Bc_
FN:656,_RNCNCNvMs_NtNtCsbRuuH6jbcRQ_13rust_jira_mcp4jira6clientNtB8_10JiraClient21get_issue_attachments00Bc_
FN:657,_RNCNCNvMs_NtNtCsbRuuH6jbcRQ_13rust_jira_mcp4jira6clientNtB8_10JiraClient21get_issue_attachments0s_0Bc_
FN:1776,_RNCNCNvMs_NtNtCsbRuuH6jbcRQ_13rust_jira_mcp4jira6clientNtB8_10JiraClient21get_zephyr_test_plans00Bc_
FN:1777,_RNCNCNvMs_NtNtCsbRuuH6jbcRQ_13rust_jira_mcp4jira6clientNtB8_10JiraClient21get_zephyr_test_plans0s_0Bc_
FN:1559,_RNCNCNvMs_NtNtCsbRuuH6jbcRQ_13rust_jira_mcp4jira6clientNtB8_10JiraClient21get_zephyr_test_steps00Bc_
FN:1560,_RNCNCNvMs_NtNtCsbRuuH6jbcRQ_13rust_jira_mcp4jira6clientNtB8_10JiraClient21get_zephyr_test_steps0s_0Bc_
FN:1124,_RNCNCNvMs_NtNtCsbRuuH6jbcRQ_13rust_jira_mcp4jira6clientNtB8_10JiraClient22bulk_transition_issues00Bc_
FN:1735,_RNCNCNvMs_NtNtCsbRuuH6jbcRQ_13rust_jira_mcp4jira6clientNtB8_10JiraClient22get_zephyr_test_cycles00Bc_
FN:1736,_RNCNCNvMs_NtNtCsbRuuH6jbcRQ_13rust_jira_mcp4jira6clientNtB8_10JiraClient22get_zephyr_test_cycles0s_0Bc_
FN:481,_RNCNCNvMs_NtNtCsbRuuH6jbcRQ_13rust_jira_mcp4jira6clientNtB8_10JiraClient23get_project_issue_types00Bc_
FN:482,_RNCNCNvMs_NtNtCsbRuuH6jbcRQ_13rust_jira_mcp4jira6clientNtB8_10JiraClient23get_project_issue_types0s_0Bc_
FN:1641,_RNCNCNvMs_NtNtCsbRuuH6jbcRQ_13rust_jira_mcp4jira6clientNtB8_10JiraClient24search_zephyr_test_cases00Bc_
FN:1687,_RNCNCNvMs_NtNtCsbRuuH6jbcRQ_13rust_jira_mcp4jira6clientNtB8_10JiraClient26get_zephyr_test_executions00Bc_
FN:1688,_RNCNCNvMs_NtNtCsbRuuH6jbcRQ_13rust_jira_mcp4jira6clientNtB8_10JiraClient26get_zephyr_test_executions0s_0Bc_
FN:45,_RNCNvMNtNtCsbRuuH6jbcRQ_13rust_jira_mcp4jira6clientNtB4_11RateLimiter14wait_if_needed0B8_
FN:1205,_RNCNvMs_NtNtCsbRuuH6jbcRQ_13rust_jira_mcp4jira6clientNtB6_10JiraClient10get_labels0Ba_
FN:369,_RNCNvMs_NtNtCsbRuuH6jbcRQ_13rust_jira_mcp4jira6clientNtB6_10JiraClient11add_comment0Ba_
FN:1307,_RNCNvMs_NtNtCsbRuuH6jbcRQ_13rust_jira_mcp4jira6clientNtB6_10JiraClient11clone_issue0Ba_
FN:623,_RNCNvMs_NtNtCsbRuuH6jbcRQ_13rust_jira_mcp4jira6clientNtB6_10JiraClient11link_issues0Ba_
FN:812,_RNCNvMs_NtNtCsbRuuH6jbcRQ_13rust_jira_mcp4jira6clientNtB6_10JiraClient12add_work_log0Ba_
FN:345,_RNCNvMs_NtNtCsbRuuH6jbcRQ_13rust_jira_mcp4jira6clientNtB6_10JiraClient12create_issue0Ba_
FN:1228,_RNCNvMs_NtNtCsbRuuH6jbcRQ_13rust_jira_mcp4jira6clientNtB6_10JiraClient12create_label0Ba_
FN:1251,_RNCNvMs_NtNtCsbRuuH6jbcRQ_13rust_jira_mcp4jira6clientNtB6_10JiraClient12delete_label0Ba_
FN:382,_RNCNvMs_NtNtCsbRuuH6jbcRQ_13rust_jira_mcp4jira6clientNtB6_10JiraClient12get_comments0Ba_
FN:537,_RNCNvMs_NtNtCsbRuuH6jbcRQ_13rust_jira_mcp4jira6clientNtB6_10JiraClient12get_statuses0Ba_
FN:358,_RNCNvMs_NtNtCsbRuuH6jbcRQ_13rust_jira_mcp4jira6clientNtB6_10JiraClient12update_issue0Ba_
FN:1241,_RNCNvMs_NtNtCsbRuuH6jbcRQ_13rust_jira_mcp4jira6clientNtB6_10JiraClient12update_label0Ba_
FN:935,_RNCNvMs_NtNtCsbRuuH6jbcRQ_13rust_jira_mcp4jira6clientNtB6_10JiraClient13process_batch0Ba_
FN:317,_RNCNvMs_NtNtCsbRuuH6jbcRQ_13rust_jira_mcp4jira6clientNtB6_10JiraClient13search_issues0Ba_
FN:563,_RNCNvMs_NtNtCsbRuuH6jbcRQ_13rust_jira_mcp4jira6clientNtB6_10JiraClient14get_link_types0Ba_
FN:528,_RNCNvMs_NtNtCsbRuuH6jbcRQ_13rust_jira_mcp4jira6clientNtB6_10JiraClient14get_priorities0Ba_
FN:837,_RNCNvMs_NtNtCsbRuuH6jbcRQ_13rust_jira_mcp4jira6clientNtB6_10JiraClient15delete_work_log0Ba_
FN:572,_RNCNvMs_NtNtCsbRuuH6jbcRQ_13rust_jira_mcp4jira6clientNtB6_10JiraClient15get_issue_links0Ba_
FN:407,_RNCNvMs_NtNtCsbRuuH6jbcRQ_13rust_jira_mcp4jira6clientNtB6_10JiraClient15get_transitions0Ba_
FN:827,_RNCNvMs_NtNtCsbRuuH6jbcRQ_13rust_jira_mcp4jira6clientNtB6_10JiraClient15update_work_log0Ba_
FN:1512,_RNCNvMs_NtNtCsbRuuH6jbcRQ_13rust_jira_mcp4jira6clientNtB6_10JiraClient16build_zephyr_url0Ba_
FN:1516,_RNCNvMs_NtNtCsbRuuH6jbcRQ_13rust_jira_mcp4jira6clientNtB6_10JiraClient16build_zephyr_urls_0Ba_
FN:1267,_RNCNvMs_NtNtCsbRuuH6jbcRQ_13rust_jira_mcp4jira6clientNtB6_10JiraClient16create_component0Ba_
FN:1290,_RNCNvMs_NtNtCsbRuuH6jbcRQ_13rust_jira_mcp4jira6clientNtB6_10JiraClient16delete_component0Ba_
FN:437,_RNCNvMs_NtNtCsbRuuH6jbcRQ_13rust_jira_mcp4jira6clientNtB6_10JiraClient16transition_issue0Ba_
FN:1280,_RNCNvMs_NtNtCsbRuuH6jbcRQ_13rust_jira_mcp4jira6clientNtB6_10JiraClient16update_component0Ba_
FN:1178,_RNCNvMs_NtNtCsbRuuH6jbcRQ_13rust_jira_mcp4jira6clientNtB6_10JiraClient17add_issue_watcher0Ba_
FN:1143,_RNCNvMs_NtNtCsbRuuH6jbcRQ_13rust_jira_mcp4jira6clientNtB6_10JiraClient17bulk_add_comments0Ba_
FN:595,_RNCNvMs_NtNtCsbRuuH6jbcRQ_13rust_jira_mcp4jira6clientNtB6_10JiraClient17create_issue_link0Ba_
FN:735,_RNCNvMs_NtNtCsbRuuH6jbcRQ_13rust_jira_mcp4jira6clientNtB6_10JiraClient17delete_attachment0Ba_
FN:606,_RNCNvMs_NtNtCsbRuuH6jbcRQ_13rust_jira_mcp4jira6clientNtB6_10JiraClient17delete_issue_link0Ba_
FN:546,_RNCNvMs_NtNtCsbRuuH6jbcRQ_13rust_jira_mcp4jira6clientNtB6_10JiraClient17get_custom_fields0Ba_
FN:996,_RNCNvMs_NtNtCsbRuuH6jbcRQ_13rust_jira_mcp4jira6clientNtB6_10JiraClient17perform_operation0Ba_
FN:680,_RNCNvMs_NtNtCsbRuuH6jbcRQ_13rust_jira_mcp4jira6clientNtB6_10JiraClient17upload_attachment0Ba_
FN:1086,_RNCNvMs_NtNtCsbRuuH6jbcRQ_13rust_jira_mcp4jira6clientNtB6_10JiraClient18bulk_update_issues0Ba_
FN:1168,_RNCNvMs_NtNtCsbRuuH6jbcRQ_13rust_jira_mcp4jira6clientNtB6_10JiraClient18get_issue_watchers0Ba_
FN:746,_RNCNvMs_NtNtCsbRuuH6jbcRQ_13rust_jira_mcp4jira6clientNtB6_10JiraClient19download_attachment0Ba_
FN:784,_RNCNvMs_NtNtCsbRuuH6jbcRQ_13rust_jira_mcp4jira6clientNtB6_10JiraClient19get_issue_work_logs0Ba_
FN:853,_RNCNvMs_NtNtCsbRuuH6jbcRQ_13rust_jira_mcp4jira6clientNtB6_10JiraClient20get_project_metadata0Ba_
FN:1192,_RNCNvMs_NtNtCsbRuuH6jbcRQ_13rust_jira_mcp4jira6clientNtB6_10JiraClient20remove_issue_watcher0Ba_
FN:650,_RNCNvMs_NtNtCsbRuuH6jbcRQ_13rust_jira_mcp4jira6clientNtB6_10JiraClient21get_issue_attachments0Ba_
FN:1769,_RNCNvMs_NtNtCsbRuuH6jbcRQ_13rust_jira_mcp4jira6clientNtB6_10JiraClient21get_zephyr_test_plans0Ba_
FN:1552,_RNCNvMs_NtNtCsbRuuH6jbcRQ_13rust_jira_mcp4jira6clientNtB6_10JiraClient21get_zephyr_test_steps0Ba_
FN:1111,_RNCNvMs_NtNtCsbRuuH6jbcRQ_13rust_jira_mcp4jira6clientNtB6_10JiraClient22bulk_transition_issues0Ba_
FN:518,_RNCNvMs_NtNtCsbRuuH6jbcRQ_13rust_jira_mcp4jira6clientNtB6_10JiraClient22get_project_components0Ba_
FN:1728,_RNCNvMs_NtNtCsbRuuH6jbcRQ_13rust_jira_mcp4jira6clientNtB6_10JiraClient22get_zephyr_test_cycles0Ba_
FN:1657,_RNCNvMs_NtNtCsbRuuH6jbcRQ_13rust_jira_mcp4jira6clientNtB6_10JiraClient23create_zephyr_test_case0Ba_
FN:1580,_RNCNvMs_NtNtCsbRuuH6jbcRQ_13rust_jira_mcp4jira6clientNtB6_10JiraClient23create_zephyr_test_step0Ba_
FN:1605,_RNCNvMs_NtNtCsbRuuH6jbcRQ_13rust_jira_mcp4jira6clientNtB6_10JiraClient23delete_zephyr_test_step0Ba_
FN:885,_RNCNvMs_NtNtCsbRuuH6jbcRQ_13rust_jira_mcp4jira6clientNtB6_10JiraClient23execute_bulk_operations0Ba_
FN:505,_RNCNvMs_NtNtCsbRuuH6jbcRQ_13rust_jira_mcp4jira6clientNtB6_10JiraClient23get_issue_type_metadata0Ba_
FN:475,_RNCNvMs_NtNtCsbRuuH6jbcRQ_13rust_jira_mcp4jira6clientNtB6_10JiraClient23get_project_issue_types0Ba_
FN:1595,_RNCNvMs_NtNtCsbRuuH6jbcRQ_13rust_jira_mcp4jira6clientNtB6_10JiraClient23update_zephyr_test_step0Ba_
FN:956,_RNCNvMs_NtNtCsbRuuH6jbcRQ_13rust_jira_mcp4jira6clientNtB6_10JiraClient24execute_single_operation0Ba_
FN:1628,_RNCNvMs_NtNtCsbRuuH6jbcRQ_13rust_jira_mcp4jira6clientNtB6_10JiraClient24search_zephyr_test_cases0Ba_
FN:462,_RNCNvMs_NtNtCsbRuuH6jbcRQ_13rust_jira_mcp4jira6clientNtB6_10JiraClient25get_project_configuration0Ba_
FN:1680,_RNCNvMs_NtNtCsbRuuH6jbcRQ_13rust_jira_mcp4jira6clientNtB6_10JiraClient26get_zephyr_test_executions0Ba_
FN:1708,_RNCNvMs_NtNtCsbRuuH6jbcRQ_13rust_jira_mcp4jira6clientNtB6_10JiraClient28create_zephyr_test_execution0Ba_
FN:249,_RNCNvMs_NtNtCsbRuuH6jbcRQ_13rust_jira_mcp4jira6clientNtB6_10JiraClient9build_url0Ba_
FN:253,_RNCNvMs_NtNtCsbRuuH6jbcRQ_13rust_jira_mcp4jira6clientNtB6_10JiraClient9build_urls_0Ba_
FN:302,_RNCNvMs_NtNtCsbRuuH6jbcRQ_13rust_jira_mcp4jira6clientNtB6_10JiraClient9get_issue0Ba_
FN:45,_RNvMNtNtCsbRuuH6jbcRQ_13rust_jira_mcp4jira6clientNtB2_11RateLimiter14wait_if_needed
FN:34,_RNvMNtNtCsbRuuH6jbcRQ_13rust_jira_mcp4jira6clientNtB2_11RateLimiter3new
FN:1205,_RNvMs_NtNtCsbRuuH6jbcRQ_13rust_jira_mcp4jira6clientNtB4_10JiraClient10get_labels
FN:369,_RNvMs_NtNtCsbRuuH6jbcRQ_13rust_jira_mcp4jira6clientNtB4_10JiraClient11add_comment
FN:95,_RNvMs_NtNtCsbRuuH6jbcRQ_13rust_jira_mcp4jira6clientNtB4_10JiraClient11auth_header
FN:1303,_RNvMs_NtNtCsbRuuH6jbcRQ_13rust_jira_mcp4jira6clientNtB4_10JiraClient11clone_issue
FN:101,_RNvMs_NtNtCsbRuuH6jbcRQ_13rust_jira_mcp4jira6clientNtB4_10JiraClient11http_client
FN:617,_RNvMs_NtNtCsbRuuH6jbcRQ_13rust_jira_mcp4jira6clientNtB4_10JiraClient11link_issues
FN:808,_RNvMs_NtNtCsbRuuH6jbcRQ_13rust_jira_mcp4jira6clientNtB4_10JiraClient12add_work_log
FN:89,_RNvMs_NtNtCsbRuuH6jbcRQ_13rust_jira_mcp4jira6clientNtB4_10JiraClient12api_base_url
FN:345,_RNvMs_NtNtCsbRuuH6jbcRQ_13rust_jira_mcp4jira6clientNtB4_10JiraClient12create_issue
FN:1228,_RNvMs_NtNtCsbRuuH6jbcRQ_13rust_jira_mcp4jira6clientNtB4_10JiraClient12create_label
FN:1251,_RNvMs_NtNtCsbRuuH6jbcRQ_13rust_jira_mcp4jira6clientNtB4_10JiraClient12delete_label
FN:382,_RNvMs_NtNtCsbRuuH6jbcRQ_13rust_jira_mcp4jira6clientNtB4_10JiraClient12get_comments
FN:537,_RNvMs_NtNtCsbRuuH6jbcRQ_13rust_jira_mcp4jira6clientNtB4_10JiraClient12get_statuses
FN:284,_RNvMs_NtNtCsbRuuH6jbcRQ_13rust_jira_mcp4jira6clientNtB4_10JiraClient12should_retry
FN:354,_RNvMs_NtNtCsbRuuH6jbcRQ_13rust_jira_mcp4jira6clientNtB4_10JiraClient12update_issue
FN:1237,_RNvMs_NtNtCsbRuuH6jbcRQ_13rust_jira_mcp4jira6clientNtB4_10JiraClient12update_label
FN:931,_RNvMs_NtNtCsbRuuH6jbcRQ_13rust_jira_mcp4jira6clientNtB4_10JiraClient13process_batch
FN:312,_RNvMs_NtNtCsbRuuH6jbcRQ_13rust_jira_mcp4jira6clientNtB4_10JiraClient13search_issues
FN:563,_RNvMs_NtNtCsbRuuH6jbcRQ_13rust_jira_mcp4jira6clientNtB4_10JiraClient14get_link_types
FN:528,_RNvMs_NtNtCsbRuuH6jbcRQ_13rust_jira_mcp4jira6clientNtB4_10JiraClient14get_priorities
FN:837,_RNvMs_NtNtCsbRuuH6jbcRQ_13rust_jira_mcp4jira6clientNtB4_10JiraClient15delete_work_log
FN:572,_RNvMs_NtNtCsbRuuH6jbcRQ_13rust_jira_mcp4jira6clientNtB4_10JiraClient15get_issue_links
FN:407,_RNvMs_NtNtCsbRuuH6jbcRQ_13rust_jira_mcp4jira6clientNtB4_10JiraClient15get_transitions
FN:822,_RNvMs_NtNtCsbRuuH6jbcRQ_13rust_jira_mcp4jira6clientNtB4_10JiraClient15update_work_log
FN:1510,_RNvMs_NtNtCsbRuuH6jbcRQ_13rust_jira_mcp4jira6clientNtB4_10JiraClient16build_zephyr_url
FN:1264,_RNvMs_NtNtCsbRuuH6jbcRQ_13rust_jira_mcp4jira6clientNtB4_10JiraClient16create_component
FN:1290,_RNvMs_NtNtCsbRuuH6jbcRQ_13rust_jira_mcp4jira6clientNtB4_10JiraClient16delete_component
FN:432,_RNvMs_NtNtCsbRuuH6jbcRQ_13rust_jira_mcp4jira6clientNtB4_10JiraClient16transition_issue
FN:1276,_RNvMs_NtNtCsbRuuH6jbcRQ_13rust_jira_mcp4jira6clientNtB4_10JiraClient16update_component
FN:1178,_RNvMs_NtNtCsbRuuH6jbcRQ_13rust_jira_mcp4jira6clientNtB4_10JiraClient17add_issue_watcher
FN:1138,_RNvMs_NtNtCsbRuuH6jbcRQ_13rust_jira_mcp4jira6clientNtB4_10JiraClient17bulk_add_comments
FN:595,_RNvMs_NtNtCsbRuuH6jbcRQ_13rust_jira_mcp4jira6clientNtB4_10JiraClient17create_issue_link
FN:735,_RNvMs_NtNtCsbRuuH6jbcRQ_13rust_jira_mcp4jira6clientNtB4_10JiraClient17delete_attachment
FN:606,_RNvMs_NtNtCsbRuuH6jbcRQ_13rust_jira_mcp4jira6clientNtB4_10JiraClient17delete_issue_link
FN:546,_RNvMs_NtNtCsbRuuH6jbcRQ_13rust_jira_mcp4jira6clientNtB4_10JiraClient17get_custom_fields
FN:996,_RNvMs_NtNtCsbRuuH6jbcRQ_13rust_jira_mcp4jira6clientNtB4_10JiraClient17perform_operation
FN:674,_RNvMs_NtNtCsbRuuH6jbcRQ_13rust_jira_mcp4jira6clientNtB4_10JiraClient17upload_attachment
FN:1081,_RNvMs_NtNtCsbRuuH6jbcRQ_13rust_jira_mcp4jira6clientNtB4_10JiraClient18bulk_update_issues
FN:1168,_RNvMs_NtNtCsbRuuH6jbcRQ_13rust_jira_mcp4jira6clientNtB4_10JiraClient18get_issue_watchers
FN:746,_RNvMs_NtNtCsbRuuH6jbcRQ_13rust_jira_mcp4jira6clientNtB4_10JiraClient19download_attachment
FN:784,_RNvMs_NtNtCsbRuuH6jbcRQ_13rust_jira_mcp4jira6clientNtB4_10JiraClient19get_issue_work_logs
FN:1359,_RNvMs_NtNtCsbRuuH6jbcRQ_13rust_jira_mcp4jira6clientNtB4_10JiraClient19zephyr_api_base_url
FN:853,_RNvMs_NtNtCsbRuuH6jbcRQ_13rust_jira_mcp4jira6clientNtB4_10JiraClient20get_project_metadata
FN:1192,_RNvMs_NtNtCsbRuuH6jbcRQ_13rust_jira_mcp4jira6clientNtB4_10JiraClient20remove_issue_watcher
FN:650,_RNvMs_NtNtCsbRuuH6jbcRQ_13rust_jira_mcp4jira6clientNtB4_10JiraClient21get_issue_attachments
FN:1769,_RNvMs_NtNtCsbRuuH6jbcRQ_13rust_jira_mcp4jira6clientNtB4_10JiraClient21get_zephyr_test_plans
FN:1552,_RNvMs_NtNtCsbRuuH6jbcRQ_13rust_jira_mcp4jira6clientNtB4_10JiraClient21get_zephyr_test_steps
FN:1105,_RNvMs_NtNtCsbRuuH6jbcRQ_13rust_jira_mcp4jira6clientNtB4_10JiraClient22bulk_transition_issues
FN:515,_RNvMs_NtNtCsbRuuH6jbcRQ_13rust_jira_mcp4jira6clientNtB4_10JiraClient22get_project_components
FN:1728,_RNvMs_NtNtCsbRuuH6jbcRQ_13rust_jira_mcp4jira6clientNtB4_10JiraClient22get_zephyr_test_cycles
FN:1064,_RNvMs_NtNtCsbRuuH6jbcRQ_13rust_jira_mcp4jira6clientNtB4_10JiraClient22should_retry_operation
FN:1654,_RNvMs_NtNtCsbRuuH6jbcRQ_13rust_jira_mcp4jira6clientNtB4_10JiraClient23create_zephyr_test_case
FN:1577,_RNvMs_NtNtCsbRuuH6jbcRQ_13rust_jira_mcp4jira6clientNtB4_10JiraClient23create_zephyr_test_step
FN:1605,_RNvMs_NtNtCsbRuuH6jbcRQ_13rust_jira_mcp4jira6clientNtB4_10JiraClient23delete_zephyr_test_step
FN:881,_RNvMs_NtNtCsbRuuH6jbcRQ_13rust_jira_mcp4jira6clientNtB4_10JiraClient23execute_bulk_operations
FN:502,_RNvMs_NtNtCsbRuuH6jbcRQ_13rust_jira_mcp4jira6clientNtB4_10JiraClient23get_issue_type_metadata
FN:472,_RNvMs_NtNtCsbRuuH6jbcRQ_13rust_jira_mcp4jira6clientNtB4_10JiraClient23get_project_issue_types
FN:1590,_RNvMs_NtNtCsbRuuH6jbcRQ_13rust_jira_mcp4jira6clientNtB4_10JiraClient23update_zephyr_test_step
FN:952,_RNvMs_NtNtCsbRuuH6jbcRQ_13rust_jira_mcp4jira6clientNtB4_10JiraClient24execute_single_operation
FN:1623,_RNvMs_NtNtCsbRuuH6jbcRQ_13rust_jira_mcp4jira6clientNtB4_10JiraClient24search_zephyr_test_cases
FN:462,_RNvMs_NtNtCsbRuuH6jbcRQ_13rust_jira_mcp4jira6clientNtB4_10JiraClient25get_project_configuration
FN:1677,_RNvMs_NtNtCsbRuuH6jbcRQ_13rust_jira_mcp4jira6clientNtB4_10JiraClient26get_zephyr_test_executions
FN:1705,_RNvMs_NtNtCsbRuuH6jbcRQ_13rust_jira_mcp4jira6clientNtB4_10JiraClient28create_zephyr_test_execution
FN:71,_RNvMs_NtNtCsbRuuH6jbcRQ_13rust_jira_mcp4jira6clientNtB4_10JiraClient3new
FN:247,_RNvMs_NtNtCsbRuuH6jbcRQ_13rust_jira_mcp4jira6clientNtB4_10JiraClient9build_url
FN:302,_RNvMs_NtNtCsbRuuH6jbcRQ_13rust_jira_mcp4jira6clientNtB4_10JiraClient9get_issue
FN:1369,_RINvMs_NtNtCs6CcTQqNWjGP_13rust_jira_mcp4jira6clientNtB5_10JiraClient10zephyr_getpEB9_
FN:1396,_RINvMs_NtNtCs6CcTQqNWjGP_13rust_jira_mcp4jira6clientNtB5_10JiraClient10zephyr_putppEB9_
FN:1382,_RINvMs_NtNtCs6CcTQqNWjGP_13rust_jira_mcp4jira6clientNtB5_10JiraClient11zephyr_postppEB9_
FN:257,_RINvMs_NtNtCs6CcTQqNWjGP_13rust_jira_mcp4jira6clientNtB5_10JiraClient13build_requestpEB9_
FN:1409,_RINvMs_NtNtCs6CcTQqNWjGP_13rust_jira_mcp4jira6clientNtB5_10JiraClient13zephyr_deletepEB9_
FN:1422,_RINvMs_NtNtCs6CcTQqNWjGP_13rust_jira_mcp4jira6clientNtB5_10JiraClient14zephyr_requestppEB9_
FN:1520,_RINvMs_NtNtCs6CcTQqNWjGP_13rust_jira_mcp4jira6clientNtB5_10JiraClient20build_zephyr_requestpEB9_
FN:110,_RINvMs_NtNtCs6CcTQqNWjGP_13rust_jira_mcp4jira6clientNtB5_10JiraClient3getpEB9_
FN:135,_RINvMs_NtNtCs6CcTQqNWjGP_13rust_jira_mcp4jira6clientNtB5_10JiraClient3putppEB9_
FN:122,_RINvMs_NtNtCs6CcTQqNWjGP_13rust_jira_mcp4jira6clientNtB5_10JiraClient4postppEB9_
FN:148,_RINvMs_NtNtCs6CcTQqNWjGP_13rust_jira_mcp4jira6clientNtB5_10JiraClient6deletepEB9_
FN:160,_RINvMs_NtNtCs6CcTQqNWjGP_13rust_jira_mcp4jira6clientNtB5_10JiraClient7requestppEB9_
FN:1372,_RNCINvMs_NtNtCs6CcTQqNWjGP_13rust_jira_mcp4jira6clientNtB7_10JiraClient10zephyr_getpE0Bb_
FN:1400,_RNCINvMs_NtNtCs6CcTQqNWjGP_13rust_jira_mcp4jira6clientNtB7_10JiraClient10zephyr_putppE0Bb_
FN:1386,_RNCINvMs_NtNtCs6CcTQqNWjGP_13rust_jira_mcp4jira6clientNtB7_10JiraClient11zephyr_postppE0Bb_
FN:1412,_RNCINvMs_NtNtCs6CcTQqNWjGP_13rust_jira_mcp4jira6clientNtB7_10JiraClient13zephyr_deletepE0Bb_
FN:1431,_RNCINvMs_NtNtCs6CcTQqNWjGP_13rust_jira_mcp4jira6clientNtB7_10JiraClient14zephyr_requestppE0Bb_
FN:113,_RNCINvMs_NtNtCs6CcTQqNWjGP_13rust_jira_mcp4jira6clientNtB7_10JiraClient3getpE0Bb_
FN:139,_RNCINvMs_NtNtCs6CcTQqNWjGP_13rust_jira_mcp4jira6clientNtB7_10JiraClient3putppE0Bb_
FN:126,_RNCINvMs_NtNtCs6CcTQqNWjGP_13rust_jira_mcp4jira6clientNtB7_10JiraClient4postppE0Bb_
FN:151,_RNCINvMs_NtNtCs6CcTQqNWjGP_13rust_jira_mcp4jira6clientNtB7_10JiraClient6deletepE0Bb_
FN:164,_RNCINvMs_NtNtCs6CcTQqNWjGP_13rust_jira_mcp4jira6clientNtB7_10JiraClient7requestppE0Bb_
FN:1455,_RNCNCINvMs_NtNtCs6CcTQqNWjGP_13rust_jira_mcp4jira6clientNtB9_10JiraClient14zephyr_requestppE00Bd_
FN:1467,_RNCNCINvMs_NtNtCs6CcTQqNWjGP_13rust_jira_mcp4jira6clientNtB9_10JiraClient14zephyr_requestppE0s_0Bd_
FN:190,_RNCNCINvMs_NtNtCs6CcTQqNWjGP_13rust_jira_mcp4jira6clientNtB9_10JiraClient7requestppE00Bd_
FN:202,_RNCNCINvMs_NtNtCs6CcTQqNWjGP_13rust_jira_mcp4jira6clientNtB9_10JiraClient7requestppE0s_0Bd_
FN:1211,_RNCNCNvMs_NtNtCs6CcTQqNWjGP_13rust_jira_mcp4jira6clientNtB8_10JiraClient10get_labels00Bc_
FN:635,_RNCNCNvMs_NtNtCs6CcTQqNWjGP_13rust_jira_mcp4jira6clientNtB8_10JiraClient11link_issues00Bc_
FN:389,_RNCNCNvMs_NtNtCs6CcTQqNWjGP_13rust_jira_mcp4jira6clientNtB8_10JiraClient12get_comments00Bc_
FN:390,_RNCNCNvMs_NtNtCs6CcTQqNWjGP_13rust_jira_mcp4jira6clientNtB8_10JiraClient12get_comments0s_0Bc_
FN:332,_RNCNCNvMs_NtNtCs6CcTQqNWjGP_13rust_jira_mcp4jira6clientNtB8_10JiraClient13search_issues00Bc_
FN:578,_RNCNCNvMs_NtNtCs6CcTQqNWjGP_13rust_jira_mcp4jira6clientNtB8_10JiraClient15get_issue_links00Bc_
FN:414,_RNCNCNvMs_NtNtCs6CcTQqNWjGP_13rust_jira_mcp4jira6clientNtB8_10JiraClient15get_transitions00Bc_
FN:415,_RNCNCNvMs_NtNtCs6CcTQqNWjGP_13rust_jira_mcp4jira6clientNtB8_10JiraClient15get_transitions0s_0Bc_
FN:1152,_RNCNCNvMs_NtNtCs6CcTQqNWjGP_13rust_jira_mcp4jira6clientNtB8_10JiraClient17bulk_add_comments00Bc_
FN:552,_RNCNCNvMs_NtNtCs6CcTQqNWjGP_13rust_jira_mcp4jira6clientNtB8_10JiraClient17get_custom_fields00Bc_
FN:1006,_RNCNCNvMs_NtNtCs6CcTQqNWjGP_13rust_jira_mcp4jira6clientNtB8_10JiraClient17perform_operation00Bc_
FN:1010,_RNCNCNvMs_NtNtCs6CcTQqNWjGP_13rust_jira_mcp4jira6clientNtB8_10JiraClient17perform_operation0s0_0Bc_
FN:1018,_RNCNCNvMs_NtNtCs6CcTQqNWjGP_13rust_jira_mcp4jira6clientNtB8_10JiraClient17perform_operation0s1_0Bc_
FN:1019,_RNCNCNvMs_NtNtCs6CcTQqNWjGP_13rust_jira_mcp4jira6clientNtB8_10JiraClient17perform_operation0s2_0Bc_
FN:1036,_RNCNCNvMs_NtNtCs6CcTQqNWjGP_13rust_jira_mcp4jira6clientNtB8_10JiraClient17perform_operation0s3_0Bc_
FN:1037,_RNCNCNvMs_NtNtCs6CcTQqNWjGP_13rust_jira_mcp4jira6clientNtB8_10JiraClient17perform_operation0s4_0Bc_
FN:1040,_RNCNCNvMs_NtNtCs6CcTQqNWjGP_13rust_jira_mcp4jira6clientNtB8_10JiraClient17perform_operation0s5_0Bc_
FN:1048,_RNCNCNvMs_NtNtCs6CcTQqNWjGP_13rust_jira_mcp4jira6clientNtB8_10JiraClient17perform_operation0s6_0Bc_
FN:1049,_RNCNCNvMs_NtNtCs6CcTQqNWjGP_13rust_jira_mcp4jira6clientNtB8_10JiraClient17perform_operation0s7_0Bc_
FN:1007,_RNCNCNvMs_NtNtCs6CcTQqNWjGP_13rust_jira_mcp4jira6clientNtB8_10JiraClient17perform_operation0s_0Bc_
FN:724,_RNCNCNvMs_NtNtCs6CcTQqNWjGP_13rust_jira_mcp4jira6clientNtB8_10JiraClient17upload_attachment00Bc_
FN:1091,_RNCNCNvMs_NtNtCs6CcTQqNWjGP_13rust_jira_mcp4jira6clientNtB8_10JiraClient18bulk_update_issues00Bc_
FN:771,_RNCNCNvMs_NtNtCs6CcTQqNWjGP_13rust_jira_mcp4jira6clientNtB8_10JiraClient19download_attachment00Bc_
FN:790,_RNCNCNvMs_NtNtCs6CcTQqNWjGP_13rust_jira_mcp4jira6clientNtB8_10JiraClient19get_issue_work_logs00Bc_
FN:791,_RNCNCNvMs_NtNtCs6CcTQqNWjGP_13rust_jira_mcp4jira6clientNtB8_10JiraClient19get_issue_work_logs0s_0Bc_
FN:656,_RNCNCNvMs_NtNtCs6CcTQqNWjGP_13rust_jira_mcp4jira6clientNtB8_10JiraClient21get_issue_attachments00Bc_
FN:657,_RNCNCNvMs_NtNtCs6CcTQqNWjGP_13rust_jira_mcp4jira6clientNtB8_10JiraClient21get_issue_attachments0s_0Bc_
FN:1776,_RNCNCNvMs_NtNtCs6CcTQqNWjGP_13rust_jira_mcp4jira6clientNtB8_10JiraClient21get_zephyr_test_plans00Bc_
FN:1777,_RNCNCNvMs_NtNtCs6CcTQqNWjGP_13rust_jira_mcp4jira6clientNtB8_10JiraClient21get_zephyr_test_plans0s_0Bc_
FN:1559,_RNCNCNvMs_NtNtCs6CcTQqNWjGP_13rust_jira_mcp4jira6clientNtB8_10JiraClient21get_zephyr_test_steps00Bc_
FN:1560,_RNCNCNvMs_NtNtCs6CcTQqNWjGP_13rust_jira_mcp4jira6clientNtB8_10JiraClient21get_zephyr_test_steps0s_0Bc_
FN:1124,_RNCNCNvMs_NtNtCs6CcTQqNWjGP_13rust_jira_mcp4jira6clientNtB8_10JiraClient22bulk_transition_issues00Bc_
FN:1735,_RNCNCNvMs_NtNtCs6CcTQqNWjGP_13rust_jira_mcp4jira6clientNtB8_10JiraClient22get_zephyr_test_cycles00Bc_
FN:1736,_RNCNCNvMs_NtNtCs6CcTQqNWjGP_13rust_jira_mcp4jira6clientNtB8_10JiraClient22get_zephyr_test_cycles0s_0Bc_
FN:481,_RNCNCNvMs_NtNtCs6CcTQqNWjGP_13rust_jira_mcp4jira6clientNtB8_10JiraClient23get_project_issue_types00Bc_
FN:482,_RNCNCNvMs_NtNtCs6CcTQqNWjGP_13rust_jira_mcp4jira6clientNtB8_10JiraClient23get_project_issue_types0s_0Bc_
FN:1641,_RNCNCNvMs_NtNtCs6CcTQqNWjGP_13rust_jira_mcp4jira6clientNtB8_10JiraClient24search_zephyr_test_cases00Bc_
FN:1687,_RNCNCNvMs_NtNtCs6CcTQqNWjGP_13rust_jira_mcp4jira6clientNtB8_10JiraClient26get_zephyr_test_executions00Bc_
FN:1688,_RNCNCNvMs_NtNtCs6CcTQqNWjGP_13rust_jira_mcp4jira6clientNtB8_10JiraClient26get_zephyr_test_executions0s_0Bc_
FN:45,_RNCNvMNtNtCs6CcTQqNWjGP_13rust_jira_mcp4jira6clientNtB4_11RateLimiter14wait_if_needed0B8_
FN:1205,_RNCNvMs_NtNtCs6CcTQqNWjGP_13rust_jira_mcp4jira6clientNtB6_10JiraClient10get_labels0Ba_
FN:369,_RNCNvMs_NtNtCs6CcTQqNWjGP_13rust_jira_mcp4jira6clientNtB6_10JiraClient11add_comment0Ba_
FN:1307,_RNCNvMs_NtNtCs6CcTQqNWjGP_13rust_jira_mcp4jira6clientNtB6_10JiraClient11clone_issue0Ba_
FN:623,_RNCNvMs_NtNtCs6CcTQqNWjGP_13rust_jira_mcp4jira6clientNtB6_10JiraClient11link_issues0Ba_
FN:812,_RNCNvMs_NtNtCs6CcTQqNWjGP_13rust_jira_mcp4jira6clientNtB6_10JiraClient12add_work_log0Ba_
FN:345,_RNCNvMs_NtNtCs6CcTQqNWjGP_13rust_jira_mcp4jira6clientNtB6_10JiraClient12create_issue0Ba_
FN:1228,_RNCNvMs_NtNtCs6CcTQqNWjGP_13rust_jira_mcp4jira6clientNtB6_10JiraClient12create_label0Ba_
FN:1251,_RNCNvMs_NtNtCs6CcTQqNWjGP_13rust_jira_mcp4jira6clientNtB6_10JiraClient12delete_label0Ba_
FN:382,_RNCNvMs_NtNtCs6CcTQqNWjGP_13rust_jira_mcp4jira6clientNtB6_10JiraClient12get_comments0Ba_
FN:537,_RNCNvMs_NtNtCs6CcTQqNWjGP_13rust_jira_mcp4jira6clientNtB6_10JiraClient12get_statuses0Ba_
FN:358,_RNCNvMs_NtNtCs6CcTQqNWjGP_13rust_jira_mcp4jira6clientNtB6_10JiraClient12update_issue0Ba_
FN:1241,_RNCNvMs_NtNtCs6CcTQqNWjGP_13rust_jira_mcp4jira6clientNtB6_10JiraClient12update_label0Ba_
FN:935,_RNCNvMs_NtNtCs6CcTQqNWjGP_13rust_jira_mcp4jira6clientNtB6_10JiraClient13process_batch0Ba_
FN:317,_RNCNvMs_NtNtCs6CcTQqNWjGP_13rust_jira_mcp4jira6clientNtB6_10JiraClient13search_issues0Ba_
FN:563,_RNCNvMs_NtNtCs6CcTQqNWjGP_13rust_jira_mcp4jira6clientNtB6_10JiraClient14get_link_types0Ba_
FN:528,_RNCNvMs_NtNtCs6CcTQqNWjGP_13rust_jira_mcp4jira6clientNtB6_10JiraClient14get_priorities0Ba_
FN:837,_RNCNvMs_NtNtCs6CcTQqNWjGP_13rust_jira_mcp4jira6clientNtB6_10JiraClient15delete_work_log0Ba_
FN:572,_RNCNvMs_NtNtCs6CcTQqNWjGP_13rust_jira_mcp4jira6clientNtB6_10JiraClient15get_issue_links0Ba_
FN:407,_RNCNvMs_NtNtCs6CcTQqNWjGP_13rust_jira_mcp4jira6clientNtB6_10JiraClient15get_transitions0Ba_
FN:827,_RNCNvMs_NtNtCs6CcTQqNWjGP_13rust_jira_mcp4jira6clientNtB6_10JiraClient15update_work_log0Ba_
FN:1512,_RNCNvMs_NtNtCs6CcTQqNWjGP_13rust_jira_mcp4jira6clientNtB6_10JiraClient16build_zephyr_url0Ba_
FN:1516,_RNCNvMs_NtNtCs6CcTQqNWjGP_13rust_jira_mcp4jira6clientNtB6_10JiraClient16build_zephyr_urls_0Ba_
FN:1267,_RNCNvMs_NtNtCs6CcTQqNWjGP_13rust_jira_mcp4jira6clientNtB6_10JiraClient16create_component0Ba_
FN:1290,_RNCNvMs_NtNtCs6CcTQqNWjGP_13rust_jira_mcp4jira6clientNtB6_10JiraClient16delete_component0Ba_
FN:437,_RNCNvMs_NtNtCs6CcTQqNWjGP_13rust_jira_mcp4jira6clientNtB6_10JiraClient16transition_issue0Ba_
FN:1280,_RNCNvMs_NtNtCs6CcTQqNWjGP_13rust_jira_mcp4jira6clientNtB6_10JiraClient16update_component0Ba_
FN:1178,_RNCNvMs_NtNtCs6CcTQqNWjGP_13rust_jira_mcp4jira6clientNtB6_10JiraClient17add_issue_watcher0Ba_
FN:1143,_RNCNvMs_NtNtCs6CcTQqNWjGP_13rust_jira_mcp4jira6clientNtB6_10JiraClient17bulk_add_comments0Ba_
FN:595,_RNCNvMs_NtNtCs6CcTQqNWjGP_13rust_jira_mcp4jira6clientNtB6_10JiraClient17create_issue_link0Ba_
FN:735,_RNCNvMs_NtNtCs6CcTQqNWjGP_13rust_jira_mcp4jira6clientNtB6_10JiraClient17delete_attachment0Ba_
FN:606,_RNCNvMs_NtNtCs6CcTQqNWjGP_13rust_jira_mcp4jira6clientNtB6_10JiraClient17delete_issue_link0Ba_
FN:546,_RNCNvMs_NtNtCs6CcTQqNWjGP_13rust_jira_mcp4jira6clientNtB6_10JiraClient17get_custom_fields0Ba_
FN:996,_RNCNvMs_NtNtCs6CcTQqNWjGP_13rust_jira_mcp4jira6clientNtB6_10JiraClient17perform_operation0Ba_
FN:680,_RNCNvMs_NtNtCs6CcTQqNWjGP_13rust_jira_mcp4jira6clientNtB6_10JiraClient17upload_attachment0Ba_
FN:1086,_RNCNvMs_NtNtCs6CcTQqNWjGP_13rust_jira_mcp4jira6clientNtB6_10JiraClient18bulk_update_issues0Ba_
FN:1168,_RNCNvMs_NtNtCs6CcTQqNWjGP_13rust_jira_mcp4jira6clientNtB6_10JiraClient18get_issue_watchers0Ba_
FN:746,_RNCNvMs_NtNtCs6CcTQqNWjGP_13rust_jira_mcp4jira6clientNtB6_10JiraClient19download_attachment0Ba_
FN:784,_RNCNvMs_NtNtCs6CcTQqNWjGP_13rust_jira_mcp4jira6clientNtB6_10JiraClient19get_issue_work_logs0Ba_
FN:853,_RNCNvMs_NtNtCs6CcTQqNWjGP_13rust_jira_mcp4jira6clientNtB6_10JiraClient20get_project_metadata0Ba_
FN:1192,_RNCNvMs_NtNtCs6CcTQqNWjGP_13rust_jira_mcp4jira6clientNtB6_10JiraClient20remove_issue_watcher0Ba_
FN:650,_RNCNvMs_NtNtCs6CcTQqNWjGP_13rust_jira_mcp4jira6clientNtB6_10JiraClient21get_issue_attachments0Ba_
FN:1769,_RNCNvMs_NtNtCs6CcTQqNWjGP_13rust_jira_mcp4jira6clientNtB6_10JiraClient21get_zephyr_test_plans0Ba_
FN:1552,_RNCNvMs_NtNtCs6CcTQqNWjGP_13rust_jira_mcp4jira6clientNtB6_10JiraClient21get_zephyr_test_steps0Ba_
FN:1111,_RNCNvMs_NtNtCs6CcTQqNWjGP_13rust_jira_mcp4jira6clientNtB6_10JiraClient22bulk_transition_issues0Ba_
FN:518,_RNCNvMs_NtNtCs6CcTQqNWjGP_13rust_jira_mcp4jira6clientNtB6_10JiraClient22get_project_components0Ba_
FN:1728,_RNCNvMs_NtNtCs6CcTQqNWjGP_13rust_jira_mcp4jira6clientNtB6_10JiraClient22get_zephyr_test_cycles0Ba_
FN:1657,_RNCNvMs_NtNtCs6CcTQqNWjGP_13rust_jira_mcp4jira6clientNtB6_10JiraClient23create_zephyr_test_case0Ba_
FN:1580,_RNCNvMs_NtNtCs6CcTQqNWjGP_13rust_jira_mcp4jira6clientNtB6_10JiraClient23create_zephyr_test_step0Ba_
FN:1605,_RNCNvMs_NtNtCs6CcTQqNWjGP_13rust_jira_mcp4jira6clientNtB6_10JiraClient23delete_zephyr_test_step0Ba_
FN:885,_RNCNvMs_NtNtCs6CcTQqNWjGP_13rust_jira_mcp4jira6clientNtB6_10JiraClient23execute_bulk_operations0Ba_
FN:505,_RNCNvMs_NtNtCs6CcTQqNWjGP_13rust_jira_mcp4jira6clientNtB6_10JiraClient23get_issue_type_metadata0Ba_
FN:475,_RNCNvMs_NtNtCs6CcTQqNWjGP_13rust_jira_mcp4jira6clientNtB6_10JiraClient23get_project_issue_types0Ba_
FN:1595,_RNCNvMs_NtNtCs6CcTQqNWjGP_13rust_jira_mcp4jira6clientNtB6_10JiraClient23update_zephyr_test_step0Ba_
FN:956,_RNCNvMs_NtNtCs6CcTQqNWjGP_13rust_jira_mcp4jira6clientNtB6_10JiraClient24execute_single_operation0Ba_
FN:1628,_RNCNvMs_NtNtCs6CcTQqNWjGP_13rust_jira_mcp4jira6clientNtB6_10JiraClient24search_zephyr_test_cases0Ba_
FN:462,_RNCNvMs_NtNtCs6CcTQqNWjGP_13rust_jira_mcp4jira6clientNtB6_10JiraClient25get_project_configuration0Ba_
FN:1680,_RNCNvMs_NtNtCs6CcTQqNWjGP_13rust_jira_mcp4jira6clientNtB6_10JiraClient26get_zephyr_test_executions0Ba_
FN:1708,_RNCNvMs_NtNtCs6CcTQqNWjGP_13rust_jira_mcp4jira6clientNtB6_10JiraClient28create_zephyr_test_execution0Ba_
FN:249,_RNCNvMs_NtNtCs6CcTQqNWjGP_13rust_jira_mcp4jira6clientNtB6_10JiraClient9build_url0Ba_
FN:253,_RNCNvMs_NtNtCs6CcTQqNWjGP_13rust_jira_mcp4jira6clientNtB6_10JiraClient9build_urls_0Ba_
FN:302,_RNCNvMs_NtNtCs6CcTQqNWjGP_13rust_jira_mcp4jira6clientNtB6_10JiraClient9get_issue0Ba_
FN:45,_RNvMNtNtCs6CcTQqNWjGP_13rust_jira_mcp4jira6clientNtB2_11RateLimiter14wait_if_needed
FN:34,_RNvMNtNtCs6CcTQqNWjGP_13rust_jira_mcp4jira6clientNtB2_11RateLimiter3new
FN:1205,_RNvMs_NtNtCs6CcTQqNWjGP_13rust_jira_mcp4jira6clientNtB4_10JiraClient10get_labels
FN:369,_RNvMs_NtNtCs6CcTQqNWjGP_13rust_jira_mcp4jira6clientNtB4_10JiraClient11add_comment
FN:95,_RNvMs_NtNtCs6CcTQqNWjGP_13rust_jira_mcp4jira6clientNtB4_10JiraClient11auth_header
FN:1303,_RNvMs_NtNtCs6CcTQqNWjGP_13rust_jira_mcp4jira6clientNtB4_10JiraClient11clone_issue
FN:101,_RNvMs_NtNtCs6CcTQqNWjGP_13rust_jira_mcp4jira6clientNtB4_10JiraClient11http_client
FN:617,_RNvMs_NtNtCs6CcTQqNWjGP_13rust_jira_mcp4jira6clientNtB4_10JiraClient11link_issues
FN:808,_RNvMs_NtNtCs6CcTQqNWjGP_13rust_jira_mcp4jira6clientNtB4_10JiraClient12add_work_log
FN:89,_RNvMs_NtNtCs6CcTQqNWjGP_13rust_jira_mcp4jira6clientNtB4_10JiraClient12api_base_url
FN:345,_RNvMs_NtNtCs6CcTQqNWjGP_13rust_jira_mcp4jira6clientNtB4_10JiraClient12create_issue
FN:1228,_RNvMs_NtNtCs6CcTQqNWjGP_13rust_jira_mcp4jira6clientNtB4_10JiraClient12create_label
FN:1251,_RNvMs_NtNtCs6CcTQqNWjGP_13rust_jira_mcp4jira6clientNtB4_10JiraClient12delete_label
FN:382,_RNvMs_NtNtCs6CcTQqNWjGP_13rust_jira_mcp4jira6clientNtB4_10JiraClient12get_comments
FN:537,_RNvMs_NtNtCs6CcTQqNWjGP_13rust_jira_mcp4jira6clientNtB4_10JiraClient12get_statuses
FN:284,_RNvMs_NtNtCs6CcTQqNWjGP_13rust_jira_mcp4jira6clientNtB4_10JiraClient12should_retry
FN:354,_RNvMs_NtNtCs6CcTQqNWjGP_13rust_jira_mcp4jira6clientNtB4_10JiraClient12update_issue
FN:1237,_RNvMs_NtNtCs6CcTQqNWjGP_13rust_jira_mcp4jira6clientNtB4_10JiraClient12update_label
FN:931,_RNvMs_NtNtCs6CcTQqNWjGP_13rust_jira_mcp4jira6clientNtB4_10JiraClient13process_batch
FN:312,_RNvMs_NtNtCs6CcTQqNWjGP_13rust_jira_mcp4jira6clientNtB4_10JiraClient13search_issues
FN:563,_RNvMs_NtNtCs6CcTQqNWjGP_13rust_jira_mcp4jira6clientNtB4_10JiraClient14get_link_types
FN:528,_RNvMs_NtNtCs6CcTQqNWjGP_13rust_jira_mcp4jira6clientNtB4_10JiraClient14get_priorities
FN:837,_RNvMs_NtNtCs6CcTQqNWjGP_13rust_jira_mcp4jira6clientNtB4_10JiraClient15delete_work_log
FN:572,_RNvMs_NtNtCs6CcTQqNWjGP_13rust_jira_mcp4jira6clientNtB4_10JiraClient15get_issue_links
FN:407,_RNvMs_NtNtCs6CcTQqNWjGP_13rust_jira_mcp4jira6clientNtB4_10JiraClient15get_transitions
FN:822,_RNvMs_NtNtCs6CcTQqNWjGP_13rust_jira_mcp4jira6clientNtB4_10JiraClient15update_work_log
FN:1510,_RNvMs_NtNtCs6CcTQqNWjGP_13rust_jira_mcp4jira6clientNtB4_10JiraClient16build_zephyr_url
FN:1264,_RNvMs_NtNtCs6CcTQqNWjGP_13rust_jira_mcp4jira6clientNtB4_10JiraClient16create_component
FN:1290,_RNvMs_NtNtCs6CcTQqNWjGP_13rust_jira_mcp4jira6clientNtB4_10JiraClient16delete_component
FN:432,_RNvMs_NtNtCs6CcTQqNWjGP_13rust_jira_mcp4jira6clientNtB4_10JiraClient16transition_issue
FN:1276,_RNvMs_NtNtCs6CcTQqNWjGP_13rust_jira_mcp4jira6clientNtB4_10JiraClient16update_component
FN:1178,_RNvMs_NtNtCs6CcTQqNWjGP_13rust_jira_mcp4jira6clientNtB4_10JiraClient17add_issue_watcher
FN:1138,_RNvMs_NtNtCs6CcTQqNWjGP_13rust_jira_mcp4jira6clientNtB4_10JiraClient17bulk_add_comments
FN:595,_RNvMs_NtNtCs6CcTQqNWjGP_13rust_jira_mcp4jira6clientNtB4_10JiraClient17create_issue_link
FN:735,_RNvMs_NtNtCs6CcTQqNWjGP_13rust_jira_mcp4jira6clientNtB4_10JiraClient17delete_attachment
FN:606,_RNvMs_NtNtCs6CcTQqNWjGP_13rust_jira_mcp4jira6clientNtB4_10JiraClient17delete_issue_link
FN:546,_RNvMs_NtNtCs6CcTQqNWjGP_13rust_jira_mcp4jira6clientNtB4_10JiraClient17get_custom_fields
FN:996,_RNvMs_NtNtCs6CcTQqNWjGP_13rust_jira_mcp4jira6clientNtB4_10JiraClient17perform_operation
FN:674,_RNvMs_NtNtCs6CcTQqNWjGP_13rust_jira_mcp4jira6clientNtB4_10JiraClient17upload_attachment
FN:1081,_RNvMs_NtNtCs6CcTQqNWjGP_13rust_jira_mcp4jira6clientNtB4_10JiraClient18bulk_update_issues
FN:1168,_RNvMs_NtNtCs6CcTQqNWjGP_13rust_jira_mcp4jira6clientNtB4_10JiraClient18get_issue_watchers
FN:746,_RNvMs_NtNtCs6CcTQqNWjGP_13rust_jira_mcp4jira6clientNtB4_10JiraClient19download_attachment
FN:784,_RNvMs_NtNtCs6CcTQqNWjGP_13rust_jira_mcp4jira6clientNtB4_10JiraClient19get_issue_work_logs
FN:1359,_RNvMs_NtNtCs6CcTQqNWjGP_13rust_jira_mcp4jira6clientNtB4_10JiraClient19zephyr_api_base_url
FN:853,_RNvMs_NtNtCs6CcTQqNWjGP_13rust_jira_mcp4jira6clientNtB4_10JiraClient20get_project_metadata
FN:1192,_RNvMs_NtNtCs6CcTQqNWjGP_13rust_jira_mcp4jira6clientNtB4_10JiraClient20remove_issue_watcher
FN:650,_RNvMs_NtNtCs6CcTQqNWjGP_13rust_jira_mcp4jira6clientNtB4_10JiraClient21get_issue_attachments
FN:1769,_RNvMs_NtNtCs6CcTQqNWjGP_13rust_jira_mcp4jira6clientNtB4_10JiraClient21get_zephyr_test_plans
FN:1552,_RNvMs_NtNtCs6CcTQqNWjGP_13rust_jira_mcp4jira6clientNtB4_10JiraClient21get_zephyr_test_steps
FN:1105,_RNvMs_NtNtCs6CcTQqNWjGP_13rust_jira_mcp4jira6clientNtB4_10JiraClient22bulk_transition_issues
FN:515,_RNvMs_NtNtCs6CcTQqNWjGP_13rust_jira_mcp4jira6clientNtB4_10JiraClient22get_project_components
FN:1728,_RNvMs_NtNtCs6CcTQqNWjGP_13rust_jira_mcp4jira6clientNtB4_10JiraClient22get_zephyr_test_cycles
FN:1064,_RNvMs_NtNtCs6CcTQqNWjGP_13rust_jira_mcp4jira6clientNtB4_10JiraClient22should_retry_operation
FN:1654,_RNvMs_NtNtCs6CcTQqNWjGP_13rust_jira_mcp4jira6clientNtB4_10JiraClient23create_zephyr_test_case
FN:1577,_RNvMs_NtNtCs6CcTQqNWjGP_13rust_jira_mcp4jira6clientNtB4_10JiraClient23create_zephyr_test_step
FN:1605,_RNvMs_NtNtCs6CcTQqNWjGP_13rust_jira_mcp4jira6clientNtB4_10JiraClient23delete_zephyr_test_step
FN:881,_RNvMs_NtNtCs6CcTQqNWjGP_13rust_jira_mcp4jira6clientNtB4_10JiraClient23execute_bulk_operations
FN:502,_RNvMs_NtNtCs6CcTQqNWjGP_13rust_jira_mcp4jira6clientNtB4_10JiraClient23get_issue_type_metadata
FN:472,_RNvMs_NtNtCs6CcTQqNWjGP_13rust_jira_mcp4jira6clientNtB4_10JiraClient23get_project_issue_types
FN:1590,_RNvMs_NtNtCs6CcTQqNWjGP_13rust_jira_mcp4jira6clientNtB4_10JiraClient23update_zephyr_test_step
FN:952,_RNvMs_NtNtCs6CcTQqNWjGP_13rust_jira_mcp4jira6clientNtB4_10JiraClient24execute_single_operation
FN:1623,_RNvMs_NtNtCs6CcTQqNWjGP_13rust_jira_mcp4jira6clientNtB4_10JiraClient24search_zephyr_test_cases
FN:462,_RNvMs_NtNtCs6CcTQqNWjGP_13rust_jira_mcp4jira6clientNtB4_10JiraClient25get_project_configuration
FN:1677,_RNvMs_NtNtCs6CcTQqNWjGP_13rust_jira_mcp4jira6clientNtB4_10JiraClient26get_zephyr_test_executions
FN:1705,_RNvMs_NtNtCs6CcTQqNWjGP_13rust_jira_mcp4jira6clientNtB4_10JiraClient28create_zephyr_test_execution
FN:71,_RNvMs_NtNtCs6CcTQqNWjGP_13rust_jira_mcp4jira6clientNtB4_10JiraClient3new
FN:247,_RNvMs_NtNtCs6CcTQqNWjGP_13rust_jira_mcp4jira6clientNtB4_10JiraClient9build_url
FN:302,_RNvMs_NtNtCs6CcTQqNWjGP_13rust_jira_mcp4jira6clientNtB4_10JiraClient9get_issue
FNDA:2,_RINvMs_NtNtCskhkPsqpzxNu_13rust_jira_mcp4jira6clientNtB5_10JiraClient10zephyr_getNtNtCslJRJgdvPEaJ_10serde_json5value5ValueEB9_
FNDA:3,_RINvMs_NtNtCskhkPsqpzxNu_13rust_jira_mcp4jira6clientNtB5_10JiraClient10zephyr_getNtNtNtB9_5types4jira26ZephyrTestCaseSearchResultEB9_
FNDA:0,_RINvMs_NtNtCskhkPsqpzxNu_13rust_jira_mcp4jira6clientNtB5_10JiraClient10zephyr_putNtNtNtB9_5types4jira14ZephyrTestStepNtB1j_27ZephyrTestStepUpdateRequestEB9_
FNDA:2,_RINvMs_NtNtCskhkPsqpzxNu_13rust_jira_mcp4jira6clientNtB5_10JiraClient11zephyr_postNtNtNtB9_5types4jira14ZephyrTestCaseNtB1k_27ZephyrTestCaseCreateRequestEB9_
FNDA:1,_RINvMs_NtNtCskhkPsqpzxNu_13rust_jira_mcp4jira6clientNtB5_10JiraClient11zephyr_postNtNtNtB9_5types4jira14ZephyrTestStepNtB1k_27ZephyrTestStepCreateRequestEB9_
FNDA:0,_RINvMs_NtNtCskhkPsqpzxNu_13rust_jira_mcp4jira6clientNtB5_10JiraClient11zephyr_postNtNtNtB9_5types4jira19ZephyrTestExecutionNtB1k_32ZephyrTestExecutionCreateRequestEB9_
FNDA:24,_RINvMs_NtNtCskhkPsqpzxNu_13rust_jira_mcp4jira6clientNtB5_10JiraClient13build_requestNtNtCslJRJgdvPEaJ_10serde_json5value5ValueEB9_
FNDA:1,_RINvMs_NtNtCskhkPsqpzxNu_13rust_jira_mcp4jira6clientNtB5_10JiraClient13build_requestNtNtNtB9_5types4jira22JiraLabelCreateRequestEB9_
FNDA:0,_RINvMs_NtNtCskhkPsqpzxNu_13rust_jira_mcp4jira6clientNtB5_10JiraClient13build_requestNtNtNtB9_5types4jira22JiraLabelUpdateRequestEB9_
FNDA:1,_RINvMs_NtNtCskhkPsqpzxNu_13rust_jira_mcp4jira6clientNtB5_10JiraClient13build_requestNtNtNtB9_5types4jira24JiraWorkLogCreateRequestEB9_
FNDA:0,_RINvMs_NtNtCskhkPsqpzxNu_13rust_jira_mcp4jira6clientNtB5_10JiraClient13build_requestNtNtNtB9_5types4jira24JiraWorkLogUpdateRequestEB9_
FNDA:0,_RINvMs_NtNtCskhkPsqpzxNu_13rust_jira_mcp4jira6clientNtB5_10JiraClient13build_requestNtNtNtB9_5types4jira26JiraComponentCreateRequestEB9_
FNDA:1,_RINvMs_NtNtCskhkPsqpzxNu_13rust_jira_mcp4jira6clientNtB5_10JiraClient13build_requestNtNtNtB9_5types4jira26JiraComponentUpdateRequestEB9_
FNDA:2,_RINvMs_NtNtCskhkPsqpzxNu_13rust_jira_mcp4jira6clientNtB5_10JiraClient13build_requestNtNtNtB9_5types4jira26JiraIssueLinkCreateRequestEB9_
FNDA:34,_RINvMs_NtNtCskhkPsqpzxNu_13rust_jira_mcp4jira6clientNtB5_10JiraClient13build_requestuEB9_
FNDA:1,_RINvMs_NtNtCskhkPsqpzxNu_13rust_jira_mcp4jira6clientNtB5_10JiraClient13zephyr_deleteNtNtCslJRJgdvPEaJ_10serde_json5value5ValueEB9_
FNDA:3,_RINvMs_NtNtCskhkPsqpzxNu_13rust_jira_mcp4jira6clientNtB5_10JiraClient14zephyr_requestNtNtCslJRJgdvPEaJ_10serde_json5value5ValueuEB9_
FNDA:2,_RINvMs_NtNtCskhkPsqpzxNu_13rust_jira_mcp4jira6clientNtB5_10JiraClient14zephyr_requestNtNtNtB9_5types4jira14ZephyrTestCaseNtB1n_27ZephyrTestCaseCreateRequestEB9_
FNDA:1,_RINvMs_NtNtCskhkPsqpzxNu_13rust_jira_mcp4jira6clientNtB5_10JiraClient14zephyr_requestNtNtNtB9_5types4jira14ZephyrTestStepNtB1n_27ZephyrTestStepCreateRequestEB9_
FNDA:0,_RINvMs_NtNtCskhkPsqpzxNu_13rust_jira_mcp4jira6clientNtB5_10JiraClient14zephyr_requestNtNtNtB9_5types4jira14ZephyrTestStepNtB1n_27ZephyrTestStepUpdateRequestEB9_
FNDA:0,_RINvMs_NtNtCskhkPsqpzxNu_13rust_jira_mcp4jira6clientNtB5_10JiraClient14zephyr_requestNtNtNtB9_5types4jira19ZephyrTestExecutionNtB1n_32ZephyrTestExecutionCreateRequestEB9_
FNDA:3,_RINvMs_NtNtCskhkPsqpzxNu_13rust_jira_mcp4jira6clientNtB5_10JiraClient14zephyr_requestNtNtNtB9_5types4jira26ZephyrTestCaseSearchResultuEB9_
FNDA:2,_RINvMs_NtNtCskhkPsqpzxNu_13rust_jira_mcp4jira6clientNtB5_10JiraClient20build_zephyr_requestNtNtNtB9_5types4jira27ZephyrTestCaseCreateRequestEB9_
FNDA:1,_RINvMs_NtNtCskhkPsqpzxNu_13rust_jira_mcp4jira6clientNtB5_10JiraClient20build_zephyr_requestNtNtNtB9_5types4jira27ZephyrTestStepCreateRequestEB9_
FNDA:0,_RINvMs_NtNtCskhkPsqpzxNu_13rust_jira_mcp4jira6clientNtB5_10JiraClient20build_zephyr_requestNtNtNtB9_5types4jira27ZephyrTestStepUpdateRequestEB9_
FNDA:0,_RINvMs_NtNtCskhkPsqpzxNu_13rust_jira_mcp4jira6clientNtB5_10JiraClient20build_zephyr_requestNtNtNtB9_5types4jira32ZephyrTestExecutionCreateRequestEB9_
FNDA:6,_RINvMs_NtNtCskhkPsqpzxNu_13rust_jira_mcp4jira6clientNtB5_10JiraClient20build_zephyr_requestuEB9_
FNDA:1,_RINvMs_NtNtCskhkPsqpzxNu_13rust_jira_mcp4jira6clientNtB5_10JiraClient3getINtNtCsiAD6NEzHbBo_5alloc3vec3VecNtNtNtB9_5types4jira10JiraStatusEEB9_
FNDA:2,_RINvMs_NtNtCskhkPsqpzxNu_13rust_jira_mcp4jira6clientNtB5_10JiraClient3getINtNtCsiAD6NEzHbBo_5alloc3vec3VecNtNtNtB9_5types4jira12JiraLinkTypeEEB9_
FNDA:1,_RINvMs_NtNtCskhkPsqpzxNu_13rust_jira_mcp4jira6clientNtB5_10JiraClient3getINtNtCsiAD6NEzHbBo_5alloc3vec3VecNtNtNtB9_5types4jira12JiraPriorityEEB9_
FNDA:2,_RINvMs_NtNtCskhkPsqpzxNu_13rust_jira_mcp4jira6clientNtB5_10JiraClient3getINtNtCsiAD6NEzHbBo_5alloc3vec3VecNtNtNtB9_5types4jira13JiraComponentEEB9_
FNDA:11,_RINvMs_NtNtCskhkPsqpzxNu_13rust_jira_mcp4jira6clientNtB5_10JiraClient3getNtNtCslJRJgdvPEaJ_10serde_json5value5ValueEB9_
FNDA:1,_RINvMs_NtNtCskhkPsqpzxNu_13rust_jira_mcp4jira6clientNtB5_10JiraClient3getNtNtNtB9_5types4jira13JiraIssueTypeEB9_
FNDA:4,_RINvMs_NtNtCskhkPsqpzxNu_13rust_jira_mcp4jira6clientNtB5_10JiraClient3getNtNtNtB9_5types4jira16JiraSearchResultEB9_
FNDA:2,_RINvMs_NtNtCskhkPsqpzxNu_13rust_jira_mcp4jira6clientNtB5_10JiraClient3getNtNtNtB9_5types4jira20JiraWatchersResponseEB9_
FNDA:8,_RINvMs_NtNtCskhkPsqpzxNu_13rust_jira_mcp4jira6clientNtB5_10JiraClient3getNtNtNtB9_5types4jira9JiraIssueEB9_
FNDA:9,_RINvMs_NtNtCskhkPsqpzxNu_13rust_jira_mcp4jira6clientNtB5_10JiraClient3putNtNtCslJRJgdvPEaJ_10serde_json5value5ValueB19_EB9_
FNDA:0,_RINvMs_NtNtCskhkPsqpzxNu_13rust_jira_mcp4jira6clientNtB5_10JiraClient3putNtNtNtB9_5types4jira11JiraWorkLogNtB1b_24JiraWorkLogUpdateRequestEB9_
FNDA:1,_RINvMs_NtNtCskhkPsqpzxNu_13rust_jira_mcp4jira6clientNtB5_10JiraClient3putNtNtNtB9_5types4jira13JiraComponentNtB1b_26JiraComponentUpdateRequestEB9_
FNDA:0,_RINvMs_NtNtCskhkPsqpzxNu_13rust_jira_mcp4jira6clientNtB5_10JiraClient3putNtNtNtB9_5types4jira9JiraLabelNtB1b_22JiraLabelUpdateRequestEB9_
FNDA:6,_RINvMs_NtNtCskhkPsqpzxNu_13rust_jira_mcp4jira6clientNtB5_10JiraClient4postNtNtCslJRJgdvPEaJ_10serde_json5value5ValueB1a_EB9_
FNDA:2,_RINvMs_NtNtCskhkPsqpzxNu_13rust_jira_mcp4jira6clientNtB5_10JiraClient4postNtNtCslJRJgdvPEaJ_10serde_json5value5ValueNtNtNtB9_5types4jira26JiraIssueLinkCreateRequestEB9_
FNDA:5,_RINvMs_NtNtCskhkPsqpzxNu_13rust_jira_mcp4jira6clientNtB5_10JiraClient4postNtNtNtB9_5types4jira11JiraCommentNtNtCslJRJgdvPEaJ_10serde_json5value5ValueEB9_
FNDA:1,_RINvMs_NtNtCskhkPsqpzxNu_13rust_jira_mcp4jira6clientNtB5_10JiraClient4postNtNtNtB9_5types4jira11JiraWorkLogNtB1c_24JiraWorkLogCreateRequestEB9_
FNDA:0,_RINvMs_NtNtCskhkPsqpzxNu_13rust_jira_mcp4jira6clientNtB5_10JiraClient4postNtNtNtB9_5types4jira13JiraComponentNtB1c_26JiraComponentCreateRequestEB9_
FNDA:4,_RINvMs_NtNtCskhkPsqpzxNu_13rust_jira_mcp4jira6clientNtB5_10JiraClient4postNtNtNtB9_5types4jira9JiraIssueNtNtCslJRJgdvPEaJ_10serde_json5value5ValueEB9_
FNDA:1,_RINvMs_NtNtCskhkPsqpzxNu_13rust_jira_mcp4jira6clientNtB5_10JiraClient4postNtNtNtB9_5types4jira9JiraLabelNtB1c_22JiraLabelCreateRequestEB9_
FNDA:2,_RINvMs_NtNtCskhkPsqpzxNu_13rust_jira_mcp4jira6clientNtB5_10JiraClient6deleteNtNtCslJRJgdvPEaJ_10serde_json5value5ValueEB9_
FNDA:1,_RINvMs_NtNtCskhkPsqpzxNu_13rust_jira_mcp4jira6clientNtB5_10JiraClient7requestINtNtCsiAD6NEzHbBo_5alloc3vec3VecNtNtNtB9_5types4jira10JiraStatusEuEB9_
FNDA:2,_RINvMs_NtNtCskhkPsqpzxNu_13rust_jira_mcp4jira6clientNtB5_10JiraClient7requestINtNtCsiAD6NEzHbBo_5alloc3vec3VecNtNtNtB9_5types4jira12JiraLinkTypeEuEB9_
FNDA:1,_RINvMs_NtNtCskhkPsqpzxNu_13rust_jira_mcp4jira6clientNtB5_10JiraClient7requestINtNtCsiAD6NEzHbBo_5alloc3vec3VecNtNtNtB9_5types4jira12JiraPriorityEuEB9_
FNDA:2,_RINvMs_NtNtCskhkPsqpzxNu_13rust_jira_mcp4jira6clientNtB5_10JiraClient7requestINtNtCsiAD6NEzHbBo_5alloc3vec3VecNtNtNtB9_5types4jira13JiraComponentEuEB9_
FNDA:15,_RINvMs_NtNtCskhkPsqpzxNu_13rust_jira_mcp4jira6clientNtB5_10JiraClient7requestNtNtCslJRJgdvPEaJ_10serde_json5value5ValueB1d_EB9_
FNDA:2,_RINvMs_NtNtCskhkPsqpzxNu_13rust_jira_mcp4jira6clientNtB5_10JiraClient7requestNtNtCslJRJgdvPEaJ_10serde_json5value5ValueNtNtNtB9_5types4jira26JiraIssueLinkCreateRequestEB9_
FNDA:13,_RINvMs_NtNtCskhkPsqpzxNu_13rust_jira_mcp4jira6clientNtB5_10JiraClient7requestNtNtCslJRJgdvPEaJ_10serde_json5value5ValueuEB9_
FNDA:5,_RINvMs_NtNtCskhkPsqpzxNu_13rust_jira_mcp4jira6clientNtB5_10JiraClient7requestNtNtNtB9_5types4jira11JiraCommentNtNtCslJRJgdvPEaJ_10serde_json5value5ValueEB9_
FNDA:1,_RINvMs_NtNtCskhkPsqpzxNu_13rust_jira_mcp4jira6clientNtB5_10JiraClient7requestNtNtNtB9_5types4jira11JiraWorkLogNtB1f_24JiraWorkLogCreateRequestEB9_
FNDA:0,_RINvMs_NtNtCskhkPsqpzxNu_13rust_jira_mcp4jira6clientNtB5_10JiraClient7requestNtNtNtB9_5types4jira11JiraWorkLogNtB1f_24JiraWorkLogUpdateRequestEB9_
FNDA:0,_RINvMs_NtNtCskhkPsqpzxNu_13rust_jira_mcp4jira6clientNtB5_10JiraClient7requestNtNtNtB9_5types4jira13JiraComponentNtB1f_26JiraComponentCreateRequestEB9_
FNDA:1,_RINvMs_NtNtCskhkPsqpzxNu_13rust_jira_mcp4jira6clientNtB5_10JiraClient7requestNtNtNtB9_5types4jira13JiraComponentNtB1f_26JiraComponentUpdateRequestEB9_
FNDA:1,_RINvMs_NtNtCskhkPsqpzxNu_13rust_jira_mcp4jira6clientNtB5_10JiraClient7requestNtNtNtB9_5types4jira13JiraIssueTypeuEB9_
FNDA:4,_RINvMs_NtNtCskhkPsqpzxNu_13rust_jira_mcp4jira6clientNtB5_10JiraClient7requestNtNtNtB9_5types4jira16JiraSearchResultuEB9_
FNDA:2,_RINvMs_NtNtCskhkPsqpzxNu_13rust_jira_mcp4jira6clientNtB5_10JiraClient7requestNtNtNtB9_5types4jira20JiraWatchersResponseuEB9_
FNDA:4,_RINvMs_NtNtCskhkPsqpzxNu_13rust_jira_mcp4jira6clientNtB5_10JiraClient7requestNtNtNtB9_5types4jira9JiraIssueNtNtCslJRJgdvPEaJ_10serde_json5value5ValueEB9_
FNDA:8,_RINvMs_NtNtCskhkPsqpzxNu_13rust_jira_mcp4jira6clientNtB5_10JiraClient7requestNtNtNtB9_5types4jira9JiraIssueuEB9_
FNDA:1,_RINvMs_NtNtCskhkPsqpzxNu_13rust_jira_mcp4jira6clientNtB5_10JiraClient7requestNtNtNtB9_5types4jira9JiraLabelNtB1f_22JiraLabelCreateRequestEB9_
FNDA:0,_RINvMs_NtNtCskhkPsqpzxNu_13rust_jira_mcp4jira6clientNtB5_10JiraClient7requestNtNtNtB9_5types4jira9JiraLabelNtB1f_22JiraLabelUpdateRequestEB9_
FNDA:2,_RNCINvMs_NtNtCskhkPsqpzxNu_13rust_jira_mcp4jira6clientNtB7_10JiraClient10zephyr_getNtNtCslJRJgdvPEaJ_10serde_json5value5ValueE0Bb_
FNDA:3,_RNCINvMs_NtNtCskhkPsqpzxNu_13rust_jira_mcp4jira6clientNtB7_10JiraClient10zephyr_getNtNtNtBb_5types4jira26ZephyrTestCaseSearchResultE0Bb_
FNDA:0,_RNCINvMs_NtNtCskhkPsqpzxNu_13rust_jira_mcp4jira6clientNtB7_10JiraClient10zephyr_putNtNtNtBb_5types4jira14ZephyrTestStepNtB1l_27ZephyrTestStepUpdateRequestE0Bb_
FNDA:2,_RNCINvMs_NtNtCskhkPsqpzxNu_13rust_jira_mcp4jira6clientNtB7_10JiraClient11zephyr_postNtNtNtBb_5types4jira14ZephyrTestCaseNtB1m_27ZephyrTestCaseCreateRequestE0Bb_
FNDA:1,_RNCINvMs_NtNtCskhkPsqpzxNu_13rust_jira_mcp4jira6clientNtB7_10JiraClient11zephyr_postNtNtNtBb_5types4jira14ZephyrTestStepNtB1m_27ZephyrTestStepCreateRequestE0Bb_
FNDA:0,_RNCINvMs_NtNtCskhkPsqpzxNu_13rust_jira_mcp4jira6clientNtB7_10JiraClient11zephyr_postNtNtNtBb_5types4jira19ZephyrTestExecutionNtB1m_32ZephyrTestExecutionCreateRequestE0Bb_
FNDA:1,_RNCINvMs_NtNtCskhkPsqpzxNu_13rust_jira_mcp4jira6clientNtB7_10JiraClient13zephyr_deleteNtNtCslJRJgdvPEaJ_10serde_json5value5ValueE0Bb_
FNDA:3,_RNCINvMs_NtNtCskhkPsqpzxNu_13rust_jira_mcp4jira6clientNtB7_10JiraClient14zephyr_requestNtNtCslJRJgdvPEaJ_10serde_json5value5ValueuE0Bb_
FNDA:2,_RNCINvMs_NtNtCskhkPsqpzxNu_13rust_jira_mcp4jira6clientNtB7_10JiraClient14zephyr_requestNtNtNtBb_5types4jira14ZephyrTestCaseNtB1p_27ZephyrTestCaseCreateRequestE0Bb_
FNDA:1,_RNCINvMs_NtNtCskhkPsqpzxNu_13rust_jira_mcp4jira6clientNtB7_10JiraClient14zephyr_requestNtNtNtBb_5types4jira14ZephyrTestStepNtB1p_27ZephyrTestStepCreateRequestE0Bb_
FNDA:0,_RNCINvMs_NtNtCskhkPsqpzxNu_13rust_jira_mcp4jira6clientNtB7_10JiraClient14zephyr_requestNtNtNtBb_5types4jira14ZephyrTestStepNtB1p_27ZephyrTestStepUpdateRequestE0Bb_
FNDA:0,_RNCINvMs_NtNtCskhkPsqpzxNu_13rust_jira_mcp4jira6clientNtB7_10JiraClient14zephyr_requestNtNtNtBb_5types4jira19ZephyrTestExecutionNtB1p_32ZephyrTestExecutionCreateRequestE0Bb_
FNDA:3,_RNCINvMs_NtNtCskhkPsqpzxNu_13rust_jira_mcp4jira6clientNtB7_10JiraClient14zephyr_requestNtNtNtBb_5types4jira26ZephyrTestCaseSearchResultuE0Bb_
FNDA:1,_RNCINvMs_NtNtCskhkPsqpzxNu_13rust_jira_mcp4jira6clientNtB7_10JiraClient3getINtNtCsiAD6NEzHbBo_5alloc3vec3VecNtNtNtBb_5types4jira10JiraStatusEE0Bb_
FNDA:2,_RNCINvMs_NtNtCskhkPsqpzxNu_13rust_jira_mcp4jira6clientNtB7_10JiraClient3getINtNtCsiAD6NEzHbBo_5alloc3vec3VecNtNtNtBb_5types4jira12JiraLinkTypeEE0Bb_
FNDA:1,_RNCINvMs_NtNtCskhkPsqpzxNu_13rust_jira_mcp4jira6clientNtB7_10JiraClient3getINtNtCsiAD6NEzHbBo_5alloc3vec3VecNtNtNtBb_5types4jira12JiraPriorityEE0Bb_
FNDA:2,_RNCINvMs_NtNtCskhkPsqpzxNu_13rust_jira_mcp4jira6clientNtB7_10JiraClient3getINtNtCsiAD6NEzHbBo_5alloc3vec3VecNtNtNtBb_5types4jira13JiraComponentEE0Bb_
FNDA:11,_RNCINvMs_NtNtCskhkPsqpzxNu_13rust_jira_mcp4jira6clientNtB7_10JiraClient3getNtNtCslJRJgdvPEaJ_10serde_json5value5ValueE0Bb_
FNDA:1,_RNCINvMs_NtNtCskhkPsqpzxNu_13rust_jira_mcp4jira6clientNtB7_10JiraClient3getNtNtNtBb_5types4jira13JiraIssueTypeE0Bb_
FNDA:4,_RNCINvMs_NtNtCskhkPsqpzxNu_13rust_jira_mcp4jira6clientNtB7_10JiraClient3getNtNtNtBb_5types4jira16JiraSearchResultE0Bb_
FNDA:2,_RNCINvMs_NtNtCskhkPsqpzxNu_13rust_jira_mcp4jira6clientNtB7_10JiraClient3getNtNtNtBb_5types4jira20JiraWatchersResponseE0Bb_
FNDA:8,_RNCINvMs_NtNtCskhkPsqpzxNu_13rust_jira_mcp4jira6clientNtB7_10JiraClient3getNtNtNtBb_5types4jira9JiraIssueE0Bb_
FNDA:9,_RNCINvMs_NtNtCskhkPsqpzxNu_13rust_jira_mcp4jira6clientNtB7_10JiraClient3putNtNtCslJRJgdvPEaJ_10serde_json5value5ValueB1b_E0Bb_
FNDA:0,_RNCINvMs_NtNtCskhkPsqpzxNu_13rust_jira_mcp4jira6clientNtB7_10JiraClient3putNtNtNtBb_5types4jira11JiraWorkLogNtB1d_24JiraWorkLogUpdateRequestE0Bb_
FNDA:1,_RNCINvMs_NtNtCskhkPsqpzxNu_13rust_jira_mcp4jira6clientNtB7_10JiraClient3putNtNtNtBb_5types4jira13JiraComponentNtB1d_26JiraComponentUpdateRequestE0Bb_
FNDA:0,_RNCINvMs_NtNtCskhkPsqpzxNu_13rust_jira_mcp4jira6clientNtB7_10JiraClient3putNtNtNtBb_5types4jira9JiraLabelNtB1d_22JiraLabelUpdateRequestE0Bb_
FNDA:6,_RNCINvMs_NtNtCskhkPsqpzxNu_13rust_jira_mcp4jira6clientNtB7_10JiraClient4postNtNtCslJRJgdvPEaJ_10serde_json5value5ValueB1c_E0Bb_
FNDA:2,_RNCINvMs_NtNtCskhkPsqpzxNu_13rust_jira_mcp4jira6clientNtB7_10JiraClient4postNtNtCslJRJgdvPEaJ_10serde_json5value5ValueNtNtNtBb_5types4jira26JiraIssueLinkCreateRequestE0Bb_
FNDA:5,_RNCINvMs_NtNtCskhkPsqpzxNu_13rust_jira_mcp4jira6clientNtB7_10JiraClient4postNtNtNtBb_5types4jira11JiraCommentNtNtCslJRJgdvPEaJ_10serde_json5value5ValueE0Bb_
FNDA:1,_RNCINvMs_NtNtCskhkPsqpzxNu_13rust_jira_mcp4jira6clientNtB7_10JiraClient4postNtNtNtBb_5types4jira11JiraWorkLogNtB1e_24JiraWorkLogCreateRequestE0Bb_
FNDA:0,_RNCINvMs_NtNtCskhkPsqpzxNu_13rust_jira_mcp4jira6clientNtB7_10JiraClient4postNtNtNtBb_5types4jira13JiraComponentNtB1e_26JiraComponentCreateRequestE0Bb_
FNDA:4,_RNCINvMs_NtNtCskhkPsqpzxNu_13rust_jira_mcp4jira6clientNtB7_10JiraClient4postNtNtNtBb_5types4jira9JiraIssueNtNtCslJRJgdvPEaJ_10serde_json5value5ValueE0Bb_
FNDA:1,_RNCINvMs_NtNtCskhkPsqpzxNu_13rust_jira_mcp4jira6clientNtB7_10JiraClient4postNtNtNtBb_5types4jira9JiraLabelNtB1e_22JiraLabelCreateRequestE0Bb_
FNDA:2,_RNCINvMs_NtNtCskhkPsqpzxNu_13rust_jira_mcp4jira6clientNtB7_10JiraClient6deleteNtNtCslJRJgdvPEaJ_10serde_json5value5ValueE0Bb_
FNDA:1,_RNCINvMs_NtNtCskhkPsqpzxNu_13rust_jira_mcp4jira6clientNtB7_10JiraClient7requestINtNtCsiAD6NEzHbBo_5alloc3vec3VecNtNtNtBb_5types4jira10JiraStatusEuE0Bb_
FNDA:2,_RNCINvMs_NtNtCskhkPsqpzxNu_13rust_jira_mcp4jira6clientNtB7_10JiraClient7requestINtNtCsiAD6NEzHbBo_5alloc3vec3VecNtNtNtBb_5types4jira12JiraLinkTypeEuE0Bb_
FNDA:1,_RNCINvMs_NtNtCskhkPsqpzxNu_13rust_jira_mcp4jira6clientNtB7_10JiraClient7requestINtNtCsiAD6NEzHbBo_5alloc3vec3VecNtNtNtBb_5types4jira12JiraPriorityEuE0Bb_
FNDA:2,_RNCINvMs_NtNtCskhkPsqpzxNu_13rust_jira_mcp4jira6clientNtB7_10JiraClient7requestINtNtCsiAD6NEzHbBo_5alloc3vec3VecNtNtNtBb_5types4jira13JiraComponentEuE0Bb_
FNDA:15,_RNCINvMs_NtNtCskhkPsqpzxNu_13rust_jira_mcp4jira6clientNtB7_10JiraClient7requestNtNtCslJRJgdvPEaJ_10serde_json5value5ValueB1f_E0Bb_
FNDA:2,_RNCINvMs_NtNtCskhkPsqpzxNu_13rust_jira_mcp4jira6clientNtB7_10JiraClient7requestNtNtCslJRJgdvPEaJ_10serde_json5value5ValueNtNtNtBb_5types4jira26JiraIssueLinkCreateRequestE0Bb_
FNDA:13,_RNCINvMs_NtNtCskhkPsqpzxNu_13rust_jira_mcp4jira6clientNtB7_10JiraClient7requestNtNtCslJRJgdvPEaJ_10serde_json5value5ValueuE0Bb_
FNDA:5,_RNCINvMs_NtNtCskhkPsqpzxNu_13rust_jira_mcp4jira6clientNtB7_10JiraClient7requestNtNtNtBb_5types4jira11JiraCommentNtNtCslJRJgdvPEaJ_10serde_json5value5ValueE0Bb_
FNDA:1,_RNCINvMs_NtNtCskhkPsqpzxNu_13rust_jira_mcp4jira6clientNtB7_10JiraClient7requestNtNtNtBb_5types4jira11JiraWorkLogNtB1h_24JiraWorkLogCreateRequestE0Bb_
FNDA:0,_RNCINvMs_NtNtCskhkPsqpzxNu_13rust_jira_mcp4jira6clientNtB7_10JiraClient7requestNtNtNtBb_5types4jira11JiraWorkLogNtB1h_24JiraWorkLogUpdateRequestE0Bb_
FNDA:0,_RNCINvMs_NtNtCskhkPsqpzxNu_13rust_jira_mcp4jira6clientNtB7_10JiraClient7requestNtNtNtBb_5types4jira13JiraComponentNtB1h_26JiraComponentCreateRequestE0Bb_
FNDA:1,_RNCINvMs_NtNtCskhkPsqpzxNu_13rust_jira_mcp4jira6clientNtB7_10JiraClient7requestNtNtNtBb_5types4jira13JiraComponentNtB1h_26JiraComponentUpdateRequestE0Bb_
FNDA:1,_RNCINvMs_NtNtCskhkPsqpzxNu_13rust_jira_mcp4jira6clientNtB7_10JiraClient7requestNtNtNtBb_5types4jira13JiraIssueTypeuE0Bb_
FNDA:4,_RNCINvMs_NtNtCskhkPsqpzxNu_13rust_jira_mcp4jira6clientNtB7_10JiraClient7requestNtNtNtBb_5types4jira16JiraSearchResultuE0Bb_
FNDA:2,_RNCINvMs_NtNtCskhkPsqpzxNu_13rust_jira_mcp4jira6clientNtB7_10JiraClient7requestNtNtNtBb_5types4jira20JiraWatchersResponseuE0Bb_
FNDA:4,_RNCINvMs_NtNtCskhkPsqpzxNu_13rust_jira_mcp4jira6clientNtB7_10JiraClient7requestNtNtNtBb_5types4jira9JiraIssueNtNtCslJRJgdvPEaJ_10serde_json5value5ValueE0Bb_
FNDA:8,_RNCINvMs_NtNtCskhkPsqpzxNu_13rust_jira_mcp4jira6clientNtB7_10JiraClient7requestNtNtNtBb_5types4jira9JiraIssueuE0Bb_
FNDA:1,_RNCINvMs_NtNtCskhkPsqpzxNu_13rust_jira_mcp4jira6clientNtB7_10JiraClient7requestNtNtNtBb_5types4jira9JiraLabelNtB1h_22JiraLabelCreateRequestE0Bb_
FNDA:0,_RNCINvMs_NtNtCskhkPsqpzxNu_13rust_jira_mcp4jira6clientNtB7_10JiraClient7requestNtNtNtBb_5types4jira9JiraLabelNtB1h_22JiraLabelUpdateRequestE0Bb_
FNDA:0,_RNCNCINvMs_NtNtCskhkPsqpzxNu_13rust_jira_mcp4jira6clientNtB9_10JiraClient14zephyr_requestNtNtCslJRJgdvPEaJ_10serde_json5value5ValueuE00Bd_
FNDA:0,_RNCNCINvMs_NtNtCskhkPsqpzxNu_13rust_jira_mcp4jira6clientNtB9_10JiraClient14zephyr_requestNtNtCslJRJgdvPEaJ_10serde_json5value5ValueuE0s_0Bd_
FNDA:0,_RNCNCINvMs_NtNtCskhkPsqpzxNu_13rust_jira_mcp4jira6clientNtB9_10JiraClient14zephyr_requestNtNtNtBd_5types4jira14ZephyrTestCaseNtB1r_27ZephyrTestCaseCreateRequestE00Bd_
FNDA:0,_RNCNCINvMs_NtNtCskhkPsqpzxNu_13rust_jira_mcp4jira6clientNtB9_10JiraClient14zephyr_requestNtNtNtBd_5types4jira14ZephyrTestCaseNtB1r_27ZephyrTestCaseCreateRequestE0s_0Bd_
FNDA:0,_RNCNCINvMs_NtNtCskhkPsqpzxNu_13rust_jira_mcp4jira6clientNtB9_10JiraClient14zephyr_requestNtNtNtBd_5types4jira14ZephyrTestStepNtB1r_27ZephyrTestStepCreateRequestE00Bd_
FNDA:0,_RNCNCINvMs_NtNtCskhkPsqpzxNu_13rust_jira_mcp4jira6clientNtB9_10JiraClient14zephyr_requestNtNtNtBd_5types4jira14ZephyrTestStepNtB1r_27ZephyrTestStepCreateRequestE0s_0Bd_
FNDA:0,_RNCNCINvMs_NtNtCskhkPsqpzxNu_13rust_jira_mcp4jira6clientNtB9_10JiraClient14zephyr_requestNtNtNtBd_5types4jira14ZephyrTestStepNtB1r_27ZephyrTestStepUpdateRequestE00Bd_
FNDA:0,_RNCNCINvMs_NtNtCskhkPsqpzxNu_13rust_jira_mcp4jira6clientNtB9_10JiraClient14zephyr_requestNtNtNtBd_5types4jira14ZephyrTestStepNtB1r_27ZephyrTestStepUpdateRequestE0s_0Bd_
FNDA:0,_RNCNCINvMs_NtNtCskhkPsqpzxNu_13rust_jira_mcp4jira6clientNtB9_10JiraClient14zephyr_requestNtNtNtBd_5types4jira19ZephyrTestExecutionNtB1r_32ZephyrTestExecutionCreateRequestE00Bd_
FNDA:0,_RNCNCINvMs_NtNtCskhkPsqpzxNu_13rust_jira_mcp4jira6clientNtB9_10JiraClient14zephyr_requestNtNtNtBd_5types4jira19ZephyrTestExecutionNtB1r_32ZephyrTestExecutionCreateRequestE0s_0Bd_
FNDA:0,_RNCNCINvMs_NtNtCskhkPsqpzxNu_13rust_jira_mcp4jira6clientNtB9_10JiraClient14zephyr_requestNtNtNtBd_5types4jira26ZephyrTestCaseSearchResultuE00Bd_
FNDA:1,_RNCNCINvMs_NtNtCskhkPsqpzxNu_13rust_jira_mcp4jira6clientNtB9_10JiraClient14zephyr_requestNtNtNtBd_5types4jira26ZephyrTestCaseSearchResultuE0s_0Bd_
FNDA:0,_RNCNCINvMs_NtNtCskhkPsqpzxNu_13rust_jira_mcp4jira6clientNtB9_10JiraClient7requestINtNtCsiAD6NEzHbBo_5alloc3vec3VecNtNtNtBd_5types4jira10JiraStatusEuE00Bd_
FNDA:0,_RNCNCINvMs_NtNtCskhkPsqpzxNu_13rust_jira_mcp4jira6clientNtB9_10JiraClient7requestINtNtCsiAD6NEzHbBo_5alloc3vec3VecNtNtNtBd_5types4jira10JiraStatusEuE0s_0Bd_
FNDA:0,_RNCNCINvMs_NtNtCskhkPsqpzxNu_13rust_jira_mcp4jira6clientNtB9_10JiraClient7requestINtNtCsiAD6NEzHbBo_5alloc3vec3VecNtNtNtBd_5types4jira12JiraLinkTypeEuE00Bd_
FNDA:0,_RNCNCINvMs_NtNtCskhkPsqpzxNu_13rust_jira_mcp4jira6clientNtB9_10JiraClient7requestINtNtCsiAD6NEzHbBo_5alloc3vec3VecNtNtNtBd_5types4jira12JiraLinkTypeEuE0s_0Bd_
FNDA:0,_RNCNCINvMs_NtNtCskhkPsqpzxNu_13rust_jira_mcp4jira6clientNtB9_10JiraClient7requestINtNtCsiAD6NEzHbBo_5alloc3vec3VecNtNtNtBd_5types4jira12JiraPriorityEuE00Bd_
FNDA:0,_RNCNCINvMs_NtNtCskhkPsqpzxNu_13rust_jira_mcp4jira6clientNtB9_10JiraClient7requestINtNtCsiAD6NEzHbBo_5alloc3vec3VecNtNtNtBd_5types4jira12JiraPriorityEuE0s_0Bd_
FNDA:0,_RNCNCINvMs_NtNtCskhkPsqpzxNu_13rust_jira_mcp4jira6clientNtB9_10JiraClient7requestINtNtCsiAD6NEzHbBo_5alloc3vec3VecNtNtNtBd_5types4jira13JiraComponentEuE00Bd_
FNDA:1,_RNCNCINvMs_NtNtCskhkPsqpzxNu_13rust_jira_mcp4jira6clientNtB9_10JiraClient7requestINtNtCsiAD6NEzHbBo_5alloc3vec3VecNtNtNtBd_5types4jira13JiraComponentEuE0s_0Bd_
FNDA:0,_RNCNCINvMs_NtNtCskhkPsqpzxNu_13rust_jira_mcp4jira6clientNtB9_10JiraClient7requestNtNtCslJRJgdvPEaJ_10serde_json5value5ValueB1h_E00Bd_
FNDA:2,_RNCNCINvMs_NtNtCskhkPsqpzxNu_13rust_jira_mcp4jira6clientNtB9_10JiraClient7requestNtNtCslJRJgdvPEaJ_10serde_json5value5ValueB1h_E0s_0Bd_
FNDA:0,_RNCNCINvMs_NtNtCskhkPsqpzxNu_13rust_jira_mcp4jira6clientNtB9_10JiraClient7requestNtNtCslJRJgdvPEaJ_10serde_json5value5ValueNtNtNtBd_5types4jira26JiraIssueLinkCreateRequestE00Bd_
FNDA:0,_RNCNCINvMs_NtNtCskhkPsqpzxNu_13rust_jira_mcp4jira6clientNtB9_10JiraClient7requestNtNtCslJRJgdvPEaJ_10serde_json5value5ValueNtNtNtBd_5types4jira26JiraIssueLinkCreateRequestE0s_0Bd_
FNDA:0,_RNCNCINvMs_NtNtCskhkPsqpzxNu_13rust_jira_mcp4jira6clientNtB9_10JiraClient7requestNtNtCslJRJgdvPEaJ_10serde_json5value5ValueuE00Bd_
FNDA:2,_RNCNCINvMs_NtNtCskhkPsqpzxNu_13rust_jira_mcp4jira6clientNtB9_10JiraClient7requestNtNtCslJRJgdvPEaJ_10serde_json5value5ValueuE0s_0Bd_
FNDA:0,_RNCNCINvMs_NtNtCskhkPsqpzxNu_13rust_jira_mcp4jira6clientNtB9_10JiraClient7requestNtNtNtBd_5types4jira11JiraCommentNtNtCslJRJgdvPEaJ_10serde_json5value5ValueE00Bd_
FNDA:0,_RNCNCINvMs_NtNtCskhkPsqpzxNu_13rust_jira_mcp4jira6clientNtB9_10JiraClient7requestNtNtNtBd_5types4jira11JiraCommentNtNtCslJRJgdvPEaJ_10serde_json5value5ValueE0s_0Bd_
FNDA:0,_RNCNCINvMs_NtNtCskhkPsqpzxNu_13rust_jira_mcp4jira6clientNtB9_10JiraClient7requestNtNtNtBd_5types4jira11JiraWorkLogNtB1j_24JiraWorkLogCreateRequestE00Bd_
FNDA:0,_RNCNCINvMs_NtNtCskhkPsqpzxNu_13rust_jira_mcp4jira6clientNtB9_10JiraClient7requestNtNtNtBd_5types4jira11JiraWorkLogNtB1j_24JiraWorkLogCreateRequestE0s_0Bd_
FNDA:0,_RNCNCINvMs_NtNtCskhkPsqpzxNu_13rust_jira_mcp4jira6clientNtB9_10JiraClient7requestNtNtNtBd_5types4jira11JiraWorkLogNtB1j_24JiraWorkLogUpdateRequestE00Bd_
FNDA:0,_RNCNCINvMs_NtNtCskhkPsqpzxNu_13rust_jira_mcp4jira6clientNtB9_10JiraClient7requestNtNtNtBd_5types4jira11JiraWorkLogNtB1j_24JiraWorkLogUpdateRequestE0s_0Bd_
FNDA:0,_RNCNCINvMs_NtNtCskhkPsqpzxNu_13rust_jira_mcp4jira6clientNtB9_10JiraClient7requestNtNtNtBd_5types4jira13JiraComponentNtB1j_26JiraComponentCreateRequestE00Bd_
FNDA:0,_RNCNCINvMs_NtNtCskhkPsqpzxNu_13rust_jira_mcp4jira6clientNtB9_10JiraClient7requestNtNtNtBd_5types4jira13JiraComponentNtB1j_26JiraComponentCreateRequestE0s_0Bd_
FNDA:0,_RNCNCINvMs_NtNtCskhkPsqpzxNu_13rust_jira_mcp4jira6clientNtB9_10JiraClient7requestNtNtNtBd_5types4jira13JiraComponentNtB1j_26JiraComponentUpdateRequestE00Bd_
FNDA:0,_RNCNCINvMs_NtNtCskhkPsqpzxNu_13rust_jira_mcp4jira6clientNtB9_10JiraClient7requestNtNtNtBd_5types4jira13JiraComponentNtB1j_26JiraComponentUpdateRequestE0s_0Bd_
FNDA:0,_RNCNCINvMs_NtNtCskhkPsqpzxNu_13rust_jira_mcp4jira6clientNtB9_10JiraClient7requestNtNtNtBd_5types4jira13JiraIssueTypeuE00Bd_
FNDA:0,_RNCNCINvMs_NtNtCskhkPsqpzxNu_13rust_jira_mcp4jira6clientNtB9_10JiraClient7requestNtNtNtBd_5types4jira13JiraIssueTypeuE0s_0Bd_
FNDA:0,_RNCNCINvMs_NtNtCskhkPsqpzxNu_13rust_jira_mcp4jira6clientNtB9_10JiraClient7requestNtNtNtBd_5types4jira16JiraSearchResultuE00Bd_
FNDA:1,_RNCNCINvMs_NtNtCskhkPsqpzxNu_13rust_jira_mcp4jira6clientNtB9_10JiraClient7requestNtNtNtBd_5types4jira16JiraSearchResultuE0s_0Bd_
FNDA:0,_RNCNCINvMs_NtNtCskhkPsqpzxNu_13rust_jira_mcp4jira6clientNtB9_10JiraClient7requestNtNtNtBd_5types4jira20JiraWatchersResponseuE00Bd_
FNDA:1,_RNCNCINvMs_NtNtCskhkPsqpzxNu_13rust_jira_mcp4jira6clientNtB9_10JiraClient7requestNtNtNtBd_5types4jira20JiraWatchersResponseuE0s_0Bd_
FNDA:0,_RNCNCINvMs_NtNtCskhkPsqpzxNu_13rust_jira_mcp4jira6clientNtB9_10JiraClient7requestNtNtNtBd_5types4jira9JiraIssueNtNtCslJRJgdvPEaJ_10serde_json5value5ValueE00Bd_
FNDA:1,_RNCNCINvMs_NtNtCskhkPsqpzxNu_13rust_jira_mcp4jira6clientNtB9_10JiraClient7requestNtNtNtBd_5types4jira9JiraIssueNtNtCslJRJgdvPEaJ_10serde_json5value5ValueE0s_0Bd_
FNDA:0,_RNCNCINvMs_NtNtCskhkPsqpzxNu_13rust_jira_mcp4jira6clientNtB9_10JiraClient7requestNtNtNtBd_5types4jira9JiraIssueuE00Bd_
FNDA:4,_RNCNCINvMs_NtNtCskhkPsqpzxNu_13rust_jira_mcp4jira6clientNtB9_10JiraClient7requestNtNtNtBd_5types4jira9JiraIssueuE0s_0Bd_
FNDA:0,_RNCNCINvMs_NtNtCskhkPsqpzxNu_13rust_jira_mcp4jira6clientNtB9_10JiraClient7requestNtNtNtBd_5types4jira9JiraLabelNtB1j_22JiraLabelCreateRequestE00Bd_
FNDA:0,_RNCNCINvMs_NtNtCskhkPsqpzxNu_13rust_jira_mcp4jira6clientNtB9_10JiraClient7requestNtNtNtBd_5types4jira9JiraLabelNtB1j_22JiraLabelCreateRequestE0s_0Bd_
FNDA:0,_RNCNCINvMs_NtNtCskhkPsqpzxNu_13rust_jira_mcp4jira6clientNtB9_10JiraClient7requestNtNtNtBd_5types4jira9JiraLabelNtB1j_22JiraLabelUpdateRequestE00Bd_
FNDA:0,_RNCNCINvMs_NtNtCskhkPsqpzxNu_13rust_jira_mcp4jira6clientNtB9_10JiraClient7requestNtNtNtBd_5types4jira9JiraLabelNtB1j_22JiraLabelUpdateRequestE0s_0Bd_
FNDA:0,_RNCNCNvMs_NtNtCskhkPsqpzxNu_13rust_jira_mcp4jira6clientNtB8_10JiraClient10get_labels00Bc_
FNDA:1,_RNCNCNvMs_NtNtCskhkPsqpzxNu_13rust_jira_mcp4jira6clientNtB8_10JiraClient11link_issues00Bc_
FNDA:0,_RNCNCNvMs_NtNtCskhkPsqpzxNu_13rust_jira_mcp4jira6clientNtB8_10JiraClient12get_comments00Bc_
FNDA:0,_RNCNCNvMs_NtNtCskhkPsqpzxNu_13rust_jira_mcp4jira6clientNtB8_10JiraClient12get_comments0s_0Bc_
FNDA:9,_RNCNCNvMs_NtNtCskhkPsqpzxNu_13rust_jira_mcp4jira6clientNtB8_10JiraClient13search_issues00Bc_
FNDA:0,_RNCNCNvMs_NtNtCskhkPsqpzxNu_13rust_jira_mcp4jira6clientNtB8_10JiraClient15get_issue_links00Bc_
FNDA:0,_RNCNCNvMs_NtNtCskhkPsqpzxNu_13rust_jira_mcp4jira6clientNtB8_10JiraClient15get_transitions00Bc_
FNDA:0,_RNCNCNvMs_NtNtCskhkPsqpzxNu_13rust_jira_mcp4jira6clientNtB8_10JiraClient15get_transitions0s_0Bc_
FNDA:4,_RNCNCNvMs_NtNtCskhkPsqpzxNu_13rust_jira_mcp4jira6clientNtB8_10JiraClient17bulk_add_comments00Bc_
FNDA:0,_RNCNCNvMs_NtNtCskhkPsqpzxNu_13rust_jira_mcp4jira6clientNtB8_10JiraClient17get_custom_fields00Bc_
FNDA:4,_RNCNCNvMs_NtNtCskhkPsqpzxNu_13rust_jira_mcp4jira6clientNtB8_10JiraClient17perform_operation00Bc_
FNDA:0,_RNCNCNvMs_NtNtCskhkPsqpzxNu_13rust_jira_mcp4jira6clientNtB8_10JiraClient17perform_operation0s0_0Bc_
FNDA:4,_RNCNCNvMs_NtNtCskhkPsqpzxNu_13rust_jira_mcp4jira6clientNtB8_10JiraClient17perform_operation0s1_0Bc_
FNDA:0,_RNCNCNvMs_NtNtCskhkPsqpzxNu_13rust_jira_mcp4jira6clientNtB8_10JiraClient17perform_operation0s2_0Bc_
FNDA:0,_RNCNCNvMs_NtNtCskhkPsqpzxNu_13rust_jira_mcp4jira6clientNtB8_10JiraClient17perform_operation0s3_0Bc_
FNDA:0,_RNCNCNvMs_NtNtCskhkPsqpzxNu_13rust_jira_mcp4jira6clientNtB8_10JiraClient17perform_operation0s4_0Bc_
FNDA:0,_RNCNCNvMs_NtNtCskhkPsqpzxNu_13rust_jira_mcp4jira6clientNtB8_10JiraClient17perform_operation0s5_0Bc_
FNDA:0,_RNCNCNvMs_NtNtCskhkPsqpzxNu_13rust_jira_mcp4jira6clientNtB8_10JiraClient17perform_operation0s6_0Bc_
FNDA:0,_RNCNCNvMs_NtNtCskhkPsqpzxNu_13rust_jira_mcp4jira6clientNtB8_10JiraClient17perform_operation0s7_0Bc_
FNDA:0,_RNCNCNvMs_NtNtCskhkPsqpzxNu_13rust_jira_mcp4jira6clientNtB8_10JiraClient17perform_operation0s_0Bc_
FNDA:0,_RNCNCNvMs_NtNtCskhkPsqpzxNu_13rust_jira_mcp4jira6clientNtB8_10JiraClient17upload_attachment00Bc_
FNDA:6,_RNCNCNvMs_NtNtCskhkPsqpzxNu_13rust_jira_mcp4jira6clientNtB8_10JiraClient18bulk_update_issues00Bc_
FNDA:0,_RNCNCNvMs_NtNtCskhkPsqpzxNu_13rust_jira_mcp4jira6clientNtB8_10JiraClient19download_attachment00Bc_
FNDA:0,_RNCNCNvMs_NtNtCskhkPsqpzxNu_13rust_jira_mcp4jira6clientNtB8_10JiraClient19get_issue_work_logs00Bc_
FNDA:0,_RNCNCNvMs_NtNtCskhkPsqpzxNu_13rust_jira_mcp4jira6clientNtB8_10JiraClient19get_issue_work_logs0s_0Bc_
FNDA:0,_RNCNCNvMs_NtNtCskhkPsqpzxNu_13rust_jira_mcp4jira6clientNtB8_10JiraClient21get_issue_attachments00Bc_
FNDA:0,_RNCNCNvMs_NtNtCskhkPsqpzxNu_13rust_jira_mcp4jira6clientNtB8_10JiraClient21get_issue_attachments0s_0Bc_
FNDA:0,_RNCNCNvMs_NtNtCskhkPsqpzxNu_13rust_jira_mcp4jira6clientNtB8_10JiraClient21get_zephyr_test_plans00Bc_
FNDA:0,_RNCNCNvMs_NtNtCskhkPsqpzxNu_13rust_jira_mcp4jira6clientNtB8_10JiraClient21get_zephyr_test_plans0s_0Bc_
FNDA:0,_RNCNCNvMs_NtNtCskhkPsqpzxNu_13rust_jira_mcp4jira6clientNtB8_10JiraClient21get_zephyr_test_steps00Bc_
FNDA:0,_RNCNCNvMs_NtNtCskhkPsqpzxNu_13rust_jira_mcp4jira6clientNtB8_10JiraClient21get_zephyr_test_steps0s_0Bc_
FNDA:4,_RNCNCNvMs_NtNtCskhkPsqpzxNu_13rust_jira_mcp4jira6clientNtB8_10JiraClient22bulk_transition_issues00Bc_
FNDA:0,_RNCNCNvMs_NtNtCskhkPsqpzxNu_13rust_jira_mcp4jira6clientNtB8_10JiraClient22get_zephyr_test_cycles00Bc_
FNDA:0,_RNCNCNvMs_NtNtCskhkPsqpzxNu_13rust_jira_mcp4jira6clientNtB8_10JiraClient22get_zephyr_test_cycles0s_0Bc_
FNDA:0,_RNCNCNvMs_NtNtCskhkPsqpzxNu_13rust_jira_mcp4jira6clientNtB8_10JiraClient23get_project_issue_types00Bc_
FNDA:0,_RNCNCNvMs_NtNtCskhkPsqpzxNu_13rust_jira_mcp4jira6clientNtB8_10JiraClient23get_project_issue_types0s_0Bc_
FNDA:7,_RNCNCNvMs_NtNtCskhkPsqpzxNu_13rust_jira_mcp4jira6clientNtB8_10JiraClient24search_zephyr_test_cases00Bc_
FNDA:0,_RNCNCNvMs_NtNtCskhkPsqpzxNu_13rust_jira_mcp4jira6clientNtB8_10JiraClient26get_zephyr_test_executions00Bc_
FNDA:0,_RNCNCNvMs_NtNtCskhkPsqpzxNu_13rust_jira_mcp4jira6clientNtB8_10JiraClient26get_zephyr_test_executions0s_0Bc_
FNDA:75,_RNCNvMNtNtCskhkPsqpzxNu_13rust_jira_mcp4jira6clientNtB4_11RateLimiter14wait_if_needed0B8_
FNDA:2,_RNCNvMs_NtNtCskhkPsqpzxNu_13rust_jira_mcp4jira6clientNtB6_10JiraClient10get_labels0Ba_
FNDA:5,_RNCNvMs_NtNtCskhkPsqpzxNu_13rust_jira_mcp4jira6clientNtB6_10JiraClient11add_comment0Ba_
FNDA:0,_RNCNvMs_NtNtCskhkPsqpzxNu_13rust_jira_mcp4jira6clientNtB6_10JiraClient11clone_issue0Ba_
FNDA:1,_RNCNvMs_NtNtCskhkPsqpzxNu_13rust_jira_mcp4jira6clientNtB6_10JiraClient11link_issues0Ba_
FNDA:1,_RNCNvMs_NtNtCskhkPsqpzxNu_13rust_jira_mcp4jira6clientNtB6_10JiraClient12add_work_log0Ba_
FNDA:3,_RNCNvMs_NtNtCskhkPsqpzxNu_13rust_jira_mcp4jira6clientNtB6_10JiraClient12create_issue0Ba_
FNDA:1,_RNCNvMs_NtNtCskhkPsqpzxNu_13rust_jira_mcp4jira6clientNtB6_10JiraClient12create_label0Ba_
FNDA:0,_RNCNvMs_NtNtCskhkPsqpzxNu_13rust_jira_mcp4jira6clientNtB6_10JiraClient12delete_label0Ba_
FNDA:1,_RNCNvMs_NtNtCskhkPsqpzxNu_13rust_jira_mcp4jira6clientNtB6_10JiraClient12get_comments0Ba_
FNDA:1,_RNCNvMs_NtNtCskhkPsqpzxNu_13rust_jira_mcp4jira6clientNtB6_10JiraClient12get_statuses0Ba_
FNDA:8,_RNCNvMs_NtNtCskhkPsqpzxNu_13rust_jira_mcp4jira6clientNtB6_10JiraClient12update_issue0Ba_
FNDA:0,_RNCNvMs_NtNtCskhkPsqpzxNu_13rust_jira_mcp4jira6clientNtB6_10JiraClient12update_label0Ba_
FNDA:8,_RNCNvMs_NtNtCskhkPsqpzxNu_13rust_jira_mcp4jira6clientNtB6_10JiraClient13process_batch0Ba_
FNDA:4,_RNCNvMs_NtNtCskhkPsqpzxNu_13rust_jira_mcp4jira6clientNtB6_10JiraClient13search_issues0Ba_
FNDA:2,_RNCNvMs_NtNtCskhkPsqpzxNu_13rust_jira_mcp4jira6clientNtB6_10JiraClient14get_link_types0Ba_
FNDA:1,_RNCNvMs_NtNtCskhkPsqpzxNu_13rust_jira_mcp4jira6clientNtB6_10JiraClient14get_priorities0Ba_
FNDA:0,_RNCNvMs_NtNtCskhkPsqpzxNu_13rust_jira_mcp4jira6clientNtB6_10JiraClient15delete_work_log0Ba_
FNDA:2,_RNCNvMs_NtNtCskhkPsqpzxNu_13rust_jira_mcp4jira6clientNtB6_10JiraClient15get_issue_links0Ba_
FNDA:1,_RNCNvMs_NtNtCskhkPsqpzxNu_13rust_jira_mcp4jira6clientNtB6_10JiraClient15get_transitions0Ba_
FNDA:0,_RNCNvMs_NtNtCskhkPsqpzxNu_13rust_jira_mcp4jira6clientNtB6_10JiraClient15update_work_log0Ba_
FNDA:0,_RNCNvMs_NtNtCskhkPsqpzxNu_13rust_jira_mcp4jira6clientNtB6_10JiraClient16build_zephyr_url0Ba_
FNDA:0,_RNCNvMs_NtNtCskhkPsqpzxNu_13rust_jira_mcp4jira6clientNtB6_10JiraClient16build_zephyr_urls_0Ba_
FNDA:0,_RNCNvMs_NtNtCskhkPsqpzxNu_13rust_jira_mcp4jira6clientNtB6_10JiraClient16create_component0Ba_
FNDA:0,_RNCNvMs_NtNtCskhkPsqpzxNu_13rust_jira_mcp4jira6clientNtB6_10JiraClient16delete_component0Ba_
FNDA:5,_RNCNvMs_NtNtCskhkPsqpzxNu_13rust_jira_mcp4jira6clientNtB6_10JiraClient16transition_issue0Ba_
FNDA:1,_RNCNvMs_NtNtCskhkPsqpzxNu_13rust_jira_mcp4jira6clientNtB6_10JiraClient16update_component0Ba_
FNDA:1,_RNCNvMs_NtNtCskhkPsqpzxNu_13rust_jira_mcp4jira6clientNtB6_10JiraClient17add_issue_watcher0Ba_
FNDA:2,_RNCNvMs_NtNtCskhkPsqpzxNu_13rust_jira_mcp4jira6clientNtB6_10JiraClient17bulk_add_comments0Ba_
FNDA:2,_RNCNvMs_NtNtCskhkPsqpzxNu_13rust_jira_mcp4jira6clientNtB6_10JiraClient17create_issue_link0Ba_
FNDA:0,_RNCNvMs_NtNtCskhkPsqpzxNu_13rust_jira_mcp4jira6clientNtB6_10JiraClient17delete_attachment0Ba_
FNDA:1,_RNCNvMs_NtNtCskhkPsqpzxNu_13rust_jira_mcp4jira6clientNtB6_10JiraClient17delete_issue_link0Ba_
FNDA:1,_RNCNvMs_NtNtCskhkPsqpzxNu_13rust_jira_mcp4jira6clientNtB6_10JiraClient17get_custom_fields0Ba_
FNDA:15,_RNCNvMs_NtNtCskhkPsqpzxNu_13rust_jira_mcp4jira6clientNtB6_10JiraClient17perform_operation0Ba_
FNDA:1,_RNCNvMs_NtNtCskhkPsqpzxNu_13rust_jira_mcp4jira6clientNtB6_10JiraClient17upload_attachment0Ba_
FNDA:3,_RNCNvMs_NtNtCskhkPsqpzxNu_13rust_jira_mcp4jira6clientNtB6_10JiraClient18bulk_update_issues0Ba_
FNDA:2,_RNCNvMs_NtNtCskhkPsqpzxNu_13rust_jira_mcp4jira6clientNtB6_10JiraClient18get_issue_watchers0Ba_
FNDA:0,_RNCNvMs_NtNtCskhkPsqpzxNu_13rust_jira_mcp4jira6clientNtB6_10JiraClient19download_attachment0Ba_
FNDA:2,_RNCNvMs_NtNtCskhkPsqpzxNu_13rust_jira_mcp4jira6clientNtB6_10JiraClient19get_issue_work_logs0Ba_
FNDA:0,_RNCNvMs_NtNtCskhkPsqpzxNu_13rust_jira_mcp4jira6clientNtB6_10JiraClient20get_project_metadata0Ba_
FNDA:0,_RNCNvMs_NtNtCskhkPsqpzxNu_13rust_jira_mcp4jira6clientNtB6_10JiraClient20remove_issue_watcher0Ba_
FNDA:2,_RNCNvMs_NtNtCskhkPsqpzxNu_13rust_jira_mcp4jira6clientNtB6_10JiraClient21get_issue_attachments0Ba_
FNDA:0,_RNCNvMs_NtNtCskhkPsqpzxNu_13rust_jira_mcp4jira6clientNtB6_10JiraClient21get_zephyr_test_plans0Ba_
FNDA:1,_RNCNvMs_NtNtCskhkPsqpzxNu_13rust_jira_mcp4jira6clientNtB6_10JiraClient21get_zephyr_test_steps0Ba_
FNDA:2,_RNCNvMs_NtNtCskhkPsqpzxNu_13rust_jira_mcp4jira6clientNtB6_10JiraClient22bulk_transition_issues0Ba_
FNDA:2,_RNCNvMs_NtNtCskhkPsqpzxNu_13rust_jira_mcp4jira6clientNtB6_10JiraClient22get_project_components0Ba_
FNDA:0,_RNCNvMs_NtNtCskhkPsqpzxNu_13rust_jira_mcp4jira6clientNtB6_10JiraClient22get_zephyr_test_cycles0Ba_
FNDA:2,_RNCNvMs_NtNtCskhkPsqpzxNu_13rust_jira_mcp4jira6clientNtB6_10JiraClient23create_zephyr_test_case0Ba_
FNDA:1,_RNCNvMs_NtNtCskhkPsqpzxNu_13rust_jira_mcp4jira6clientNtB6_10JiraClient23create_zephyr_test_step0Ba_
FNDA:0,_RNCNvMs_NtNtCskhkPsqpzxNu_13rust_jira_mcp4jira6clientNtB6_10JiraClient23delete_zephyr_test_step0Ba_
FNDA:8,_RNCNvMs_NtNtCskhkPsqpzxNu_13rust_jira_mcp4jira6clientNtB6_10JiraClient23execute_bulk_operations0Ba_
FNDA:1,_RNCNvMs_NtNtCskhkPsqpzxNu_13rust_jira_mcp4jira6clientNtB6_10JiraClient23get_issue_type_metadata0Ba_
FNDA:1,_RNCNvMs_NtNtCskhkPsqpzxNu_13rust_jira_mcp4jira6clientNtB6_10JiraClient23get_project_issue_types0Ba_
FNDA:0,_RNCNvMs_NtNtCskhkPsqpzxNu_13rust_jira_mcp4jira6clientNtB6_10JiraClient23update_zephyr_test_step0Ba_
FNDA:15,_RNCNvMs_NtNtCskhkPsqpzxNu_13rust_jira_mcp4jira6clientNtB6_10JiraClient24execute_single_operation0Ba_
FNDA:3,_RNCNvMs_NtNtCskhkPsqpzxNu_13rust_jira_mcp4jira6clientNtB6_10JiraClient24search_zephyr_test_cases0Ba_
FNDA:1,_RNCNvMs_NtNtCskhkPsqpzxNu_13rust_jira_mcp4jira6clientNtB6_10JiraClient25get_project_configuration0Ba_
FNDA:0,_RNCNvMs_NtNtCskhkPsqpzxNu_13rust_jira_mcp4jira6clientNtB6_10JiraClient26get_zephyr_test_executions0Ba_
FNDA:0,_RNCNvMs_NtNtCskhkPsqpzxNu_13rust_jira_mcp4jira6clientNtB6_10JiraClient28create_zephyr_test_execution0Ba_
FNDA:0,_RNCNvMs_NtNtCskhkPsqpzxNu_13rust_jira_mcp4jira6clientNtB6_10JiraClient9build_url0Ba_
FNDA:0,_RNCNvMs_NtNtCskhkPsqpzxNu_13rust_jira_mcp4jira6clientNtB6_10JiraClient9build_urls_0Ba_
FNDA:7,_RNCNvMs_NtNtCskhkPsqpzxNu_13rust_jira_mcp4jira6clientNtB6_10JiraClient9get_issue0Ba_
FNDA:75,_RNvMNtNtCskhkPsqpzxNu_13rust_jira_mcp4jira6clientNtB2_11RateLimiter14wait_if_needed
FNDA:1758,_RNvMNtNtCskhkPsqpzxNu_13rust_jira_mcp4jira6clientNtB2_11RateLimiter3new
FNDA:2,_RNvMs_NtNtCskhkPsqpzxNu_13rust_jira_mcp4jira6clientNtB4_10JiraClient10get_labels
FNDA:5,_RNvMs_NtNtCskhkPsqpzxNu_13rust_jira_mcp4jira6clientNtB4_10JiraClient11add_comment
FNDA:77,_RNvMs_NtNtCskhkPsqpzxNu_13rust_jira_mcp4jira6clientNtB4_10JiraClient11auth_header
FNDA:0,_RNvMs_NtNtCskhkPsqpzxNu_13rust_jira_mcp4jira6clientNtB4_10JiraClient11clone_issue
FNDA:0,_RNvMs_NtNtCskhkPsqpzxNu_13rust_jira_mcp4jira6clientNtB4_10JiraClient11http_client
FNDA:1,_RNvMs_NtNtCskhkPsqpzxNu_13rust_jira_mcp4jira6clientNtB4_10JiraClient11link_issues
FNDA:1,_RNvMs_NtNtCskhkPsqpzxNu_13rust_jira_mcp4jira6clientNtB4_10JiraClient12add_work_log
FNDA:2,_RNvMs_NtNtCskhkPsqpzxNu_13rust_jira_mcp4jira6clientNtB4_10JiraClient12api_base_url
FNDA:3,_RNvMs_NtNtCskhkPsqpzxNu_13rust_jira_mcp4jira6clientNtB4_10JiraClient12create_issue
FNDA:1,_RNvMs_NtNtCskhkPsqpzxNu_13rust_jira_mcp4jira6clientNtB4_10JiraClient12create_label
FNDA:0,_RNvMs_NtNtCskhkPsqpzxNu_13rust_jira_mcp4jira6clientNtB4_10JiraClient12delete_label
FNDA:1,_RNvMs_NtNtCskhkPsqpzxNu_13rust_jira_mcp4jira6clientNtB4_10JiraClient12get_comments
FNDA:1,_RNvMs_NtNtCskhkPsqpzxNu_13rust_jira_mcp4jira6clientNtB4_10JiraClient12get_statuses
FNDA:23,_RNvMs_NtNtCskhkPsqpzxNu_13rust_jira_mcp4jira6clientNtB4_10JiraClient12should_retry
FNDA:8,_RNvMs_NtNtCskhkPsqpzxNu_13rust_jira_mcp4jira6clientNtB4_10JiraClient12update_issue
FNDA:0,_RNvMs_NtNtCskhkPsqpzxNu_13rust_jira_mcp4jira6clientNtB4_10JiraClient12update_label
FNDA:8,_RNvMs_NtNtCskhkPsqpzxNu_13rust_jira_mcp4jira6clientNtB4_10JiraClient13process_batch
FNDA:4,_RNvMs_NtNtCskhkPsqpzxNu_13rust_jira_mcp4jira6clientNtB4_10JiraClient13search_issues
FNDA:2,_RNvMs_NtNtCskhkPsqpzxNu_13rust_jira_mcp4jira6clientNtB4_10JiraClient14get_link_types
FNDA:1,_RNvMs_NtNtCskhkPsqpzxNu_13rust_jira_mcp4jira6clientNtB4_10JiraClient14get_priorities
FNDA:0,_RNvMs_NtNtCskhkPsqpzxNu_13rust_jira_mcp4jira6clientNtB4_10JiraClient15delete_work_log
FNDA:2,_RNvMs_NtNtCskhkPsqpzxNu_13rust_jira_mcp4jira6clientNtB4_10JiraClient15get_issue_links
FNDA:1,_RNvMs_NtNtCskhkPsqpzxNu_13rust_jira_mcp4jira6clientNtB4_10JiraClient15get_transitions
FNDA:0,_RNvMs_NtNtCskhkPsqpzxNu_13rust_jira_mcp4jira6clientNtB4_10JiraClient15update_work_log
FNDA:11,_RNvMs_NtNtCskhkPsqpzxNu_13rust_jira_mcp4jira6clientNtB4_10JiraClient16build_zephyr_url
FNDA:0,_RNvMs_NtNtCskhkPsqpzxNu_13rust_jira_mcp4jira6clientNtB4_10JiraClient16create_component
FNDA:0,_RNvMs_NtNtCskhkPsqpzxNu_13rust_jira_mcp4jira6clientNtB4_10JiraClient16delete_component
FNDA:5,_RNvMs_NtNtCskhkPsqpzxNu_13rust_jira_mcp4jira6clientNtB4_10JiraClient16transition_issue
FNDA:1,_RNvMs_NtNtCskhkPsqpzxNu_13rust_jira_mcp4jira6clientNtB4_10JiraClient16update_component
FNDA:1,_RNvMs_NtNtCskhkPsqpzxNu_13rust_jira_mcp4jira6clientNtB4_10JiraClient17add_issue_watcher
FNDA:2,_RNvMs_NtNtCskhkPsqpzxNu_13rust_jira_mcp4jira6clientNtB4_10JiraClient17bulk_add_comments
FNDA:2,_RNvMs_NtNtCskhkPsqpzxNu_13rust_jira_mcp4jira6clientNtB4_10JiraClient17create_issue_link
FNDA:0,_RNvMs_NtNtCskhkPsqpzxNu_13rust_jira_mcp4jira6clientNtB4_10JiraClient17delete_attachment
FNDA:1,_RNvMs_NtNtCskhkPsqpzxNu_13rust_jira_mcp4jira6clientNtB4_10JiraClient17delete_issue_link
FNDA:1,_RNvMs_NtNtCskhkPsqpzxNu_13rust_jira_mcp4jira6clientNtB4_10JiraClient17get_custom_fields
FNDA:15,_RNvMs_NtNtCskhkPsqpzxNu_13rust_jira_mcp4jira6clientNtB4_10JiraClient17perform_operation
FNDA:1,_RNvMs_NtNtCskhkPsqpzxNu_13rust_jira_mcp4jira6clientNtB4_10JiraClient17upload_attachment
FNDA:3,_RNvMs_NtNtCskhkPsqpzxNu_13rust_jira_mcp4jira6clientNtB4_10JiraClient18bulk_update_issues
FNDA:2,_RNvMs_NtNtCskhkPsqpzxNu_13rust_jira_mcp4jira6clientNtB4_10JiraClient18get_issue_watchers
FNDA:0,_RNvMs_NtNtCskhkPsqpzxNu_13rust_jira_mcp4jira6clientNtB4_10JiraClient19download_attachment
FNDA:2,_RNvMs_NtNtCskhkPsqpzxNu_13rust_jira_mcp4jira6clientNtB4_10JiraClient19get_issue_work_logs
FNDA:12,_RNvMs_NtNtCskhkPsqpzxNu_13rust_jira_mcp4jira6clientNtB4_10JiraClient19zephyr_api_base_url
FNDA:0,_RNvMs_NtNtCskhkPsqpzxNu_13rust_jira_mcp4jira6clientNtB4_10JiraClient20get_project_metadata
FNDA:0,_RNvMs_NtNtCskhkPsqpzxNu_13rust_jira_mcp4jira6clientNtB4_10JiraClient20remove_issue_watcher
FNDA:2,_RNvMs_NtNtCskhkPsqpzxNu_13rust_jira_mcp4jira6clientNtB4_10JiraClient21get_issue_attachments
FNDA:0,_RNvMs_NtNtCskhkPsqpzxNu_13rust_jira_mcp4jira6clientNtB4_10JiraClient21get_zephyr_test_plans
FNDA:1,_RNvMs_NtNtCskhkPsqpzxNu_13rust_jira_mcp4jira6clientNtB4_10JiraClient21get_zephyr_test_steps
FNDA:2,_RNvMs_NtNtCskhkPsqpzxNu_13rust_jira_mcp4jira6clientNtB4_10JiraClient22bulk_transition_issues
FNDA:2,_RNvMs_NtNtCskhkPsqpzxNu_13rust_jira_mcp4jira6clientNtB4_10JiraClient22get_project_components
FNDA:0,_RNvMs_NtNtCskhkPsqpzxNu_13rust_jira_mcp4jira6clientNtB4_10JiraClient22get_zephyr_test_cycles
FNDA:15,_RNvMs_NtNtCskhkPsqpzxNu_13rust_jira_mcp4jira6clientNtB4_10JiraClient22should_retry_operation
FNDA:2,_RNvMs_NtNtCskhkPsqpzxNu_13rust_jira_mcp4jira6clientNtB4_10JiraClient23create_zephyr_test_case
FNDA:1,_RNvMs_NtNtCskhkPsqpzxNu_13rust_jira_mcp4jira6clientNtB4_10JiraClient23create_zephyr_test_step
FNDA:0,_RNvMs_NtNtCskhkPsqpzxNu_13rust_jira_mcp4jira6clientNtB4_10JiraClient23delete_zephyr_test_step
FNDA:8,_RNvMs_NtNtCskhkPsqpzxNu_13rust_jira_mcp4jira6clientNtB4_10JiraClient23execute_bulk_operations
FNDA:1,_RNvMs_NtNtCskhkPsqpzxNu_13rust_jira_mcp4jira6clientNtB4_10JiraClient23get_issue_type_metadata
FNDA:1,_RNvMs_NtNtCskhkPsqpzxNu_13rust_jira_mcp4jira6clientNtB4_10JiraClient23get_project_issue_types
FNDA:0,_RNvMs_NtNtCskhkPsqpzxNu_13rust_jira_mcp4jira6clientNtB4_10JiraClient23update_zephyr_test_step
FNDA:15,_RNvMs_NtNtCskhkPsqpzxNu_13rust_jira_mcp4jira6clientNtB4_10JiraClient24execute_single_operation
FNDA:3,_RNvMs_NtNtCskhkPsqpzxNu_13rust_jira_mcp4jira6clientNtB4_10JiraClient24search_zephyr_test_cases
FNDA:1,_RNvMs_NtNtCskhkPsqpzxNu_13rust_jira_mcp4jira6clientNtB4_10JiraClient25get_project_configuration
FNDA:0,_RNvMs_NtNtCskhkPsqpzxNu_13rust_jira_mcp4jira6clientNtB4_10JiraClient26get_zephyr_test_executions
FNDA:0,_RNvMs_NtNtCskhkPsqpzxNu_13rust_jira_mcp4jira6clientNtB4_10JiraClient28create_zephyr_test_execution
FNDA:1758,_RNvMs_NtNtCskhkPsqpzxNu_13rust_jira_mcp4jira6clientNtB4_10JiraClient3new
FNDA:64,_RNvMs_NtNtCskhkPsqpzxNu_13rust_jira_mcp4jira6clientNtB4_10JiraClient9build_url
FNDA:7,_RNvMs_NtNtCskhkPsqpzxNu_13rust_jira_mcp4jira6clientNtB4_10JiraClient9get_issue
FNDA:1,_RINvMs_NtNtCskhkPsqpzxNu_13rust_jira_mcp4jira6clientNtB5_10JiraClient10zephyr_putNtNtCslJRJgdvPEaJ_10serde_json5value5ValueB1h_ECselElugPp0Na_16jira_client_test
FNDA:1,_RINvMs_NtNtCskhkPsqpzxNu_13rust_jira_mcp4jira6clientNtB5_10JiraClient11zephyr_postNtNtCslJRJgdvPEaJ_10serde_json5value5ValueB1i_ECselElugPp0Na_16jira_client_test
FNDA:2,_RINvMs_NtNtCskhkPsqpzxNu_13rust_jira_mcp4jira6clientNtB5_10JiraClient14zephyr_requestNtNtCslJRJgdvPEaJ_10serde_json5value5ValueB1l_ECselElugPp0Na_16jira_client_test
FNDA:2,_RINvMs_NtNtCskhkPsqpzxNu_13rust_jira_mcp4jira6clientNtB5_10JiraClient20build_zephyr_requestNtNtCslJRJgdvPEaJ_10serde_json5value5ValueECselElugPp0Na_16jira_client_test
FNDA:1,_RNCINvMs_NtNtCskhkPsqpzxNu_13rust_jira_mcp4jira6clientNtB7_10JiraClient10zephyr_putNtNtCslJRJgdvPEaJ_10serde_json5value5ValueB1j_E0CselElugPp0Na_16jira_client_test
FNDA:1,_RNCINvMs_NtNtCskhkPsqpzxNu_13rust_jira_mcp4jira6clientNtB7_10JiraClient11zephyr_postNtNtCslJRJgdvPEaJ_10serde_json5value5ValueB1k_E0CselElugPp0Na_16jira_client_test
FNDA:2,_RNCINvMs_NtNtCskhkPsqpzxNu_13rust_jira_mcp4jira6clientNtB7_10JiraClient14zephyr_requestNtNtCslJRJgdvPEaJ_10serde_json5value5ValueB1n_E0CselElugPp0Na_16jira_client_test
FNDA:0,_RNCNCINvMs_NtNtCskhkPsqpzxNu_13rust_jira_mcp4jira6clientNtB9_10JiraClient14zephyr_requestNtNtCslJRJgdvPEaJ_10serde_json5value5ValueB1p_E00CselElugPp0Na_16jira_client_test
FNDA:0,_RNCNCINvMs_NtNtCskhkPsqpzxNu_13rust_jira_mcp4jira6clientNtB9_10JiraClient14zephyr_requestNtNtCslJRJgdvPEaJ_10serde_json5value5ValueB1p_E0s_0CselElugPp0Na_16jira_client_test
FNDA:0,_RNvMNtNtCslEfzt21w4nZ_13rust_jira_mcp4jira6clientNtB2_11RateLimiter14wait_if_needed
FNDA:0,_RNvMNtNtCslEfzt21w4nZ_13rust_jira_mcp4jira6clientNtB2_11RateLimiter3new
FNDA:0,_RNvMs_NtNtCslEfzt21w4nZ_13rust_jira_mcp4jira6clientNtB4_10JiraClient10get_labels
FNDA:0,_RNvMs_NtNtCslEfzt21w4nZ_13rust_jira_mcp4jira6clientNtB4_10JiraClient11add_comment
FNDA:0,_RNvMs_NtNtCslEfzt21w4nZ_13rust_jira_mcp4jira6clientNtB4_10JiraClient11auth_header
FNDA:0,_RNvMs_NtNtCslEfzt21w4nZ_13rust_jira_mcp4jira6clientNtB4_10JiraClient11clone_issue
FNDA:0,_RNvMs_NtNtCslEfzt21w4nZ_13rust_jira_mcp4jira6clientNtB4_10JiraClient11http_client
FNDA:0,_RNvMs_NtNtCslEfzt21w4nZ_13rust_jira_mcp4jira6clientNtB4_10JiraClient11link_issues
FNDA:0,_RNvMs_NtNtCslEfzt21w4nZ_13rust_jira_mcp4jira6clientNtB4_10JiraClient12add_work_log
FNDA:0,_RNvMs_NtNtCslEfzt21w4nZ_13rust_jira_mcp4jira6clientNtB4_10JiraClient12api_base_url
FNDA:0,_RNvMs_NtNtCslEfzt21w4nZ_13rust_jira_mcp4jira6clientNtB4_10JiraClient12create_issue
FNDA:0,_RNvMs_NtNtCslEfzt21w4nZ_13rust_jira_mcp4jira6clientNtB4_10JiraClient12create_label
FNDA:0,_RNvMs_NtNtCslEfzt21w4nZ_13rust_jira_mcp4jira6clientNtB4_10JiraClient12delete_label
FNDA:0,_RNvMs_NtNtCslEfzt21w4nZ_13rust_jira_mcp4jira6clientNtB4_10JiraClient12get_comments
FNDA:0,_RNvMs_NtNtCslEfzt21w4nZ_13rust_jira_mcp4jira6clientNtB4_10JiraClient12get_statuses
FNDA:0,_RNvMs_NtNtCslEfzt21w4nZ_13rust_jira_mcp4jira6clientNtB4_10JiraClient12should_retry
FNDA:0,_RNvMs_NtNtCslEfzt21w4nZ_13rust_jira_mcp4jira6clientNtB4_10JiraClient12update_issue
FNDA:0,_RNvMs_NtNtCslEfzt21w4nZ_13rust_jira_mcp4jira6clientNtB4_10JiraClient12update_label
FNDA:0,_RNvMs_NtNtCslEfzt21w4nZ_13rust_jira_mcp4jira6clientNtB4_10JiraClient13process_batch
FNDA:0,_RNvMs_NtNtCslEfzt21w4nZ_13rust_jira_mcp4jira6clientNtB4_10JiraClient13search_issues
FNDA:0,_RNvMs_NtNtCslEfzt21w4nZ_13rust_jira_mcp4jira6clientNtB4_10JiraClient14get_link_types
FNDA:0,_RNvMs_NtNtCslEfzt21w4nZ_13rust_jira_mcp4jira6clientNtB4_10JiraClient14get_priorities
FNDA:0,_RNvMs_NtNtCslEfzt21w4nZ_13rust_jira_mcp4jira6clientNtB4_10JiraClient15delete_work_log
FNDA:0,_RNvMs_NtNtCslEfzt21w4nZ_13rust_jira_mcp4jira6clientNtB4_10JiraClient15get_issue_links
FNDA:0,_RNvMs_NtNtCslEfzt21w4nZ_13rust_jira_mcp4jira6clientNtB4_10JiraClient15get_transitions
FNDA:0,_RNvMs_NtNtCslEfzt21w4nZ_13rust_jira_mcp4jira6clientNtB4_10JiraClient15update_work_log
FNDA:0,_RNvMs_NtNtCslEfzt21w4nZ_13rust_jira_mcp4jira6clientNtB4_10JiraClient16build_zephyr_url
FNDA:0,_RNvMs_NtNtCslEfzt21w4nZ_13rust_jira_mcp4jira6clientNtB4_10JiraClient16create_component
FNDA:0,_RNvMs_NtNtCslEfzt21w4nZ_13rust_jira_mcp4jira6clientNtB4_10JiraClient16delete_component
FNDA:0,_RNvMs_NtNtCslEfzt21w4nZ_13rust_jira_mcp4jira6clientNtB4_10JiraClient16transition_issue
FNDA:0,_RNvMs_NtNtCslEfzt21w4nZ_13rust_jira_mcp4jira6clientNtB4_10JiraClient16update_component
FNDA:0,_RNvMs_NtNtCslEfzt21w4nZ_13rust_jira_mcp4jira6clientNtB4_10JiraClient17add_issue_watcher
FNDA:0,_RNvMs_NtNtCslEfzt21w4nZ_13rust_jira_mcp4jira6clientNtB4_10JiraClient17bulk_add_comments
FNDA:0,_RNvMs_NtNtCslEfzt21w4nZ_13rust_jira_mcp4jira6clientNtB4_10JiraClient17create_issue_link
FNDA:0,_RNvMs_NtNtCslEfzt21w4nZ_13rust_jira_mcp4jira6clientNtB4_10JiraClient17delete_attachment
FNDA:0,_RNvMs_NtNtCslEfzt21w4nZ_13rust_jira_mcp4jira6clientNtB4_10JiraClient17delete_issue_link
FNDA:0,_RNvMs_NtNtCslEfzt21w4nZ_13rust_jira_mcp4jira6clientNtB4_10JiraClient17get_custom_fields
FNDA:0,_RNvMs_NtNtCslEfzt21w4nZ_13rust_jira_mcp4jira6clientNtB4_10JiraClient17perform_operation
FNDA:0,_RNvMs_NtNtCslEfzt21w4nZ_13rust_jira_mcp4jira6clientNtB4_10JiraClient17upload_attachment
FNDA:0,_RNvMs_NtNtCslEfzt21w4nZ_13rust_jira_mcp4jira6clientNtB4_10JiraClient18bulk_update_issues
FNDA:0,_RNvMs_NtNtCslEfzt21w4nZ_13rust_jira_mcp4jira6clientNtB4_10JiraClient18get_issue_watchers
FNDA:0,_RNvMs_NtNtCslEfzt21w4nZ_13rust_jira_mcp4jira6clientNtB4_10JiraClient19download_attachment
FNDA:0,_RNvMs_NtNtCslEfzt21w4nZ_13rust_jira_mcp4jira6clientNtB4_10JiraClient19get_issue_work_logs
FNDA:0,_RNvMs_NtNtCslEfzt21w4nZ_13rust_jira_mcp4jira6clientNtB4_10JiraClient19zephyr_api_base_url
FNDA:0,_RNvMs_NtNtCslEfzt21w4nZ_13rust_jira_mcp4jira6clientNtB4_10JiraClient20get_project_metadata
FNDA:0,_RNvMs_NtNtCslEfzt21w4nZ_13rust_jira_mcp4jira6clientNtB4_10JiraClient20remove_issue_watcher
FNDA:0,_RNvMs_NtNtCslEfzt21w4nZ_13rust_jira_mcp4jira6clientNtB4_10JiraClient21get_issue_attachments
FNDA:0,_RNvMs_NtNtCslEfzt21w4nZ_13rust_jira_mcp4jira6clientNtB4_10JiraClient21get_zephyr_test_plans
FNDA:0,_RNvMs_NtNtCslEfzt21w4nZ_13rust_jira_mcp4jira6clientNtB4_10JiraClient21get_zephyr_test_steps
FNDA:0,_RNvMs_NtNtCslEfzt21w4nZ_13rust_jira_mcp4jira6clientNtB4_10JiraClient22bulk_transition_issues
FNDA:0,_RNvMs_NtNtCslEfzt21w4nZ_13rust_jira_mcp4jira6clientNtB4_10JiraClient22get_project_components
FNDA:0,_RNvMs_NtNtCslEfzt21w4nZ_13rust_jira_mcp4jira6clientNtB4_10JiraClient22get_zephyr_test_cycles
FNDA:0,_RNvMs_NtNtCslEfzt21w4nZ_13rust_jira_mcp4jira6clientNtB4_10JiraClient22should_retry_operation
FNDA:0,_RNvMs_NtNtCslEfzt21w4nZ_13rust_jira_mcp4jira6clientNtB4_10JiraClient23create_zephyr_test_case
FNDA:0,_RNvMs_NtNtCslEfzt21w4nZ_13rust_jira_mcp4jira6clientNtB4_10JiraClient23create_zephyr_test_step
FNDA:0,_RNvMs_NtNtCslEfzt21w4nZ_13rust_jira_mcp4jira6clientNtB4_10JiraClient23delete_zephyr_test_step
FNDA:0,_RNvMs_NtNtCslEfzt21w4nZ_13rust_jira_mcp4jira6clientNtB4_10JiraClient23execute_bulk_operations
FNDA:0,_RNvMs_NtNtCslEfzt21w4nZ_13rust_jira_mcp4jira6clientNtB4_10JiraClient23get_issue_type_metadata
FNDA:0,_RNvMs_NtNtCslEfzt21w4nZ_13rust_jira_mcp4jira6clientNtB4_10JiraClient23get_project_issue_types
FNDA:0,_RNvMs_NtNtCslEfzt21w4nZ_13rust_jira_mcp4jira6clientNtB4_10JiraClient23update_zephyr_test_step
FNDA:0,_RNvMs_NtNtCslEfzt21w4nZ_13rust_jira_mcp4jira6clientNtB4_10JiraClient24execute_single_operation
FNDA:0,_RNvMs_NtNtCslEfzt21w4nZ_13rust_jira_mcp4jira6clientNtB4_10JiraClient24search_zephyr_test_cases
FNDA:0,_RNvMs_NtNtCslEfzt21w4nZ_13rust_jira_mcp4jira6clientNtB4_10JiraClient25get_project_configuration
FNDA:0,_RNvMs_NtNtCslEfzt21w4nZ_13rust_jira_mcp4jira6clientNtB4_10JiraClient26get_zephyr_test_executions
FNDA:0,_RNvMs_NtNtCslEfzt21w4nZ_13rust_jira_mcp4jira6clientNtB4_10JiraClient28create_zephyr_test_execution
FNDA:0,_RNvMs_NtNtCslEfzt21w4nZ_13rust_jira_mcp4jira6clientNtB4_10JiraClient3new
FNDA:0,_RNvMs_NtNtCslEfzt21w4nZ_13rust_jira_mcp4jira6clientNtB4_10JiraClient9build_url
FNDA:0,_RNvMs_NtNtCslEfzt21w4nZ_13rust_jira_mcp4jira6clientNtB4_10JiraClient9get_issue
FNDA:0,_RINvMs_NtNtCslEfzt21w4nZ_13rust_jira_mcp4jira6clientNtB5_10JiraClient10zephyr_getNtNtCslJRJgdvPEaJ_10serde_json5value5ValueEB9_
FNDA:0,_RINvMs_NtNtCslEfzt21w4nZ_13rust_jira_mcp4jira6clientNtB5_10JiraClient10zephyr_getNtNtNtB9_5types4jira26ZephyrTestCaseSearchResultEB9_
FNDA:0,_RINvMs_NtNtCslEfzt21w4nZ_13rust_jira_mcp4jira6clientNtB5_10JiraClient10zephyr_putNtNtNtB9_5types4jira14ZephyrTestStepNtB1j_27ZephyrTestStepUpdateRequestEB9_
FNDA:0,_RINvMs_NtNtCslEfzt21w4nZ_13rust_jira_mcp4jira6clientNtB5_10JiraClient11zephyr_postNtNtNtB9_5types4jira14ZephyrTestCaseNtB1k_27ZephyrTestCaseCreateRequestEB9_
FNDA:0,_RINvMs_NtNtCslEfzt21w4nZ_13rust_jira_mcp4jira6clientNtB5_10JiraClient11zephyr_postNtNtNtB9_5types4jira14ZephyrTestStepNtB1k_27ZephyrTestStepCreateRequestEB9_
FNDA:0,_RINvMs_NtNtCslEfzt21w4nZ_13rust_jira_mcp4jira6clientNtB5_10JiraClient11zephyr_postNtNtNtB9_5types4jira19ZephyrTestExecutionNtB1k_32ZephyrTestExecutionCreateRequestEB9_
FNDA:0,_RINvMs_NtNtCslEfzt21w4nZ_13rust_jira_mcp4jira6clientNtB5_10JiraClient13build_requestNtNtCslJRJgdvPEaJ_10serde_json5value5ValueEB9_
FNDA:0,_RINvMs_NtNtCslEfzt21w4nZ_13rust_jira_mcp4jira6clientNtB5_10JiraClient13build_requestNtNtNtB9_5types4jira22JiraLabelCreateRequestEB9_
FNDA:0,_RINvMs_NtNtCslEfzt21w4nZ_13rust_jira_mcp4jira6clientNtB5_10JiraClient13build_requestNtNtNtB9_5types4jira22JiraLabelUpdateRequestEB9_
FNDA:0,_RINvMs_NtNtCslEfzt21w4nZ_13rust_jira_mcp4jira6clientNtB5_10JiraClient13build_requestNtNtNtB9_5types4jira24JiraWorkLogCreateRequestEB9_
FNDA:0,_RINvMs_NtNtCslEfzt21w4nZ_13rust_jira_mcp4jira6clientNtB5_10JiraClient13build_requestNtNtNtB9_5types4jira24JiraWorkLogUpdateRequestEB9_
FNDA:0,_RINvMs_NtNtCslEfzt21w4nZ_13rust_jira_mcp4jira6clientNtB5_10JiraClient13build_requestNtNtNtB9_5types4jira26JiraComponentCreateRequestEB9_
FNDA:0,_RINvMs_NtNtCslEfzt21w4nZ_13rust_jira_mcp4jira6clientNtB5_10JiraClient13build_requestNtNtNtB9_5types4jira26JiraComponentUpdateRequestEB9_
FNDA:0,_RINvMs_NtNtCslEfzt21w4nZ_13rust_jira_mcp4jira6clientNtB5_10JiraClient13build_requestNtNtNtB9_5types4jira26JiraIssueLinkCreateRequestEB9_
FNDA:0,_RINvMs_NtNtCslEfzt21w4nZ_13rust_jira_mcp4jira6clientNtB5_10JiraClient13build_requestuEB9_
FNDA:0,_RINvMs_NtNtCslEfzt21w4nZ_13rust_jira_mcp4jira6clientNtB5_10JiraClient13zephyr_deleteNtNtCslJRJgdvPEaJ_10serde_json5value5ValueEB9_
FNDA:0,_RINvMs_NtNtCslEfzt21w4nZ_13rust_jira_mcp4jira6clientNtB5_10JiraClient14zephyr_requestNtNtCslJRJgdvPEaJ_10serde_json5value5ValueuEB9_
FNDA:0,_RINvMs_NtNtCslEfzt21w4nZ_13rust_jira_mcp4jira6clientNtB5_10JiraClient14zephyr_requestNtNtNtB9_5types4jira14ZephyrTestCaseNtB1n_27ZephyrTestCaseCreateRequestEB9_
FNDA:0,_RINvMs_NtNtCslEfzt21w4nZ_13rust_jira_mcp4jira6clientNtB5_10JiraClient14zephyr_requestNtNtNtB9_5types4jira14ZephyrTestStepNtB1n_27ZephyrTestStepCreateRequestEB9_
FNDA:0,_RINvMs_NtNtCslEfzt21w4nZ_13rust_jira_mcp4jira6clientNtB5_10JiraClient14zephyr_requestNtNtNtB9_5types4jira14ZephyrTestStepNtB1n_27ZephyrTestStepUpdateRequestEB9_
FNDA:0,_RINvMs_NtNtCslEfzt21w4nZ_13rust_jira_mcp4jira6clientNtB5_10JiraClient14zephyr_requestNtNtNtB9_5types4jira19ZephyrTestExecutionNtB1n_32ZephyrTestExecutionCreateRequestEB9_
FNDA:0,_RINvMs_NtNtCslEfzt21w4nZ_13rust_jira_mcp4jira6clientNtB5_10JiraClient14zephyr_requestNtNtNtB9_5types4jira26ZephyrTestCaseSearchResultuEB9_
FNDA:0,_RINvMs_NtNtCslEfzt21w4nZ_13rust_jira_mcp4jira6clientNtB5_10JiraClient20build_zephyr_requestNtNtNtB9_5types4jira27ZephyrTestCaseCreateRequestEB9_
FNDA:0,_RINvMs_NtNtCslEfzt21w4nZ_13rust_jira_mcp4jira6clientNtB5_10JiraClient20build_zephyr_requestNtNtNtB9_5types4jira27ZephyrTestStepCreateRequestEB9_
FNDA:0,_RINvMs_NtNtCslEfzt21w4nZ_13rust_jira_mcp4jira6clientNtB5_10JiraClient20build_zephyr_requestNtNtNtB9_5types4jira27ZephyrTestStepUpdateRequestEB9_
FNDA:0,_RINvMs_NtNtCslEfzt21w4nZ_13rust_jira_mcp4jira6clientNtB5_10JiraClient20build_zephyr_requestNtNtNtB9_5types4jira32ZephyrTestExecutionCreateRequestEB9_
FNDA:0,_RINvMs_NtNtCslEfzt21w4nZ_13rust_jira_mcp4jira6clientNtB5_10JiraClient20build_zephyr_requestuEB9_
FNDA:0,_RINvMs_NtNtCslEfzt21w4nZ_13rust_jira_mcp4jira6clientNtB5_10JiraClient3getINtNtCsiAD6NEzHbBo_5alloc3vec3VecNtNtNtB9_5types4jira10JiraStatusEEB9_
FNDA:0,_RINvMs_NtNtCslEfzt21w4nZ_13rust_jira_mcp4jira6clientNtB5_10JiraClient3getINtNtCsiAD6NEzHbBo_5alloc3vec3VecNtNtNtB9_5types4jira12JiraLinkTypeEEB9_
FNDA:0,_RINvMs_NtNtCslEfzt21w4nZ_13rust_jira_mcp4jira6clientNtB5_10JiraClient3getINtNtCsiAD6NEzHbBo_5alloc3vec3VecNtNtNtB9_5types4jira12JiraPriorityEEB9_
FNDA:0,_RINvMs_NtNtCslEfzt21w4nZ_13rust_jira_mcp4jira6clientNtB5_10JiraClient3getINtNtCsiAD6NEzHbBo_5alloc3vec3VecNtNtNtB9_5types4jira13JiraComponentEEB9_
FNDA:0,_RINvMs_NtNtCslEfzt21w4nZ_13rust_jira_mcp4jira6clientNtB5_10JiraClient3getNtNtCslJRJgdvPEaJ_10serde_json5value5ValueEB9_
FNDA:0,_RINvMs_NtNtCslEfzt21w4nZ_13rust_jira_mcp4jira6clientNtB5_10JiraClient3getNtNtNtB9_5types4jira13JiraIssueTypeEB9_
FNDA:0,_RINvMs_NtNtCslEfzt21w4nZ_13rust_jira_mcp4jira6clientNtB5_10JiraClient3getNtNtNtB9_5types4jira16JiraSearchResultEB9_
FNDA:0,_RINvMs_NtNtCslEfzt21w4nZ_13rust_jira_mcp4jira6clientNtB5_10JiraClient3getNtNtNtB9_5types4jira20JiraWatchersResponseEB9_
FNDA:0,_RINvMs_NtNtCslEfzt21w4nZ_13rust_jira_mcp4jira6clientNtB5_10JiraClient3getNtNtNtB9_5types4jira9JiraIssueEB9_
FNDA:0,_RINvMs_NtNtCslEfzt21w4nZ_13rust_jira_mcp4jira6clientNtB5_10JiraClient3putNtNtCslJRJgdvPEaJ_10serde_json5value5ValueB19_EB9_
FNDA:0,_RINvMs_NtNtCslEfzt21w4nZ_13rust_jira_mcp4jira6clientNtB5_10JiraClient3putNtNtNtB9_5types4jira11JiraWorkLogNtB1b_24JiraWorkLogUpdateRequestEB9_
FNDA:0,_RINvMs_NtNtCslEfzt21w4nZ_13rust_jira_mcp4jira6clientNtB5_10JiraClient3putNtNtNtB9_5types4jira13JiraComponentNtB1b_26JiraComponentUpdateRequestEB9_
FNDA:0,_RINvMs_NtNtCslEfzt21w4nZ_13rust_jira_mcp4jira6clientNtB5_10JiraClient3putNtNtNtB9_5types4jira9JiraLabelNtB1b_22JiraLabelUpdateRequestEB9_
FNDA:0,_RINvMs_NtNtCslEfzt21w4nZ_13rust_jira_mcp4jira6clientNtB5_10JiraClient4postNtNtCslJRJgdvPEaJ_10serde_json5value5ValueB1a_EB9_
FNDA:0,_RINvMs_NtNtCslEfzt21w4nZ_13rust_jira_mcp4jira6clientNtB5_10JiraClient4postNtNtCslJRJgdvPEaJ_10serde_json5value5ValueNtNtNtB9_5types4jira26JiraIssueLinkCreateRequestEB9_
FNDA:0,_RINvMs_NtNtCslEfzt21w4nZ_13rust_jira_mcp4jira6clientNtB5_10JiraClient4postNtNtNtB9_5types4jira11JiraCommentNtNtCslJRJgdvPEaJ_10serde_json5value5ValueEB9_
FNDA:0,_RINvMs_NtNtCslEfzt21w4nZ_13rust_jira_mcp4jira6clientNtB5_10JiraClient4postNtNtNtB9_5types4jira11JiraWorkLogNtB1c_24JiraWorkLogCreateRequestEB9_
FNDA:0,_RINvMs_NtNtCslEfzt21w4nZ_13rust_jira_mcp4jira6clientNtB5_10JiraClient4postNtNtNtB9_5types4jira13JiraComponentNtB1c_26JiraComponentCreateRequestEB9_
FNDA:0,_RINvMs_NtNtCslEfzt21w4nZ_13rust_jira_mcp4jira6clientNtB5_10JiraClient4postNtNtNtB9_5types4jira9JiraIssueNtNtCslJRJgdvPEaJ_10serde_json5value5ValueEB9_
FNDA:0,_RINvMs_NtNtCslEfzt21w4nZ_13rust_jira_mcp4jira6clientNtB5_10JiraClient4postNtNtNtB9_5types4jira9JiraLabelNtB1c_22JiraLabelCreateRequestEB9_
FNDA:0,_RINvMs_NtNtCslEfzt21w4nZ_13rust_jira_mcp4jira6clientNtB5_10JiraClient6deleteNtNtCslJRJgdvPEaJ_10serde_json5value5ValueEB9_
FNDA:0,_RINvMs_NtNtCslEfzt21w4nZ_13rust_jira_mcp4jira6clientNtB5_10JiraClient7requestINtNtCsiAD6NEzHbBo_5alloc3vec3VecNtNtNtB9_5types4jira10JiraStatusEuEB9_
FNDA:0,_RINvMs_NtNtCslEfzt21w4nZ_13rust_jira_mcp4jira6clientNtB5_10JiraClient7requestINtNtCsiAD6NEzHbBo_5alloc3vec3VecNtNtNtB9_5types4jira12JiraLinkTypeEuEB9_
FNDA:0,_RINvMs_NtNtCslEfzt21w4nZ_13rust_jira_mcp4jira6clientNtB5_10JiraClient7requestINtNtCsiAD6NEzHbBo_5alloc3vec3VecNtNtNtB9_5types4jira12JiraPriorityEuEB9_
FNDA:0,_RINvMs_NtNtCslEfzt21w4nZ_13rust_jira_mcp4jira6clientNtB5_10JiraClient7requestINtNtCsiAD6NEzHbBo_5alloc3vec3VecNtNtNtB9_5types4jira13JiraComponentEuEB9_
FNDA:0,_RINvMs_NtNtCslEfzt21w4nZ_13rust_jira_mcp4jira6clientNtB5_10JiraClient7requestNtNtCslJRJgdvPEaJ_10serde_json5value5ValueB1d_EB9_
FNDA:0,_RINvMs_NtNtCslEfzt21w4nZ_13rust_jira_mcp4jira6clientNtB5_10JiraClient7requestNtNtCslJRJgdvPEaJ_10serde_json5value5ValueNtNtNtB9_5types4jira26JiraIssueLinkCreateRequestEB9_
FNDA:0,_RINvMs_NtNtCslEfzt21w4nZ_13rust_jira_mcp4jira6clientNtB5_10JiraClient7requestNtNtCslJRJgdvPEaJ_10serde_json5value5ValueuEB9_
FNDA:0,_RINvMs_NtNtCslEfzt21w4nZ_13rust_jira_mcp4jira6clientNtB5_10JiraClient7requestNtNtNtB9_5types4jira11JiraCommentNtNtCslJRJgdvPEaJ_10serde_json5value5ValueEB9_
FNDA:0,_RINvMs_NtNtCslEfzt21w4nZ_13rust_jira_mcp4jira6clientNtB5_10JiraClient7requestNtNtNtB9_5types4jira11JiraWorkLogNtB1f_24JiraWorkLogCreateRequestEB9_
FNDA:0,_RINvMs_NtNtCslEfzt21w4nZ_13rust_jira_mcp4jira6clientNtB5_10JiraClient7requestNtNtNtB9_5types4jira11JiraWorkLogNtB1f_24JiraWorkLogUpdateRequestEB9_
FNDA:0,_RINvMs_NtNtCslEfzt21w4nZ_13rust_jira_mcp4jira6clientNtB5_10JiraClient7requestNtNtNtB9_5types4jira13JiraComponentNtB1f_26JiraComponentCreateRequestEB9_
FNDA:0,_RINvMs_NtNtCslEfzt21w4nZ_13rust_jira_mcp4jira6clientNtB5_10JiraClient7requestNtNtNtB9_5types4jira13JiraComponentNtB1f_26JiraComponentUpdateRequestEB9_
FNDA:0,_RINvMs_NtNtCslEfzt21w4nZ_13rust_jira_mcp4jira6clientNtB5_10JiraClient7requestNtNtNtB9_5types4jira13JiraIssueTypeuEB9_
FNDA:0,_RINvMs_NtNtCslEfzt21w4nZ_13rust_jira_mcp4jira6clientNtB5_10JiraClient7requestNtNtNtB9_5types4jira16JiraSearchResultuEB9_
FNDA:0,_RINvMs_NtNtCslEfzt21w4nZ_13rust_jira_mcp4jira6clientNtB5_10JiraClient7requestNtNtNtB9_5types4jira20JiraWatchersResponseuEB9_
FNDA:0,_RINvMs_NtNtCslEfzt21w4nZ_13rust_jira_mcp4jira6clientNtB5_10JiraClient7requestNtNtNtB9_5types4jira9JiraIssueNtNtCslJRJgdvPEaJ_10serde_json5value5ValueEB9_
FNDA:0,_RINvMs_NtNtCslEfzt21w4nZ_13rust_jira_mcp4jira6clientNtB5_10JiraClient7requestNtNtNtB9_5types4jira9JiraIssueuEB9_
FNDA:0,_RINvMs_NtNtCslEfzt21w4nZ_13rust_jira_mcp4jira6clientNtB5_10JiraClient7requestNtNtNtB9_5types4jira9JiraLabelNtB1f_22JiraLabelCreateRequestEB9_
FNDA:0,_RINvMs_NtNtCslEfzt21w4nZ_13rust_jira_mcp4jira6clientNtB5_10JiraClient7requestNtNtNtB9_5types4jira9JiraLabelNtB1f_22JiraLabelUpdateRequestEB9_
FNDA:0,_RNCINvMs_NtNtCslEfzt21w4nZ_13rust_jira_mcp4jira6clientNtB7_10JiraClient10zephyr_getNtNtCslJRJgdvPEaJ_10serde_json5value5ValueE0Bb_
FNDA:0,_RNCINvMs_NtNtCslEfzt21w4nZ_13rust_jira_mcp4jira6clientNtB7_10JiraClient10zephyr_getNtNtNtBb_5types4jira26ZephyrTestCaseSearchResultE0Bb_
FNDA:0,_RNCINvMs_NtNtCslEfzt21w4nZ_13rust_jira_mcp4jira6clientNtB7_10JiraClient10zephyr_putNtNtNtBb_5types4jira14ZephyrTestStepNtB1l_27ZephyrTestStepUpdateRequestE0Bb_
FNDA:0,_RNCINvMs_NtNtCslEfzt21w4nZ_13rust_jira_mcp4jira6clientNtB7_10JiraClient11zephyr_postNtNtNtBb_5types4jira14ZephyrTestCaseNtB1m_27ZephyrTestCaseCreateRequestE0Bb_
FNDA:0,_RNCINvMs_NtNtCslEfzt21w4nZ_13rust_jira_mcp4jira6clientNtB7_10JiraClient11zephyr_postNtNtNtBb_5types4jira14ZephyrTestStepNtB1m_27ZephyrTestStepCreateRequestE0Bb_
FNDA:0,_RNCINvMs_NtNtCslEfzt21w4nZ_13rust_jira_mcp4jira6clientNtB7_10JiraClient11zephyr_postNtNtNtBb_5types4jira19ZephyrTestExecutionNtB1m_32ZephyrTestExecutionCreateRequestE0Bb_
FNDA:0,_RNCINvMs_NtNtCslEfzt21w4nZ_13rust_jira_mcp4jira6clientNtB7_10JiraClient13zephyr_deleteNtNtCslJRJgdvPEaJ_10serde_json5value5ValueE0Bb_
FNDA:0,_RNCINvMs_NtNtCslEfzt21w4nZ_13rust_jira_mcp4jira6clientNtB7_10JiraClient14zephyr_requestNtNtCslJRJgdvPEaJ_10serde_json5value5ValueuE0Bb_
FNDA:0,_RNCINvMs_NtNtCslEfzt21w4nZ_13rust_jira_mcp4jira6clientNtB7_10JiraClient14zephyr_requestNtNtNtBb_5types4jira14ZephyrTestCaseNtB1p_27ZephyrTestCaseCreateRequestE0Bb_
FNDA:0,_RNCINvMs_NtNtCslEfzt21w4nZ_13rust_jira_mcp4jira6clientNtB7_10JiraClient14zephyr_requestNtNtNtBb_5types4jira14ZephyrTestStepNtB1p_27ZephyrTestStepCreateRequestE0Bb_
FNDA:0,_RNCINvMs_NtNtCslEfzt21w4nZ_13rust_jira_mcp4jira6clientNtB7_10JiraClient14zephyr_requestNtNtNtBb_5types4jira14ZephyrTestStepNtB1p_27ZephyrTestStepUpdateRequestE0Bb_
FNDA:0,_RNCINvMs_NtNtCslEfzt21w4nZ_13rust_jira_mcp4jira6clientNtB7_10JiraClient14zephyr_requestNtNtNtBb_5types4jira19ZephyrTestExecutionNtB1p_32ZephyrTestExecutionCreateRequestE0Bb_
FNDA:0,_RNCINvMs_NtNtCslEfzt21w4nZ_13rust_jira_mcp4jira6clientNtB7_10JiraClient14zephyr_requestNtNtNtBb_5types4jira26ZephyrTestCaseSearchResultuE0Bb_
FNDA:0,_RNCINvMs_NtNtCslEfzt21w4nZ_13rust_jira_mcp4jira6clientNtB7_10JiraClient3getINtNtCsiAD6NEzHbBo_5alloc3vec3VecNtNtNtBb_5types4jira10JiraStatusEE0Bb_
FNDA:0,_RNCINvMs_NtNtCslEfzt21w4nZ_13rust_jira_mcp4jira6clientNtB7_10JiraClient3getINtNtCsiAD6NEzHbBo_5alloc3vec3VecNtNtNtBb_5types4jira12JiraLinkTypeEE0Bb_
FNDA:0,_RNCINvMs_NtNtCslEfzt21w4nZ_13rust_jira_mcp4jira6clientNtB7_10JiraClient3getINtNtCsiAD6NEzHbBo_5alloc3vec3VecNtNtNtBb_5types4jira12JiraPriorityEE0Bb_
FNDA:0,_RNCINvMs_NtNtCslEfzt21w4nZ_13rust_jira_mcp4jira6clientNtB7_10JiraClient3getINtNtCsiAD6NEzHbBo_5alloc3vec3VecNtNtNtBb_5types4jira13JiraComponentEE0Bb_
FNDA:0,_RNCINvMs_NtNtCslEfzt21w4nZ_13rust_jira_mcp4jira6clientNtB7_10JiraClient3getNtNtCslJRJgdvPEaJ_10serde_json5value5ValueE0Bb_
FNDA:0,_RNCINvMs_NtNtCslEfzt21w4nZ_13rust_jira_mcp4jira6clientNtB7_10JiraClient3getNtNtNtBb_5types4jira13JiraIssueTypeE0Bb_
FNDA:0,_RNCINvMs_NtNtCslEfzt21w4nZ_13rust_jira_mcp4jira6clientNtB7_10JiraClient3getNtNtNtBb_5types4jira16JiraSearchResultE0Bb_
FNDA:0,_RNCINvMs_NtNtCslEfzt21w4nZ_13rust_jira_mcp4jira6clientNtB7_10JiraClient3getNtNtNtBb_5types4jira20JiraWatchersResponseE0Bb_
FNDA:0,_RNCINvMs_NtNtCslEfzt21w4nZ_13rust_jira_mcp4jira6clientNtB7_10JiraClient3getNtNtNtBb_5types4jira9JiraIssueE0Bb_
FNDA:0,_RNCINvMs_NtNtCslEfzt21w4nZ_13rust_jira_mcp4jira6clientNtB7_10JiraClient3putNtNtCslJRJgdvPEaJ_10serde_json5value5ValueB1b_E0Bb_
FNDA:0,_RNCINvMs_NtNtCslEfzt21w4nZ_13rust_jira_mcp4jira6clientNtB7_10JiraClient3putNtNtNtBb_5types4jira11JiraWorkLogNtB1d_24JiraWorkLogUpdateRequestE0Bb_
FNDA:0,_RNCINvMs_NtNtCslEfzt21w4nZ_13rust_jira_mcp4jira6clientNtB7_10JiraClient3putNtNtNtBb_5types4jira13JiraComponentNtB1d_26JiraComponentUpdateRequestE0Bb_
FNDA:0,_RNCINvMs_NtNtCslEfzt21w4nZ_13rust_jira_mcp4jira6clientNtB7_10JiraClient3putNtNtNtBb_5types4jira9JiraLabelNtB1d_22JiraLabelUpdateRequestE0Bb_
FNDA:0,_RNCINvMs_NtNtCslEfzt21w4nZ_13rust_jira_mcp4jira6clientNtB7_10JiraClient4postNtNtCslJRJgdvPEaJ_10serde_json5value5ValueB1c_E0Bb_
FNDA:0,_RNCINvMs_NtNtCslEfzt21w4nZ_13rust_jira_mcp4jira6clientNtB7_10JiraClient4postNtNtCslJRJgdvPEaJ_10serde_json5value5ValueNtNtNtBb_5types4jira26JiraIssueLinkCreateRequestE0Bb_
FNDA:0,_RNCINvMs_NtNtCslEfzt21w4nZ_13rust_jira_mcp4jira6clientNtB7_10JiraClient4postNtNtNtBb_5types4jira11JiraCommentNtNtCslJRJgdvPEaJ_10serde_json5value5ValueE0Bb_
FNDA:0,_RNCINvMs_NtNtCslEfzt21w4nZ_13rust_jira_mcp4jira6clientNtB7_10JiraClient4postNtNtNtBb_5types4jira11JiraWorkLogNtB1e_24JiraWorkLogCreateRequestE0Bb_
FNDA:0,_RNCINvMs_NtNtCslEfzt21w4nZ_13rust_jira_mcp4jira6clientNtB7_10JiraClient4postNtNtNtBb_5types4jira13JiraComponentNtB1e_26JiraComponentCreateRequestE0Bb_
FNDA:0,_RNCINvMs_NtNtCslEfzt21w4nZ_13rust_jira_mcp4jira6clientNtB7_10JiraClient4postNtNtNtBb_5types4jira9JiraIssueNtNtCslJRJgdvPEaJ_10serde_json5value5ValueE0Bb_
FNDA:0,_RNCINvMs_NtNtCslEfzt21w4nZ_13rust_jira_mcp4jira6clientNtB7_10JiraClient4postNtNtNtBb_5types4jira9JiraLabelNtB1e_22JiraLabelCreateRequestE0Bb_
FNDA:0,_RNCINvMs_NtNtCslEfzt21w4nZ_13rust_jira_mcp4jira6clientNtB7_10JiraClient6deleteNtNtCslJRJgdvPEaJ_10serde_json5value5ValueE0Bb_
FNDA:0,_RNCINvMs_NtNtCslEfzt21w4nZ_13rust_jira_mcp4jira6clientNtB7_10JiraClient7requestINtNtCsiAD6NEzHbBo_5alloc3vec3VecNtNtNtBb_5types4jira10JiraStatusEuE0Bb_
FNDA:0,_RNCINvMs_NtNtCslEfzt21w4nZ_13rust_jira_mcp4jira6clientNtB7_10JiraClient7requestINtNtCsiAD6NEzHbBo_5alloc3vec3VecNtNtNtBb_5types4jira12JiraLinkTypeEuE0Bb_
FNDA:0,_RNCINvMs_NtNtCslEfzt21w4nZ_13rust_jira_mcp4jira6clientNtB7_10JiraClient7requestINtNtCsiAD6NEzHbBo_5alloc3vec3VecNtNtNtBb_5types4jira12JiraPriorityEuE0Bb_
FNDA:0,_RNCINvMs_NtNtCslEfzt21w4nZ_13rust_jira_mcp4jira6clientNtB7_10JiraClient7requestINtNtCsiAD6NEzHbBo_5alloc3vec3VecNtNtNtBb_5types4jira13JiraComponentEuE0Bb_
FNDA:0,_RNCINvMs_NtNtCslEfzt21w4nZ_13rust_jira_mcp4jira6clientNtB7_10JiraClient7requestNtNtCslJRJgdvPEaJ_10serde_json5value5ValueB1f_E0Bb_
FNDA:0,_RNCINvMs_NtNtCslEfzt21w4nZ_13rust_jira_mcp4jira6clientNtB7_10JiraClient7requestNtNtCslJRJgdvPEaJ_10serde_json5value5ValueNtNtNtBb_5types4jira26JiraIssueLinkCreateRequestE0Bb_
FNDA:0,_RNCINvMs_NtNtCslEfzt21w4nZ_13rust_jira_mcp4jira6clientNtB7_10JiraClient7requestNtNtCslJRJgdvPEaJ_10serde_json5value5ValueuE0Bb_
FNDA:0,_RNCINvMs_NtNtCslEfzt21w4nZ_13rust_jira_mcp4jira6clientNtB7_10JiraClient7requestNtNtNtBb_5types4jira11JiraCommentNtNtCslJRJgdvPEaJ_10serde_json5value5ValueE0Bb_
FNDA:0,_RNCINvMs_NtNtCslEfzt21w4nZ_13rust_jira_mcp4jira6clientNtB7_10JiraClient7requestNtNtNtBb_5types4jira11JiraWorkLogNtB1h_24JiraWorkLogCreateRequestE0Bb_
FNDA:0,_RNCINvMs_NtNtCslEfzt21w4nZ_13rust_jira_mcp4jira6clientNtB7_10JiraClient7requestNtNtNtBb_5types4jira11JiraWorkLogNtB1h_24JiraWorkLogUpdateRequestE0Bb_
FNDA:0,_RNCINvMs_NtNtCslEfzt21w4nZ_13rust_jira_mcp4jira6clientNtB7_10JiraClient7requestNtNtNtBb_5types4jira13JiraComponentNtB1h_26JiraComponentCreateRequestE0Bb_
FNDA:0,_RNCINvMs_NtNtCslEfzt21w4nZ_13rust_jira_mcp4jira6clientNtB7_10JiraClient7requestNtNtNtBb_5types4jira13JiraComponentNtB1h_26JiraComponentUpdateRequestE0Bb_
FNDA:0,_RNCINvMs_NtNtCslEfzt21w4nZ_13rust_jira_mcp4jira6clientNtB7_10JiraClient7requestNtNtNtBb_5types4jira13JiraIssueTypeuE0Bb_
FNDA:0,_RNCINvMs_NtNtCslEfzt21w4nZ_13rust_jira_mcp4jira6clientNtB7_10JiraClient7requestNtNtNtBb_5types4jira16JiraSearchResultuE0Bb_
FNDA:0,_RNCINvMs_NtNtCslEfzt21w4nZ_13rust_jira_mcp4jira6clientNtB7_10JiraClient7requestNtNtNtBb_5types4jira20JiraWatchersResponseuE0Bb_
FNDA:0,_RNCINvMs_NtNtCslEfzt21w4nZ_13rust_jira_mcp4jira6clientNtB7_10JiraClient7requestNtNtNtBb_5types4jira9JiraIssueNtNtCslJRJgdvPEaJ_10serde_json5value5ValueE0Bb_
FNDA:0,_RNCINvMs_NtNtCslEfzt21w4nZ_13rust_jira_mcp4jira6clientNtB7_10JiraClient7requestNtNtNtBb_5types4jira9JiraIssueuE0Bb_
FNDA:0,_RNCINvMs_NtNtCslEfzt21w4nZ_13rust_jira_mcp4jira6clientNtB7_10JiraClient7requestNtNtNtBb_5types4jira9JiraLabelNtB1h_22JiraLabelCreateRequestE0Bb_
FNDA:0,_RNCINvMs_NtNtCslEfzt21w4nZ_13rust_jira_mcp4jira6clientNtB7_10JiraClient7requestNtNtNtBb_5types4jira9JiraLabelNtB1h_22JiraLabelUpdateRequestE0Bb_
FNDA:0,_RNCNCINvMs_NtNtCslEfzt21w4nZ_13rust_jira_mcp4jira6clientNtB9_10JiraClient14zephyr_requestNtNtCslJRJgdvPEaJ_10serde_json5value5ValueuE00Bd_
FNDA:0,_RNCNCINvMs_NtNtCslEfzt21w4nZ_13rust_jira_mcp4jira6clientNtB9_10JiraClient14zephyr_requestNtNtCslJRJgdvPEaJ_10serde_json5value5ValueuE0s_0Bd_
FNDA:0,_RNCNCINvMs_NtNtCslEfzt21w4nZ_13rust_jira_mcp4jira6clientNtB9_10JiraClient14zephyr_requestNtNtNtBd_5types4jira14ZephyrTestCaseNtB1r_27ZephyrTestCaseCreateRequestE00Bd_
FNDA:0,_RNCNCINvMs_NtNtCslEfzt21w4nZ_13rust_jira_mcp4jira6clientNtB9_10JiraClient14zephyr_requestNtNtNtBd_5types4jira14ZephyrTestCaseNtB1r_27ZephyrTestCaseCreateRequestE0s_0Bd_
FNDA:0,_RNCNCINvMs_NtNtCslEfzt21w4nZ_13rust_jira_mcp4jira6clientNtB9_10JiraClient14zephyr_requestNtNtNtBd_5types4jira14ZephyrTestStepNtB1r_27ZephyrTestStepCreateRequestE00Bd_
FNDA:0,_RNCNCINvMs_NtNtCslEfzt21w4nZ_13rust_jira_mcp4jira6clientNtB9_10JiraClient14zephyr_requestNtNtNtBd_5types4jira14ZephyrTestStepNtB1r_27ZephyrTestStepCreateRequestE0s_0Bd_
FNDA:0,_RNCNCINvMs_NtNtCslEfzt21w4nZ_13rust_jira_mcp4jira6clientNtB9_10JiraClient14zephyr_requestNtNtNtBd_5types4jira14ZephyrTestStepNtB1r_27ZephyrTestStepUpdateRequestE00Bd_
FNDA:0,_RNCNCINvMs_NtNtCslEfzt21w4nZ_13rust_jira_mcp4jira6clientNtB9_10JiraClient14zephyr_requestNtNtNtBd_5types4jira14ZephyrTestStepNtB1r_27ZephyrTestStepUpdateRequestE0s_0Bd_
FNDA:0,_RNCNCINvMs_NtNtCslEfzt21w4nZ_13rust_jira_mcp4jira6clientNtB9_10JiraClient14zephyr_requestNtNtNtBd_5types4jira19ZephyrTestExecutionNtB1r_32ZephyrTestExecutionCreateRequestE00Bd_
FNDA:0,_RNCNCINvMs_NtNtCslEfzt21w4nZ_13rust_jira_mcp4jira6clientNtB9_10JiraClient14zephyr_requestNtNtNtBd_5types4jira19ZephyrTestExecutionNtB1r_32ZephyrTestExecutionCreateRequestE0s_0Bd_
FNDA:0,_RNCNCINvMs_NtNtCslEfzt21w4nZ_13rust_jira_mcp4jira6clientNtB9_10JiraClient14zephyr_requestNtNtNtBd_5types4jira26ZephyrTestCaseSearchResultuE00Bd_
FNDA:0,_RNCNCINvMs_NtNtCslEfzt21w4nZ_13rust_jira_mcp4jira6clientNtB9_10JiraClient14zephyr_requestNtNtNtBd_5types4jira26ZephyrTestCaseSearchResultuE0s_0Bd_
FNDA:0,_RNCNCINvMs_NtNtCslEfzt21w4nZ_13rust_jira_mcp4jira6clientNtB9_10JiraClient7requestINtNtCsiAD6NEzHbBo_5alloc3vec3VecNtNtNtBd_5types4jira10JiraStatusEuE00Bd_
FNDA:0,_RNCNCINvMs_NtNtCslEfzt21w4nZ_13rust_jira_mcp4jira6clientNtB9_10JiraClient7requestINtNtCsiAD6NEzHbBo_5alloc3vec3VecNtNtNtBd_5types4jira10JiraStatusEuE0s_0Bd_
FNDA:0,_RNCNCINvMs_NtNtCslEfzt21w4nZ_13rust_jira_mcp4jira6clientNtB9_10JiraClient7requestINtNtCsiAD6NEzHbBo_5alloc3vec3VecNtNtNtBd_5types4jira12JiraLinkTypeEuE00Bd_
FNDA:0,_RNCNCINvMs_NtNtCslEfzt21w4nZ_13rust_jira_mcp4jira6clientNtB9_10JiraClient7requestINtNtCsiAD6NEzHbBo_5alloc3vec3VecNtNtNtBd_5types4jira12JiraLinkTypeEuE0s_0Bd_
FNDA:0,_RNCNCINvMs_NtNtCslEfzt21w4nZ_13rust_jira_mcp4jira6clientNtB9_10JiraClient7requestINtNtCsiAD6NEzHbBo_5alloc3vec3VecNtNtNtBd_5types4jira12JiraPriorityEuE00Bd_
FNDA:0,_RNCNCINvMs_NtNtCslEfzt21w4nZ_13rust_jira_mcp4jira6clientNtB9_10JiraClient7requestINtNtCsiAD6NEzHbBo_5alloc3vec3VecNtNtNtBd_5types4jira12JiraPriorityEuE0s_0Bd_
FNDA:0,_RNCNCINvMs_NtNtCslEfzt21w4nZ_13rust_jira_mcp4jira6clientNtB9_10JiraClient7requestINtNtCsiAD6NEzHbBo_5alloc3vec3VecNtNtNtBd_5types4jira13JiraComponentEuE00Bd_
FNDA:0,_RNCNCINvMs_NtNtCslEfzt21w4nZ_13rust_jira_mcp4jira6clientNtB9_10JiraClient7requestINtNtCsiAD6NEzHbBo_5alloc3vec3VecNtNtNtBd_5types4jira13JiraComponentEuE0s_0Bd_
FNDA:0,_RNCNCINvMs_NtNtCslEfzt21w4nZ_13rust_jira_mcp4jira6clientNtB9_10JiraClient7requestNtNtCslJRJgdvPEaJ_10serde_json5value5ValueB1h_E00Bd_
FNDA:0,_RNCNCINvMs_NtNtCslEfzt21w4nZ_13rust_jira_mcp4jira6clientNtB9_10JiraClient7requestNtNtCslJRJgdvPEaJ_10serde_json5value5ValueB1h_E0s_0Bd_
FNDA:0,_RNCNCINvMs_NtNtCslEfzt21w4nZ_13rust_jira_mcp4jira6clientNtB9_10JiraClient7requestNtNtCslJRJgdvPEaJ_10serde_json5value5ValueNtNtNtBd_5types4jira26JiraIssueLinkCreateRequestE00Bd_
FNDA:0,_RNCNCINvMs_NtNtCslEfzt21w4nZ_13rust_jira_mcp4jira6clientNtB9_10JiraClient7requestNtNtCslJRJgdvPEaJ_10serde_json5value5ValueNtNtNtBd_5types4jira26JiraIssueLinkCreateRequestE0s_0Bd_
FNDA:0,_RNCNCINvMs_NtNtCslEfzt21w4nZ_13rust_jira_mcp4jira6clientNtB9_10JiraClient7requestNtNtCslJRJgdvPEaJ_10serde_json5value5ValueuE00Bd_
FNDA:0,_RNCNCINvMs_NtNtCslEfzt21w4nZ_13rust_jira_mcp4jira6clientNtB9_10JiraClient7requestNtNtCslJRJgdvPEaJ_10serde_json5value5ValueuE0s_0Bd_
FNDA:0,_RNCNCINvMs_NtNtCslEfzt21w4nZ_13rust_jira_mcp4jira6clientNtB9_10JiraClient7requestNtNtNtBd_5types4jira11JiraCommentNtNtCslJRJgdvPEaJ_10serde_json5value5ValueE00Bd_
FNDA:0,_RNCNCINvMs_NtNtCslEfzt21w4nZ_13rust_jira_mcp4jira6clientNtB9_10JiraClient7requestNtNtNtBd_5types4jira11JiraCommentNtNtCslJRJgdvPEaJ_10serde_json5value5ValueE0s_0Bd_
FNDA:0,_RNCNCINvMs_NtNtCslEfzt21w4nZ_13rust_jira_mcp4jira6clientNtB9_10JiraClient7requestNtNtNtBd_5types4jira11JiraWorkLogNtB1j_24JiraWorkLogCreateRequestE00Bd_
FNDA:0,_RNCNCINvMs_NtNtCslEfzt21w4nZ_13rust_jira_mcp4jira6clientNtB9_10JiraClient7requestNtNtNtBd_5types4jira11JiraWorkLogNtB1j_24JiraWorkLogCreateRequestE0s_0Bd_
FNDA:0,_RNCNCINvMs_NtNtCslEfzt21w4nZ_13rust_jira_mcp4jira6clientNtB9_10JiraClient7requestNtNtNtBd_5types4jira11JiraWorkLogNtB1j_24JiraWorkLogUpdateRequestE00Bd_
FNDA:0,_RNCNCINvMs_NtNtCslEfzt21w4nZ_13rust_jira_mcp4jira6clientNtB9_10JiraClient7requestNtNtNtBd_5types4jira11JiraWorkLogNtB1j_24JiraWorkLogUpdateRequestE0s_0Bd_
FNDA:0,_RNCNCINvMs_NtNtCslEfzt21w4nZ_13rust_jira_mcp4jira6clientNtB9_10JiraClient7requestNtNtNtBd_5types4jira13JiraComponentNtB1j_26JiraComponentCreateRequestE00Bd_
FNDA:0,_RNCNCINvMs_NtNtCslEfzt21w4nZ_13rust_jira_mcp4jira6clientNtB9_10JiraClient7requestNtNtNtBd_5types4jira13JiraComponentNtB1j_26JiraComponentCreateRequestE0s_0Bd_
FNDA:0,_RNCNCINvMs_NtNtCslEfzt21w4nZ_13rust_jira_mcp4jira6clientNtB9_10JiraClient7requestNtNtNtBd_5types4jira13JiraComponentNtB1j_26JiraComponentUpdateRequestE00Bd_
FNDA:0,_RNCNCINvMs_NtNtCslEfzt21w4nZ_13rust_jira_mcp4jira6clientNtB9_10JiraClient7requestNtNtNtBd_5types4jira13JiraComponentNtB1j_26JiraComponentUpdateRequestE0s_0Bd_
FNDA:0,_RNCNCINvMs_NtNtCslEfzt21w4nZ_13rust_jira_mcp4jira6clientNtB9_10JiraClient7requestNtNtNtBd_5types4jira13JiraIssueTypeuE00Bd_
FNDA:0,_RNCNCINvMs_NtNtCslEfzt21w4nZ_13rust_jira_mcp4jira6clientNtB9_10JiraClient7requestNtNtNtBd_5types4jira13JiraIssueTypeuE0s_0Bd_
FNDA:0,_RNCNCINvMs_NtNtCslEfzt21w4nZ_13rust_jira_mcp4jira6clientNtB9_10JiraClient7requestNtNtNtBd_5types4jira16JiraSearchResultuE00Bd_
FNDA:0,_RNCNCINvMs_NtNtCslEfzt21w4nZ_13rust_jira_mcp4jira6clientNtB9_10JiraClient7requestNtNtNtBd_5types4jira16JiraSearchResultuE0s_0Bd_
FNDA:0,_RNCNCINvMs_NtNtCslEfzt21w4nZ_13rust_jira_mcp4jira6clientNtB9_10JiraClient7requestNtNtNtBd_5types4jira20JiraWatchersResponseuE00Bd_
FNDA:0,_RNCNCINvMs_NtNtCslEfzt21w4nZ_13rust_jira_mcp4jira6clientNtB9_10JiraClient7requestNtNtNtBd_5types4jira20JiraWatchersResponseuE0s_0Bd_
FNDA:0,_RNCNCINvMs_NtNtCslEfzt21w4nZ_13rust_jira_mcp4jira6clientNtB9_10JiraClient7requestNtNtNtBd_5types4jira9JiraIssueNtNtCslJRJgdvPEaJ_10serde_json5value5ValueE00Bd_
FNDA:0,_RNCNCINvMs_NtNtCslEfzt21w4nZ_13rust_jira_mcp4jira6clientNtB9_10JiraClient7requestNtNtNtBd_5types4jira9JiraIssueNtNtCslJRJgdvPEaJ_10serde_json5value5ValueE0s_0Bd_
FNDA:0,_RNCNCINvMs_NtNtCslEfzt21w4nZ_13rust_jira_mcp4jira6clientNtB9_10JiraClient7requestNtNtNtBd_5types4jira9JiraIssueuE00Bd_
FNDA:0,_RNCNCINvMs_NtNtCslEfzt21w4nZ_13rust_jira_mcp4jira6clientNtB9_10JiraClient7requestNtNtNtBd_5types4jira9JiraIssueuE0s_0Bd_
FNDA:0,_RNCNCINvMs_NtNtCslEfzt21w4nZ_13rust_jira_mcp4jira6clientNtB9_10JiraClient7requestNtNtNtBd_5types4jira9JiraLabelNtB1j_22JiraLabelCreateRequestE00Bd_
FNDA:0,_RNCNCINvMs_NtNtCslEfzt21w4nZ_13rust_jira_mcp4jira6clientNtB9_10JiraClient7requestNtNtNtBd_5types4jira9JiraLabelNtB1j_22JiraLabelCreateRequestE0s_0Bd_
FNDA:0,_RNCNCINvMs_NtNtCslEfzt21w4nZ_13rust_jira_mcp4jira6clientNtB9_10JiraClient7requestNtNtNtBd_5types4jira9JiraLabelNtB1j_22JiraLabelUpdateRequestE00Bd_
FNDA:0,_RNCNCINvMs_NtNtCslEfzt21w4nZ_13rust_jira_mcp4jira6clientNtB9_10JiraClient7requestNtNtNtBd_5types4jira9JiraLabelNtB1j_22JiraLabelUpdateRequestE0s_0Bd_
FNDA:0,_RNCNCNvMs_NtNtCslEfzt21w4nZ_13rust_jira_mcp4jira6clientNtB8_10JiraClient10get_labels00Bc_
FNDA:0,_RNCNCNvMs_NtNtCslEfzt21w4nZ_13rust_jira_mcp4jira6clientNtB8_10JiraClient11link_issues00Bc_
FNDA:0,_RNCNCNvMs_NtNtCslEfzt21w4nZ_13rust_jira_mcp4jira6clientNtB8_10JiraClient12get_comments00Bc_
FNDA:0,_RNCNCNvMs_NtNtCslEfzt21w4nZ_13rust_jira_mcp4jira6clientNtB8_10JiraClient12get_comments0s_0Bc_
FNDA:0,_RNCNCNvMs_NtNtCslEfzt21w4nZ_13rust_jira_mcp4jira6clientNtB8_10JiraClient13search_issues00Bc_
FNDA:0,_RNCNCNvMs_NtNtCslEfzt21w4nZ_13rust_jira_mcp4jira6clientNtB8_10JiraClient15get_issue_links00Bc_
FNDA:0,_RNCNCNvMs_NtNtCslEfzt21w4nZ_13rust_jira_mcp4jira6clientNtB8_10JiraClient15get_transitions00Bc_
FNDA:0,_RNCNCNvMs_NtNtCslEfzt21w4nZ_13rust_jira_mcp4jira6clientNtB8_10JiraClient15get_transitions0s_0Bc_
FNDA:0,_RNCNCNvMs_NtNtCslEfzt21w4nZ_13rust_jira_mcp4jira6clientNtB8_10JiraClient17bulk_add_comments00Bc_
FNDA:0,_RNCNCNvMs_NtNtCslEfzt21w4nZ_13rust_jira_mcp4jira6clientNtB8_10JiraClient17get_custom_fields00Bc_
FNDA:0,_RNCNCNvMs_NtNtCslEfzt21w4nZ_13rust_jira_mcp4jira6clientNtB8_10JiraClient17perform_operation00Bc_
FNDA:0,_RNCNCNvMs_NtNtCslEfzt21w4nZ_13rust_jira_mcp4jira6clientNtB8_10JiraClient17perform_operation0s0_0Bc_
FNDA:0,_RNCNCNvMs_NtNtCslEfzt21w4nZ_13rust_jira_mcp4jira6clientNtB8_10JiraClient17perform_operation0s1_0Bc_
FNDA:0,_RNCNCNvMs_NtNtCslEfzt21w4nZ_13rust_jira_mcp4jira6clientNtB8_10JiraClient17perform_operation0s2_0Bc_
FNDA:0,_RNCNCNvMs_NtNtCslEfzt21w4nZ_13rust_jira_mcp4jira6clientNtB8_10JiraClient17perform_operation0s3_0Bc_
FNDA:0,_RNCNCNvMs_NtNtCslEfzt21w4nZ_13rust_jira_mcp4jira6clientNtB8_10JiraClient17perform_operation0s4_0Bc_
FNDA:0,_RNCNCNvMs_NtNtCslEfzt21w4nZ_13rust_jira_mcp4jira6clientNtB8_10JiraClient17perform_operation0s5_0Bc_
FNDA:0,_RNCNCNvMs_NtNtCslEfzt21w4nZ_13rust_jira_mcp4jira6clientNtB8_10JiraClient17perform_operation0s6_0Bc_
FNDA:0,_RNCNCNvMs_NtNtCslEfzt21w4nZ_13rust_jira_mcp4jira6clientNtB8_10JiraClient17perform_operation0s7_0Bc_
FNDA:0,_RNCNCNvMs_NtNtCslEfzt21w4nZ_13rust_jira_mcp4jira6clientNtB8_10JiraClient17perform_operation0s_0Bc_
FNDA:0,_RNCNCNvMs_NtNtCslEfzt21w4nZ_13rust_jira_mcp4jira6clientNtB8_10JiraClient17upload_attachment00Bc_
FNDA:0,_RNCNCNvMs_NtNtCslEfzt21w4nZ_13rust_jira_mcp4jira6clientNtB8_10JiraClient18bulk_update_issues00Bc_
FNDA:0,_RNCNCNvMs_NtNtCslEfzt21w4nZ_13rust_jira_mcp4jira6clientNtB8_10JiraClient19download_attachment00Bc_
FNDA:0,_RNCNCNvMs_NtNtCslEfzt21w4nZ_13rust_jira_mcp4jira6clientNtB8_10JiraClient19get_issue_work_logs00Bc_
FNDA:0,_RNCNCNvMs_NtNtCslEfzt21w4nZ_13rust_jira_mcp4jira6clientNtB8_10JiraClient19get_issue_work_logs0s_0Bc_
FNDA:0,_RNCNCNvMs_NtNtCslEfzt21w4nZ_13rust_jira_mcp4jira6clientNtB8_10JiraClient21get_issue_attachments00Bc_
FNDA:0,_RNCNCNvMs_NtNtCslEfzt21w4nZ_13rust_jira_mcp4jira6clientNtB8_10JiraClient21get_issue_attachments0s_0Bc_
FNDA:0,_RNCNCNvMs_NtNtCslEfzt21w4nZ_13rust_jira_mcp4jira6clientNtB8_10JiraClient21get_zephyr_test_plans00Bc_
FNDA:0,_RNCNCNvMs_NtNtCslEfzt21w4nZ_13rust_jira_mcp4jira6clientNtB8_10JiraClient21get_zephyr_test_plans0s_0Bc_
FNDA:0,_RNCNCNvMs_NtNtCslEfzt21w4nZ_13rust_jira_mcp4jira6clientNtB8_10JiraClient21get_zephyr_test_steps00Bc_
FNDA:0,_RNCNCNvMs_NtNtCslEfzt21w4nZ_13rust_jira_mcp4jira6clientNtB8_10JiraClient21get_zephyr_test_steps0s_0Bc_
FNDA:0,_RNCNCNvMs_NtNtCslEfzt21w4nZ_13rust_jira_mcp4jira6clientNtB8_10JiraClient22bulk_transition_issues00Bc_
FNDA:0,_RNCNCNvMs_NtNtCslEfzt21w4nZ_13rust_jira_mcp4jira6clientNtB8_10JiraClient22get_zephyr_test_cycles00Bc_
FNDA:0,_RNCNCNvMs_NtNtCslEfzt21w4nZ_13rust_jira_mcp4jira6clientNtB8_10JiraClient22get_zephyr_test_cycles0s_0Bc_
FNDA:0,_RNCNCNvMs_NtNtCslEfzt21w4nZ_13rust_jira_mcp4jira6clientNtB8_10JiraClient23get_project_issue_types00Bc_
FNDA:0,_RNCNCNvMs_NtNtCslEfzt21w4nZ_13rust_jira_mcp4jira6clientNtB8_10JiraClient23get_project_issue_types0s_0Bc_
FNDA:0,_RNCNCNvMs_NtNtCslEfzt21w4nZ_13rust_jira_mcp4jira6clientNtB8_10JiraClient24search_zephyr_test_cases00Bc_
FNDA:0,_RNCNCNvMs_NtNtCslEfzt21w4nZ_13rust_jira_mcp4jira6clientNtB8_10JiraClient26get_zephyr_test_executions00Bc_
FNDA:0,_RNCNCNvMs_NtNtCslEfzt21w4nZ_13rust_jira_mcp4jira6clientNtB8_10JiraClient26get_zephyr_test_executions0s_0Bc_
FNDA:0,_RNCNvMNtNtCslEfzt21w4nZ_13rust_jira_mcp4jira6clientNtB4_11RateLimiter14wait_if_needed0B8_
FNDA:0,_RNCNvMs_NtNtCslEfzt21w4nZ_13rust_jira_mcp4jira6clientNtB6_10JiraClient10get_labels0Ba_
FNDA:0,_RNCNvMs_NtNtCslEfzt21w4nZ_13rust_jira_mcp4jira6clientNtB6_10JiraClient11add_comment0Ba_
FNDA:0,_RNCNvMs_NtNtCslEfzt21w4nZ_13rust_jira_mcp4jira6clientNtB6_10JiraClient11clone_issue0Ba_
FNDA:0,_RNCNvMs_NtNtCslEfzt21w4nZ_13rust_jira_mcp4jira6clientNtB6_10JiraClient11link_issues0Ba_
FNDA:0,_RNCNvMs_NtNtCslEfzt21w4nZ_13rust_jira_mcp4jira6clientNtB6_10JiraClient12add_work_log0Ba_
FNDA:0,_RNCNvMs_NtNtCslEfzt21w4nZ_13rust_jira_mcp4jira6clientNtB6_10JiraClient12create_issue0Ba_
FNDA:0,_RNCNvMs_NtNtCslEfzt21w4nZ_13rust_jira_mcp4jira6clientNtB6_10JiraClient12create_label0Ba_
FNDA:0,_RNCNvMs_NtNtCslEfzt21w4nZ_13rust_jira_mcp4jira6clientNtB6_10JiraClient12delete_label0Ba_
FNDA:0,_RNCNvMs_NtNtCslEfzt21w4nZ_13rust_jira_mcp4jira6clientNtB6_10JiraClient12get_comments0Ba_
FNDA:0,_RNCNvMs_NtNtCslEfzt21w4nZ_13rust_jira_mcp4jira6clientNtB6_10JiraClient12get_statuses0Ba_
FNDA:0,_RNCNvMs_NtNtCslEfzt21w4nZ_13rust_jira_mcp4jira6clientNtB6_10JiraClient12update_issue0Ba_
FNDA:0,_RNCNvMs_NtNtCslEfzt21w4nZ_13rust_jira_mcp4jira6clientNtB6_10JiraClient12update_label0Ba_
FNDA:0,_RNCNvMs_NtNtCslEfzt21w4nZ_13rust_jira_mcp4jira6clientNtB6_10JiraClient13process_batch0Ba_
FNDA:0,_RNCNvMs_NtNtCslEfzt21w4nZ_13rust_jira_mcp4jira6clientNtB6_10JiraClient13search_issues0Ba_
FNDA:0,_RNCNvMs_NtNtCslEfzt21w4nZ_13rust_jira_mcp4jira6clientNtB6_10JiraClient14get_link_types0Ba_
FNDA:0,_RNCNvMs_NtNtCslEfzt21w4nZ_13rust_jira_mcp4jira6clientNtB6_10JiraClient14get_priorities0Ba_
FNDA:0,_RNCNvMs_NtNtCslEfzt21w4nZ_13rust_jira_mcp4jira6clientNtB6_10JiraClient15delete_work_log0Ba_
FNDA:0,_RNCNvMs_NtNtCslEfzt21w4nZ_13rust_jira_mcp4jira6clientNtB6_10JiraClient15get_issue_links0Ba_
FNDA:0,_RNCNvMs_NtNtCslEfzt21w4nZ_13rust_jira_mcp4jira6clientNtB6_10JiraClient15get_transitions0Ba_
FNDA:0,_RNCNvMs_NtNtCslEfzt21w4nZ_13rust_jira_mcp4jira6clientNtB6_10JiraClient15update_work_log0Ba_
FNDA:0,_RNCNvMs_NtNtCslEfzt21w4nZ_13rust_jira_mcp4jira6clientNtB6_10JiraClient16build_zephyr_url0Ba_
FNDA:0,_RNCNvMs_NtNtCslEfzt21w4nZ_13rust_jira_mcp4jira6clientNtB6_10JiraClient16build_zephyr_urls_0Ba_
FNDA:0,_RNCNvMs_NtNtCslEfzt21w4nZ_13rust_jira_mcp4jira6clientNtB6_10JiraClient16create_component0Ba_
FNDA:0,_RNCNvMs_NtNtCslEfzt21w4nZ_13rust_jira_mcp4jira6clientNtB6_10JiraClient16delete_component0Ba_
FNDA:0,_RNCNvMs_NtNtCslEfzt21w4nZ_13rust_jira_mcp4jira6clientNtB6_10JiraClient16transition_issue0Ba_
FNDA:0,_RNCNvMs_NtNtCslEfzt21w4nZ_13rust_jira_mcp4jira6clientNtB6_10JiraClient16update_component0Ba_
FNDA:0,_RNCNvMs_NtNtCslEfzt21w4nZ_13rust_jira_mcp4jira6clientNtB6_10JiraClient17add_issue_watcher0Ba_
FNDA:0,_RNCNvMs_NtNtCslEfzt21w4nZ_13rust_jira_mcp4jira6clientNtB6_10JiraClient17bulk_add_comments0Ba_
FNDA:0,_RNCNvMs_NtNtCslEfzt21w4nZ_13rust_jira_mcp4jira6clientNtB6_10JiraClient17create_issue_link0Ba_
FNDA:0,_RNCNvMs_NtNtCslEfzt21w4nZ_13rust_jira_mcp4jira6clientNtB6_10JiraClient17delete_attachment0Ba_
FNDA:0,_RNCNvMs_NtNtCslEfzt21w4nZ_13rust_jira_mcp4jira6clientNtB6_10JiraClient17delete_issue_link0Ba_
FNDA:0,_RNCNvMs_NtNtCslEfzt21w4nZ_13rust_jira_mcp4jira6clientNtB6_10JiraClient17get_custom_fields0Ba_
FNDA:0,_RNCNvMs_NtNtCslEfzt21w4nZ_13rust_jira_mcp4jira6clientNtB6_10JiraClient17perform_operation0Ba_
FNDA:0,_RNCNvMs_NtNtCslEfzt21w4nZ_13rust_jira_mcp4jira6clientNtB6_10JiraClient17upload_attachment0Ba_
FNDA:0,_RNCNvMs_NtNtCslEfzt21w4nZ_13rust_jira_mcp4jira6clientNtB6_10JiraClient18bulk_update_issues0Ba_
FNDA:0,_RNCNvMs_NtNtCslEfzt21w4nZ_13rust_jira_mcp4jira6clientNtB6_10JiraClient18get_issue_watchers0Ba_
FNDA:0,_RNCNvMs_NtNtCslEfzt21w4nZ_13rust_jira_mcp4jira6clientNtB6_10JiraClient19download_attachment0Ba_
FNDA:0,_RNCNvMs_NtNtCslEfzt21w4nZ_13rust_jira_mcp4jira6clientNtB6_10JiraClient19get_issue_work_logs0Ba_
FNDA:0,_RNCNvMs_NtNtCslEfzt21w4nZ_13rust_jira_mcp4jira6clientNtB6_10JiraClient20get_project_metadata0Ba_
FNDA:0,_RNCNvMs_NtNtCslEfzt21w4nZ_13rust_jira_mcp4jira6clientNtB6_10JiraClient20remove_issue_watcher0Ba_
FNDA:0,_RNCNvMs_NtNtCslEfzt21w4nZ_13rust_jira_mcp4jira6clientNtB6_10JiraClient21get_issue_attachments0Ba_
FNDA:0,_RNCNvMs_NtNtCslEfzt21w4nZ_13rust_jira_mcp4jira6clientNtB6_10JiraClient21get_zephyr_test_plans0Ba_
FNDA:0,_RNCNvMs_NtNtCslEfzt21w4nZ_13rust_jira_mcp4jira6clientNtB6_10JiraClient21get_zephyr_test_steps0Ba_
FNDA:0,_RNCNvMs_NtNtCslEfzt21w4nZ_13rust_jira_mcp4jira6clientNtB6_10JiraClient22bulk_transition_issues0Ba_
FNDA:0,_RNCNvMs_NtNtCslEfzt21w4nZ_13rust_jira_mcp4jira6clientNtB6_10JiraClient22get_project_components0Ba_
FNDA:0,_RNCNvMs_NtNtCslEfzt21w4nZ_13rust_jira_mcp4jira6clientNtB6_10JiraClient22get_zephyr_test_cycles0Ba_
FNDA:0,_RNCNvMs_NtNtCslEfzt21w4nZ_13rust_jira_mcp4jira6clientNtB6_10JiraClient23create_zephyr_test_case0Ba_
FNDA:0,_RNCNvMs_NtNtCslEfzt21w4nZ_13rust_jira_mcp4jira6clientNtB6_10JiraClient23create_zephyr_test_step0Ba_
FNDA:0,_RNCNvMs_NtNtCslEfzt21w4nZ_13rust_jira_mcp4jira6clientNtB6_10JiraClient23delete_zephyr_test_step0Ba_
FNDA:0,_RNCNvMs_NtNtCslEfzt21w4nZ_13rust_jira_mcp4jira6clientNtB6_10JiraClient23execute_bulk_operations0Ba_
FNDA:0,_RNCNvMs_NtNtCslEfzt21w4nZ_13rust_jira_mcp4jira6clientNtB6_10JiraClient23get_issue_type_metadata0Ba_
FNDA:0,_RNCNvMs_NtNtCslEfzt21w4nZ_13rust_jira_mcp4jira6clientNtB6_10JiraClient23get_project_issue_types0Ba_
FNDA:0,_RNCNvMs_NtNtCslEfzt21w4nZ_13rust_jira_mcp4jira6clientNtB6_10JiraClient23update_zephyr_test_step0Ba_
FNDA:0,_RNCNvMs_NtNtCslEfzt21w4nZ_13rust_jira_mcp4jira6clientNtB6_10JiraClient24execute_single_operation0Ba_
FNDA:0,_RNCNvMs_NtNtCslEfzt21w4nZ_13rust_jira_mcp4jira6clientNtB6_10JiraClient24search_zephyr_test_cases0Ba_
FNDA:0,_RNCNvMs_NtNtCslEfzt21w4nZ_13rust_jira_mcp4jira6clientNtB6_10JiraClient25get_project_configuration0Ba_
FNDA:0,_RNCNvMs_NtNtCslEfzt21w4nZ_13rust_jira_mcp4jira6clientNtB6_10JiraClient26get_zephyr_test_executions0Ba_
FNDA:0,_RNCNvMs_NtNtCslEfzt21w4nZ_13rust_jira_mcp4jira6clientNtB6_10JiraClient28create_zephyr_test_execution0Ba_
FNDA:0,_RNCNvMs_NtNtCslEfzt21w4nZ_13rust_jira_mcp4jira6clientNtB6_10JiraClient9build_url0Ba_
FNDA:0,_RNCNvMs_NtNtCslEfzt21w4nZ_13rust_jira_mcp4jira6clientNtB6_10JiraClient9build_urls_0Ba_
FNDA:0,_RNCNvMs_NtNtCslEfzt21w4nZ_13rust_jira_mcp4jira6clientNtB6_10JiraClient9get_issue0Ba_
FNDA:0,_RINvMs_NtNtCsbRuuH6jbcRQ_13rust_jira_mcp4jira6clientNtB5_10JiraClient10zephyr_getpEB9_
FNDA:0,_RINvMs_NtNtCsbRuuH6jbcRQ_13rust_jira_mcp4jira6clientNtB5_10JiraClient10zephyr_putppEB9_
FNDA:0,_RINvMs_NtNtCsbRuuH6jbcRQ_13rust_jira_mcp4jira6clientNtB5_10JiraClient11zephyr_postppEB9_
FNDA:0,_RINvMs_NtNtCsbRuuH6jbcRQ_13rust_jira_mcp4jira6clientNtB5_10JiraClient13build_requestpEB9_
FNDA:0,_RINvMs_NtNtCsbRuuH6jbcRQ_13rust_jira_mcp4jira6clientNtB5_10JiraClient13zephyr_deletepEB9_
FNDA:0,_RINvMs_NtNtCsbRuuH6jbcRQ_13rust_jira_mcp4jira6clientNtB5_10JiraClient14zephyr_requestppEB9_
FNDA:0,_RINvMs_NtNtCsbRuuH6jbcRQ_13rust_jira_mcp4jira6clientNtB5_10JiraClient20build_zephyr_requestpEB9_
FNDA:0,_RINvMs_NtNtCsbRuuH6jbcRQ_13rust_jira_mcp4jira6clientNtB5_10JiraClient3getpEB9_
FNDA:0,_RINvMs_NtNtCsbRuuH6jbcRQ_13rust_jira_mcp4jira6clientNtB5_10JiraClient3putppEB9_
FNDA:0,_RINvMs_NtNtCsbRuuH6jbcRQ_13rust_jira_mcp4jira6clientNtB5_10JiraClient4postppEB9_
FNDA:0,_RINvMs_NtNtCsbRuuH6jbcRQ_13rust_jira_mcp4jira6clientNtB5_10JiraClient6deletepEB9_
FNDA:0,_RINvMs_NtNtCsbRuuH6jbcRQ_13rust_jira_mcp4jira6clientNtB5_10JiraClient7requestppEB9_
FNDA:0,_RNCINvMs_NtNtCsbRuuH6jbcRQ_13rust_jira_mcp4jira6clientNtB7_10JiraClient10zephyr_getpE0Bb_
FNDA:0,_RNCINvMs_NtNtCsbRuuH6jbcRQ_13rust_jira_mcp4jira6clientNtB7_10JiraClient10zephyr_putppE0Bb_
FNDA:0,_RNCINvMs_NtNtCsbRuuH6jbcRQ_13rust_jira_mcp4jira6clientNtB7_10JiraClient11zephyr_postppE0Bb_
FNDA:0,_RNCINvMs_NtNtCsbRuuH6jbcRQ_13rust_jira_mcp4jira6clientNtB7_10JiraClient13zephyr_deletepE0Bb_
FNDA:0,_RNCINvMs_NtNtCsbRuuH6jbcRQ_13rust_jira_mcp4jira6clientNtB7_10JiraClient14zephyr_requestppE0Bb_
FNDA:0,_RNCINvMs_NtNtCsbRuuH6jbcRQ_13rust_jira_mcp4jira6clientNtB7_10JiraClient3getpE0Bb_
FNDA:0,_RNCINvMs_NtNtCsbRuuH6jbcRQ_13rust_jira_mcp4jira6clientNtB7_10JiraClient3putppE0Bb_
FNDA:0,_RNCINvMs_NtNtCsbRuuH6jbcRQ_13rust_jira_mcp4jira6clientNtB7_10JiraClient4postppE0Bb_
FNDA:0,_RNCINvMs_NtNtCsbRuuH6jbcRQ_13rust_jira_mcp4jira6clientNtB7_10JiraClient6deletepE0Bb_
FNDA:0,_RNCINvMs_NtNtCsbRuuH6jbcRQ_13rust_jira_mcp4jira6clientNtB7_10JiraClient7requestppE0Bb_
FNDA:0,_RNCNCINvMs_NtNtCsbRuuH6jbcRQ_13rust_jira_mcp4jira6clientNtB9_10JiraClient14zephyr_requestppE00Bd_
FNDA:0,_RNCNCINvMs_NtNtCsbRuuH6jbcRQ_13rust_jira_mcp4jira6clientNtB9_10JiraClient14zephyr_requestppE0s_0Bd_
FNDA:0,_RNCNCINvMs_NtNtCsbRuuH6jbcRQ_13rust_jira_mcp4jira6clientNtB9_10JiraClient7requestppE00Bd_
FNDA:0,_RNCNCINvMs_NtNtCsbRuuH6jbcRQ_13rust_jira_mcp4jira6clientNtB9_10JiraClient7requestppE0s_0Bd_
FNDA:0,_RNCNCNvMs_NtNtCsbRuuH6jbcRQ_13rust_jira_mcp4jira6clientNtB8_10JiraClient10get_labels00Bc_
FNDA:0,_RNCNCNvMs_NtNtCsbRuuH6jbcRQ_13rust_jira_mcp4jira6clientNtB8_10JiraClient11link_issues00Bc_
FNDA:0,_RNCNCNvMs_NtNtCsbRuuH6jbcRQ_13rust_jira_mcp4jira6clientNtB8_10JiraClient12get_comments00Bc_
FNDA:0,_RNCNCNvMs_NtNtCsbRuuH6jbcRQ_13rust_jira_mcp4jira6clientNtB8_10JiraClient12get_comments0s_0Bc_
FNDA:0,_RNCNCNvMs_NtNtCsbRuuH6jbcRQ_13rust_jira_mcp4jira6clientNtB8_10JiraClient13search_issues00Bc_
FNDA:0,_RNCNCNvMs_NtNtCsbRuuH6jbcRQ_13rust_jira_mcp4jira6clientNtB8_10JiraClient15get_issue_links00Bc_
FNDA:0,_RNCNCNvMs_NtNtCsbRuuH6jbcRQ_13rust_jira_mcp4jira6clientNtB8_10JiraClient15get_transitions00Bc_
FNDA:0,_RNCNCNvMs_NtNtCsbRuuH6jbcRQ_13rust_jira_mcp4jira6clientNtB8_10JiraClient15get_transitions0s_0Bc_
FNDA:0,_RNCNCNvMs_NtNtCsbRuuH6jbcRQ_13rust_jira_mcp4jira6clientNtB8_10JiraClient17bulk_add_comments00Bc_
FNDA:0,_RNCNCNvMs_NtNtCsbRuuH6jbcRQ_13rust_jira_mcp4jira6clientNtB8_10JiraClient17get_custom_fields00Bc_
FNDA:0,_RNCNCNvMs_NtNtCsbRuuH6jbcRQ_13rust_jira_mcp4jira6clientNtB8_10JiraClient17perform_operation00Bc_
FNDA:0,_RNCNCNvMs_NtNtCsbRuuH6jbcRQ_13rust_jira_mcp4jira6clientNtB8_10JiraClient17perform_operation0s0_0Bc_
FNDA:0,_RNCNCNvMs_NtNtCsbRuuH6jbcRQ_13rust_jira_mcp4jira6clientNtB8_10JiraClient17perform_operation0s1_0Bc_
FNDA:0,_RNCNCNvMs_NtNtCsbRuuH6jbcRQ_13rust_jira_mcp4jira6clientNtB8_10JiraClient17perform_operation0s2_0Bc_
FNDA:0,_RNCNCNvMs_NtNtCsbRuuH6jbcRQ_13rust_jira_mcp4jira6clientNtB8_10JiraClient17perform_operation0s3_0Bc_
FNDA:0,_RNCNCNvMs_NtNtCsbRuuH6jbcRQ_13rust_jira_mcp4jira6clientNtB8_10JiraClient17perform_operation0s4_0Bc_
FNDA:0,_RNCNCNvMs_NtNtCsbRuuH6jbcRQ_13rust_jira_mcp4jira6clientNtB8_10JiraClient17perform_operation0s5_0Bc_
FNDA:0,_RNCNCNvMs_NtNtCsbRuuH6jbcRQ_13rust_jira_mcp4jira6clientNtB8_10JiraClient17perform_operation0s6_0Bc_
FNDA:0,_RNCNCNvMs_NtNtCsbRuuH6jbcRQ_13rust_jira_mcp4jira6clientNtB8_10JiraClient17perform_operation0s7_0Bc_
FNDA:0,_RNCNCNvMs_NtNtCsbRuuH6jbcRQ_13rust_jira_mcp4jira6clientNtB8_10JiraClient17perform_operation0s_0Bc_
FNDA:0,_RNCNCNvMs_NtNtCsbRuuH6jbcRQ_13rust_jira_mcp4jira6clientNtB8_10JiraClient17upload_attachment00Bc_
FNDA:0,_RNCNCNvMs_NtNtCsbRuuH6jbcRQ_13rust_jira_mcp4jira6clientNtB8_10JiraClient18bulk_update_issues00Bc_
FNDA:0,_RNCNCNvMs_NtNtCsbRuuH6jbcRQ_13rust_jira_mcp4jira6clientNtB8_10JiraClient19download_attachment00Bc_
FNDA:0,_RNCNCNvMs_NtNtCsbRuuH6jbcRQ_13rust_jira_mcp4jira6clientNtB8_10JiraClient19get_issue_work_logs00Bc_
FNDA:0,_RNCNCNvMs_NtNtCsbRuuH6jbcRQ_13rust_jira_mcp4jira6clientNtB8_10JiraClient19get_issue_work_logs0s_0Bc_
FNDA:0,_RNCNCNvMs_NtNtCsbRuuH6jbcRQ_13rust_jira_mcp4jira6clientNtB8_10JiraClient21get_issue_attachments00Bc_
FNDA:0,_RNCNCNvMs_NtNtCsbRuuH6jbcRQ_13rust_jira_mcp4jira6clientNtB8_10JiraClient21get_issue_attachments0s_0Bc_
FNDA:0,_RNCNCNvMs_NtNtCsbRuuH6jbcRQ_13rust_jira_mcp4jira6clientNtB8_10JiraClient21get_zephyr_test_plans00Bc_
FNDA:0,_RNCNCNvMs_NtNtCsbRuuH6jbcRQ_13rust_jira_mcp4jira6clientNtB8_10JiraClient21get_zephyr_test_plans0s_0Bc_
FNDA:0,_RNCNCNvMs_NtNtCsbRuuH6jbcRQ_13rust_jira_mcp4jira6clientNtB8_10JiraClient21get_zephyr_test_steps00Bc_
FNDA:0,_RNCNCNvMs_NtNtCsbRuuH6jbcRQ_13rust_jira_mcp4jira6clientNtB8_10JiraClient21get_zephyr_test_steps0s_0Bc_
FNDA:0,_RNCNCNvMs_NtNtCsbRuuH6jbcRQ_13rust_jira_mcp4jira6clientNtB8_10JiraClient22bulk_transition_issues00Bc_
FNDA:0,_RNCNCNvMs_NtNtCsbRuuH6jbcRQ_13rust_jira_mcp4jira6clientNtB8_10JiraClient22get_zephyr_test_cycles00Bc_
FNDA:0,_RNCNCNvMs_NtNtCsbRuuH6jbcRQ_13rust_jira_mcp4jira6clientNtB8_10JiraClient22get_zephyr_test_cycles0s_0Bc_
FNDA:0,_RNCNCNvMs_NtNtCsbRuuH6jbcRQ_13rust_jira_mcp4jira6clientNtB8_10JiraClient23get_project_issue_types00Bc_
FNDA:0,_RNCNCNvMs_NtNtCsbRuuH6jbcRQ_13rust_jira_mcp4jira6clientNtB8_10JiraClient23get_project_issue_types0s_0Bc_
FNDA:0,_RNCNCNvMs_NtNtCsbRuuH6jbcRQ_13rust_jira_mcp4jira6clientNtB8_10JiraClient24search_zephyr_test_cases00Bc_
FNDA:0,_RNCNCNvMs_NtNtCsbRuuH6jbcRQ_13rust_jira_mcp4jira6clientNtB8_10JiraClient26get_zephyr_test_executions00Bc_
FNDA:0,_RNCNCNvMs_NtNtCsbRuuH6jbcRQ_13rust_jira_mcp4jira6clientNtB8_10JiraClient26get_zephyr_test_executions0s_0Bc_
FNDA:0,_RNCNvMNtNtCsbRuuH6jbcRQ_13rust_jira_mcp4jira6clientNtB4_11RateLimiter14wait_if_needed0B8_
FNDA:0,_RNCNvMs_NtNtCsbRuuH6jbcRQ_13rust_jira_mcp4jira6clientNtB6_10JiraClient10get_labels0Ba_
FNDA:0,_RNCNvMs_NtNtCsbRuuH6jbcRQ_13rust_jira_mcp4jira6clientNtB6_10JiraClient11add_comment0Ba_
FNDA:0,_RNCNvMs_NtNtCsbRuuH6jbcRQ_13rust_jira_mcp4jira6clientNtB6_10JiraClient11clone_issue0Ba_
FNDA:0,_RNCNvMs_NtNtCsbRuuH6jbcRQ_13rust_jira_mcp4jira6clientNtB6_10JiraClient11link_issues0Ba_
FNDA:0,_RNCNvMs_NtNtCsbRuuH6jbcRQ_13rust_jira_mcp4jira6clientNtB6_10JiraClient12add_work_log0Ba_
FNDA:0,_RNCNvMs_NtNtCsbRuuH6jbcRQ_13rust_jira_mcp4jira6clientNtB6_10JiraClient12create_issue0Ba_
FNDA:0,_RNCNvMs_NtNtCsbRuuH6jbcRQ_13rust_jira_mcp4jira6clientNtB6_10JiraClient12create_label0Ba_
FNDA:0,_RNCNvMs_NtNtCsbRuuH6jbcRQ_13rust_jira_mcp4jira6clientNtB6_10JiraClient12delete_label0Ba_
FNDA:0,_RNCNvMs_NtNtCsbRuuH6jbcRQ_13rust_jira_mcp4jira6clientNtB6_10JiraClient12get_comments0Ba_
FNDA:0,_RNCNvMs_NtNtCsbRuuH6jbcRQ_13rust_jira_mcp4jira6clientNtB6_10JiraClient12get_statuses0Ba_
FNDA:0,_RNCNvMs_NtNtCsbRuuH6jbcRQ_13rust_jira_mcp4jira6clientNtB6_10JiraClient12update_issue0Ba_
FNDA:0,_RNCNvMs_NtNtCsbRuuH6jbcRQ_13rust_jira_mcp4jira6clientNtB6_10JiraClient12update_label0Ba_
FNDA:0,_RNCNvMs_NtNtCsbRuuH6jbcRQ_13rust_jira_mcp4jira6clientNtB6_10JiraClient13process_batch0Ba_
FNDA:0,_RNCNvMs_NtNtCsbRuuH6jbcRQ_13rust_jira_mcp4jira6clientNtB6_10JiraClient13search_issues0Ba_
FNDA:0,_RNCNvMs_NtNtCsbRuuH6jbcRQ_13rust_jira_mcp4jira6clientNtB6_10JiraClient14get_link_types0Ba_
FNDA:0,_RNCNvMs_NtNtCsbRuuH6jbcRQ_13rust_jira_mcp4jira6clientNtB6_10JiraClient14get_priorities0Ba_
FNDA:0,_RNCNvMs_NtNtCsbRuuH6jbcRQ_13rust_jira_mcp4jira6clientNtB6_10JiraClient15delete_work_log0Ba_
FNDA:0,_RNCNvMs_NtNtCsbRuuH6jbcRQ_13rust_jira_mcp4jira6clientNtB6_10JiraClient15get_issue_links0Ba_
FNDA:0,_RNCNvMs_NtNtCsbRuuH6jbcRQ_13rust_jira_mcp4jira6clientNtB6_10JiraClient15get_transitions0Ba_
FNDA:0,_RNCNvMs_NtNtCsbRuuH6jbcRQ_13rust_jira_mcp4jira6clientNtB6_10JiraClient15update_work_log0Ba_
FNDA:0,_RNCNvMs_NtNtCsbRuuH6jbcRQ_13rust_jira_mcp4jira6clientNtB6_10JiraClient16build_zephyr_url0Ba_
FNDA:0,_RNCNvMs_NtNtCsbRuuH6jbcRQ_13rust_jira_mcp4jira6clientNtB6_10JiraClient16build_zephyr_urls_0Ba_
FNDA:0,_RNCNvMs_NtNtCsbRuuH6jbcRQ_13rust_jira_mcp4jira6clientNtB6_10JiraClient16create_component0Ba_
FNDA:0,_RNCNvMs_NtNtCsbRuuH6jbcRQ_13rust_jira_mcp4jira6clientNtB6_10JiraClient16delete_component0Ba_
FNDA:0,_RNCNvMs_NtNtCsbRuuH6jbcRQ_13rust_jira_mcp4jira6clientNtB6_10JiraClient16transition_issue0Ba_
FNDA:0,_RNCNvMs_NtNtCsbRuuH6jbcRQ_13rust_jira_mcp4jira6clientNtB6_10JiraClient16update_component0Ba_
FNDA:0,_RNCNvMs_NtNtCsbRuuH6jbcRQ_13rust_jira_mcp4jira6clientNtB6_10JiraClient17add_issue_watcher0Ba_
FNDA:0,_RNCNvMs_NtNtCsbRuuH6jbcRQ_13rust_jira_mcp4jira6clientNtB6_10JiraClient17bulk_add_comments0Ba_
FNDA:0,_RNCNvMs_NtNtCsbRuuH6jbcRQ_13rust_jira_mcp4jira6clientNtB6_10JiraClient17create_issue_link0Ba_
FNDA:0,_RNCNvMs_NtNtCsbRuuH6jbcRQ_13rust_jira_mcp4jira6clientNtB6_10JiraClient17delete_attachment0Ba_
FNDA:0,_RNCNvMs_NtNtCsbRuuH6jbcRQ_13rust_jira_mcp4jira6clientNtB6_10JiraClient17delete_issue_link0Ba_
FNDA:0,_RNCNvMs_NtNtCsbRuuH6jbcRQ_13rust_jira_mcp4jira6clientNtB6_10JiraClient17get_custom_fields0Ba_
FNDA:0,_RNCNvMs_NtNtCsbRuuH6jbcRQ_13rust_jira_mcp4jira6clientNtB6_10JiraClient17perform_operation0Ba_
FNDA:0,_RNCNvMs_NtNtCsbRuuH6jbcRQ_13rust_jira_mcp4jira6clientNtB6_10JiraClient17upload_attachment0Ba_
FNDA:0,_RNCNvMs_NtNtCsbRuuH6jbcRQ_13rust_jira_mcp4jira6clientNtB6_10JiraClient18bulk_update_issues0Ba_
FNDA:0,_RNCNvMs_NtNtCsbRuuH6jbcRQ_13rust_jira_mcp4jira6clientNtB6_10JiraClient18get_issue_watchers0Ba_
FNDA:0,_RNCNvMs_NtNtCsbRuuH6jbcRQ_13rust_jira_mcp4jira6clientNtB6_10JiraClient19download_attachment0Ba_
FNDA:0,_RNCNvMs_NtNtCsbRuuH6jbcRQ_13rust_jira_mcp4jira6clientNtB6_10JiraClient19get_issue_work_logs0Ba_
FNDA:0,_RNCNvMs_NtNtCsbRuuH6jbcRQ_13rust_jira_mcp4jira6clientNtB6_10JiraClient20get_project_metadata0Ba_
FNDA:0,_RNCNvMs_NtNtCsbRuuH6jbcRQ_13rust_jira_mcp4jira6clientNtB6_10JiraClient20remove_issue_watcher0Ba_
FNDA:0,_RNCNvMs_NtNtCsbRuuH6jbcRQ_13rust_jira_mcp4jira6clientNtB6_10JiraClient21get_issue_attachments0Ba_
FNDA:0,_RNCNvMs_NtNtCsbRuuH6jbcRQ_13rust_jira_mcp4jira6clientNtB6_10JiraClient21get_zephyr_test_plans0Ba_
FNDA:0,_RNCNvMs_NtNtCsbRuuH6jbcRQ_13rust_jira_mcp4jira6clientNtB6_10JiraClient21get_zephyr_test_steps0Ba_
FNDA:0,_RNCNvMs_NtNtCsbRuuH6jbcRQ_13rust_jira_mcp4jira6clientNtB6_10JiraClient22bulk_transition_issues0Ba_
FNDA:0,_RNCNvMs_NtNtCsbRuuH6jbcRQ_13rust_jira_mcp4jira6clientNtB6_10JiraClient22get_project_components0Ba_
FNDA:0,_RNCNvMs_NtNtCsbRuuH6jbcRQ_13rust_jira_mcp4jira6clientNtB6_10JiraClient22get_zephyr_test_cycles0Ba_
FNDA:0,_RNCNvMs_NtNtCsbRuuH6jbcRQ_13rust_jira_mcp4jira6clientNtB6_10JiraClient23create_zephyr_test_case0Ba_
FNDA:0,_RNCNvMs_NtNtCsbRuuH6jbcRQ_13rust_jira_mcp4jira6clientNtB6_10JiraClient23create_zephyr_test_step0Ba_
FNDA:0,_RNCNvMs_NtNtCsbRuuH6jbcRQ_13rust_jira_mcp4jira6clientNtB6_10JiraClient23delete_zephyr_test_step0Ba_
FNDA:0,_RNCNvMs_NtNtCsbRuuH6jbcRQ_13rust_jira_mcp4jira6clientNtB6_10JiraClient23execute_bulk_operations0Ba_
FNDA:0,_RNCNvMs_NtNtCsbRuuH6jbcRQ_13rust_jira_mcp4jira6clientNtB6_10JiraClient23get_issue_type_metadata0Ba_
FNDA:0,_RNCNvMs_NtNtCsbRuuH6jbcRQ_13rust_jira_mcp4jira6clientNtB6_10JiraClient23get_project_issue_types0Ba_
FNDA:0,_RNCNvMs_NtNtCsbRuuH6jbcRQ_13rust_jira_mcp4jira6clientNtB6_10JiraClient23update_zephyr_test_step0Ba_
FNDA:0,_RNCNvMs_NtNtCsbRuuH6jbcRQ_13rust_jira_mcp4jira6clientNtB6_10JiraClient24execute_single_operation0Ba_
FNDA:0,_RNCNvMs_NtNtCsbRuuH6jbcRQ_13rust_jira_mcp4jira6clientNtB6_10JiraClient24search_zephyr_test_cases0Ba_
FNDA:0,_RNCNvMs_NtNtCsbRuuH6jbcRQ_13rust_jira_mcp4jira6clientNtB6_10JiraClient25get_project_configuration0Ba_
FNDA:0,_RNCNvMs_NtNtCsbRuuH6jbcRQ_13rust_jira_mcp4jira6clientNtB6_10JiraClient26get_zephyr_test_executions0Ba_
FNDA:0,_RNCNvMs_NtNtCsbRuuH6jbcRQ_13rust_jira_mcp4jira6clientNtB6_10JiraClient28create_zephyr_test_execution0Ba_
FNDA:0,_RNCNvMs_NtNtCsbRuuH6jbcRQ_13rust_jira_mcp4jira6clientNtB6_10JiraClient9build_url0Ba_
FNDA:0,_RNCNvMs_NtNtCsbRuuH6jbcRQ_13rust_jira_mcp4jira6clientNtB6_10JiraClient9build_urls_0Ba_
FNDA:0,_RNCNvMs_NtNtCsbRuuH6jbcRQ_13rust_jira_mcp4jira6clientNtB6_10JiraClient9get_issue0Ba_
FNDA:0,_RNvMNtNtCsbRuuH6jbcRQ_13rust_jira_mcp4jira6clientNtB2_11RateLimiter14wait_if_needed
FNDA:0,_RNvMNtNtCsbRuuH6jbcRQ_13rust_jira_mcp4jira6clientNtB2_11RateLimiter3new
FNDA:0,_RNvMs_NtNtCsbRuuH6jbcRQ_13rust_jira_mcp4jira6clientNtB4_10JiraClient10get_labels
FNDA:0,_RNvMs_NtNtCsbRuuH6jbcRQ_13rust_jira_mcp4jira6clientNtB4_10JiraClient11add_comment
FNDA:0,_RNvMs_NtNtCsbRuuH6jbcRQ_13rust_jira_mcp4jira6clientNtB4_10JiraClient11auth_header
FNDA:0,_RNvMs_NtNtCsbRuuH6jbcRQ_13rust_jira_mcp4jira6clientNtB4_10JiraClient11clone_issue
FNDA:0,_RNvMs_NtNtCsbRuuH6jbcRQ_13rust_jira_mcp4jira6clientNtB4_10JiraClient11http_client
FNDA:0,_RNvMs_NtNtCsbRuuH6jbcRQ_13rust_jira_mcp4jira6clientNtB4_10JiraClient11link_issues
FNDA:0,_RNvMs_NtNtCsbRuuH6jbcRQ_13rust_jira_mcp4jira6clientNtB4_10JiraClient12add_work_log
FNDA:0,_RNvMs_NtNtCsbRuuH6jbcRQ_13rust_jira_mcp4jira6clientNtB4_10JiraClient12api_base_url
FNDA:0,_RNvMs_NtNtCsbRuuH6jbcRQ_13rust_jira_mcp4jira6clientNtB4_10JiraClient12create_issue
FNDA:0,_RNvMs_NtNtCsbRuuH6jbcRQ_13rust_jira_mcp4jira6clientNtB4_10JiraClient12create_label
FNDA:0,_RNvMs_NtNtCsbRuuH6jbcRQ_13rust_jira_mcp4jira6clientNtB4_10JiraClient12delete_label
FNDA:0,_RNvMs_NtNtCsbRuuH6jbcRQ_13rust_jira_mcp4jira6clientNtB4_10JiraClient12get_comments
FNDA:0,_RNvMs_NtNtCsbRuuH6jbcRQ_13rust_jira_mcp4jira6clientNtB4_10JiraClient12get_statuses
FNDA:0,_RNvMs_NtNtCsbRuuH6jbcRQ_13rust_jira_mcp4jira6clientNtB4_10JiraClient12should_retry
FNDA:0,_RNvMs_NtNtCsbRuuH6jbcRQ_13rust_jira_mcp4jira6clientNtB4_10JiraClient12update_issue
FNDA:0,_RNvMs_NtNtCsbRuuH6jbcRQ_13rust_jira_mcp4jira6clientNtB4_10JiraClient12update_label
FNDA:0,_RNvMs_NtNtCsbRuuH6jbcRQ_13rust_jira_mcp4jira6clientNtB4_10JiraClient13process_batch
FNDA:0,_RNvMs_NtNtCsbRuuH6jbcRQ_13rust_jira_mcp4jira6clientNtB4_10JiraClient13search_issues
FNDA:0,_RNvMs_NtNtCsbRuuH6jbcRQ_13rust_jira_mcp4jira6clientNtB4_10JiraClient14get_link_types
FNDA:0,_RNvMs_NtNtCsbRuuH6jbcRQ_13rust_jira_mcp4jira6clientNtB4_10JiraClient14get_priorities
FNDA:0,_RNvMs_NtNtCsbRuuH6jbcRQ_13rust_jira_mcp4jira6clientNtB4_10JiraClient15delete_work_log
FNDA:0,_RNvMs_NtNtCsbRuuH6jbcRQ_13rust_jira_mcp4jira6clientNtB4_10JiraClient15get_issue_links
FNDA:0,_RNvMs_NtNtCsbRuuH6jbcRQ_13rust_jira_mcp4jira6clientNtB4_10JiraClient15get_transitions
FNDA:0,_RNvMs_NtNtCsbRuuH6jbcRQ_13rust_jira_mcp4jira6clientNtB4_10JiraClient15update_work_log
FNDA:0,_RNvMs_NtNtCsbRuuH6jbcRQ_13rust_jira_mcp4jira6clientNtB4_10JiraClient16build_zephyr_url
FNDA:0,_RNvMs_NtNtCsbRuuH6jbcRQ_13rust_jira_mcp4jira6clientNtB4_10JiraClient16create_component
FNDA:0,_RNvMs_NtNtCsbRuuH6jbcRQ_13rust_jira_mcp4jira6clientNtB4_10JiraClient16delete_component
FNDA:0,_RNvMs_NtNtCsbRuuH6jbcRQ_13rust_jira_mcp4jira6clientNtB4_10JiraClient16transition_issue
FNDA:0,_RNvMs_NtNtCsbRuuH6jbcRQ_13rust_jira_mcp4jira6clientNtB4_10JiraClient16update_component
FNDA:0,_RNvMs_NtNtCsbRuuH6jbcRQ_13rust_jira_mcp4jira6clientNtB4_10JiraClient17add_issue_watcher
FNDA:0,_RNvMs_NtNtCsbRuuH6jbcRQ_13rust_jira_mcp4jira6clientNtB4_10JiraClient17bulk_add_comments
FNDA:0,_RNvMs_NtNtCsbRuuH6jbcRQ_13rust_jira_mcp4jira6clientNtB4_10JiraClient17create_issue_link
FNDA:0,_RNvMs_NtNtCsbRuuH6jbcRQ_13rust_jira_mcp4jira6clientNtB4_10JiraClient17delete_attachment
FNDA:0,_RNvMs_NtNtCsbRuuH6jbcRQ_13rust_jira_mcp4jira6clientNtB4_10JiraClient17delete_issue_link
FNDA:0,_RNvMs_NtNtCsbRuuH6jbcRQ_13rust_jira_mcp4jira6clientNtB4_10JiraClient17get_custom_fields
FNDA:0,_RNvMs_NtNtCsbRuuH6jbcRQ_13rust_jira_mcp4jira6clientNtB4_10JiraClient17perform_operation
FNDA:0,_RNvMs_NtNtCsbRuuH6jbcRQ_13rust_jira_mcp4jira6clientNtB4_10JiraClient17upload_attachment
FNDA:0,_RNvMs_NtNtCsbRuuH6jbcRQ_13rust_jira_mcp4jira6clientNtB4_10JiraClient18bulk_update_issues
FNDA:0,_RNvMs_NtNtCsbRuuH6jbcRQ_13rust_jira_mcp4jira6clientNtB4_10JiraClient18get_issue_watchers
FNDA:0,_RNvMs_NtNtCsbRuuH6jbcRQ_13rust_jira_mcp4jira6clientNtB4_10JiraClient19download_attachment
FNDA:0,_RNvMs_NtNtCsbRuuH6jbcRQ_13rust_jira_mcp4jira6clientNtB4_10JiraClient19get_issue_work_logs
FNDA:0,_RNvMs_NtNtCsbRuuH6jbcRQ_13rust_jira_mcp4jira6clientNtB4_10JiraClient19zephyr_api_base_url
FNDA:0,_RNvMs_NtNtCsbRuuH6jbcRQ_13rust_jira_mcp4jira6clientNtB4_10JiraClient20get_project_metadata
FNDA:0,_RNvMs_NtNtCsbRuuH6jbcRQ_13rust_jira_mcp4jira6clientNtB4_10JiraClient20remove_issue_watcher
FNDA:0,_RNvMs_NtNtCsbRuuH6jbcRQ_13rust_jira_mcp4jira6clientNtB4_10JiraClient21get_issue_attachments
FNDA:0,_RNvMs_NtNtCsbRuuH6jbcRQ_13rust_jira_mcp4jira6clientNtB4_10JiraClient21get_zephyr_test_plans
FNDA:0,_RNvMs_NtNtCsbRuuH6jbcRQ_13rust_jira_mcp4jira6clientNtB4_10JiraClient21get_zephyr_test_steps
FNDA:0,_RNvMs_NtNtCsbRuuH6jbcRQ_13rust_jira_mcp4jira6clientNtB4_10JiraClient22bulk_transition_issues
FNDA:0,_RNvMs_NtNtCsbRuuH6jbcRQ_13rust_jira_mcp4jira6clientNtB4_10JiraClient22get_project_components
FNDA:0,_RNvMs_NtNtCsbRuuH6jbcRQ_13rust_jira_mcp4jira6clientNtB4_10JiraClient22get_zephyr_test_cycles
FNDA:0,_RNvMs_NtNtCsbRuuH6jbcRQ_13rust_jira_mcp4jira6clientNtB4_10JiraClient22should_retry_operation
FNDA:0,_RNvMs_NtNtCsbRuuH6jbcRQ_13rust_jira_mcp4jira6clientNtB4_10JiraClient23create_zephyr_test_case
FNDA:0,_RNvMs_NtNtCsbRuuH6jbcRQ_13rust_jira_mcp4jira6clientNtB4_10JiraClient23create_zephyr_test_step
FNDA:0,_RNvMs_NtNtCsbRuuH6jbcRQ_13rust_jira_mcp4jira6clientNtB4_10JiraClient23delete_zephyr_test_step
FNDA:0,_RNvMs_NtNtCsbRuuH6jbcRQ_13rust_jira_mcp4jira6clientNtB4_10JiraClient23execute_bulk_operations
FNDA:0,_RNvMs_NtNtCsbRuuH6jbcRQ_13rust_jira_mcp4jira6clientNtB4_10JiraClient23get_issue_type_metadata
FNDA:0,_RNvMs_NtNtCsbRuuH6jbcRQ_13rust_jira_mcp4jira6clientNtB4_10JiraClient23get_project_issue_types
FNDA:0,_RNvMs_NtNtCsbRuuH6jbcRQ_13rust_jira_mcp4jira6clientNtB4_10JiraClient23update_zephyr_test_step
FNDA:0,_RNvMs_NtNtCsbRuuH6jbcRQ_13rust_jira_mcp4jira6clientNtB4_10JiraClient24execute_single_operation
FNDA:0,_RNvMs_NtNtCsbRuuH6jbcRQ_13rust_jira_mcp4jira6clientNtB4_10JiraClient24search_zephyr_test_cases
FNDA:0,_RNvMs_NtNtCsbRuuH6jbcRQ_13rust_jira_mcp4jira6clientNtB4_10JiraClient25get_project_configuration
FNDA:0,_RNvMs_NtNtCsbRuuH6jbcRQ_13rust_jira_mcp4jira6clientNtB4_10JiraClient26get_zephyr_test_executions
FNDA:0,_RNvMs_NtNtCsbRuuH6jbcRQ_13rust_jira_mcp4jira6clientNtB4_10JiraClient28create_zephyr_test_execution
FNDA:0,_RNvMs_NtNtCsbRuuH6jbcRQ_13rust_jira_mcp4jira6clientNtB4_10JiraClient3new
FNDA:0,_RNvMs_NtNtCsbRuuH6jbcRQ_13rust_jira_mcp4jira6clientNtB4_10JiraClient9build_url
FNDA:0,_RNvMs_NtNtCsbRuuH6jbcRQ_13rust_jira_mcp4jira6clientNtB4_10JiraClient9get_issue
FNDA:0,_RINvMs_NtNtCs6CcTQqNWjGP_13rust_jira_mcp4jira6clientNtB5_10JiraClient10zephyr_getpEB9_
FNDA:0,_RINvMs_NtNtCs6CcTQqNWjGP_13rust_jira_mcp4jira6clientNtB5_10JiraClient10zephyr_putppEB9_
FNDA:0,_RINvMs_NtNtCs6CcTQqNWjGP_13rust_jira_mcp4jira6clientNtB5_10JiraClient11zephyr_postppEB9_
FNDA:0,_RINvMs_NtNtCs6CcTQqNWjGP_13rust_jira_mcp4jira6clientNtB5_10JiraClient13build_requestpEB9_
FNDA:0,_RINvMs_NtNtCs6CcTQqNWjGP_13rust_jira_mcp4jira6clientNtB5_10JiraClient13zephyr_deletepEB9_
FNDA:0,_RINvMs_NtNtCs6CcTQqNWjGP_13rust_jira_mcp4jira6clientNtB5_10JiraClient14zephyr_requestppEB9_
FNDA:0,_RINvMs_NtNtCs6CcTQqNWjGP_13rust_jira_mcp4jira6clientNtB5_10JiraClient20build_zephyr_requestpEB9_
FNDA:0,_RINvMs_NtNtCs6CcTQqNWjGP_13rust_jira_mcp4jira6clientNtB5_10JiraClient3getpEB9_
FNDA:0,_RINvMs_NtNtCs6CcTQqNWjGP_13rust_jira_mcp4jira6clientNtB5_10JiraClient3putppEB9_
FNDA:0,_RINvMs_NtNtCs6CcTQqNWjGP_13rust_jira_mcp4jira6clientNtB5_10JiraClient4postppEB9_
FNDA:0,_RINvMs_NtNtCs6CcTQqNWjGP_13rust_jira_mcp4jira6clientNtB5_10JiraClient6deletepEB9_
FNDA:0,_RINvMs_NtNtCs6CcTQqNWjGP_13rust_jira_mcp4jira6clientNtB5_10JiraClient7requestppEB9_
FNDA:0,_RNCINvMs_NtNtCs6CcTQqNWjGP_13rust_jira_mcp4jira6clientNtB7_10JiraClient10zephyr_getpE0Bb_
FNDA:0,_RNCINvMs_NtNtCs6CcTQqNWjGP_13rust_jira_mcp4jira6clientNtB7_10JiraClient10zephyr_putppE0Bb_
FNDA:0,_RNCINvMs_NtNtCs6CcTQqNWjGP_13rust_jira_mcp4jira6clientNtB7_10JiraClient11zephyr_postppE0Bb_
FNDA:0,_RNCINvMs_NtNtCs6CcTQqNWjGP_13rust_jira_mcp4jira6clientNtB7_10JiraClient13zephyr_deletepE0Bb_
FNDA:0,_RNCINvMs_NtNtCs6CcTQqNWjGP_13rust_jira_mcp4jira6clientNtB7_10JiraClient14zephyr_requestppE0Bb_
FNDA:0,_RNCINvMs_NtNtCs6CcTQqNWjGP_13rust_jira_mcp4jira6clientNtB7_10JiraClient3getpE0Bb_
FNDA:0,_RNCINvMs_NtNtCs6CcTQqNWjGP_13rust_jira_mcp4jira6clientNtB7_10JiraClient3putppE0Bb_
FNDA:0,_RNCINvMs_NtNtCs6CcTQqNWjGP_13rust_jira_mcp4jira6clientNtB7_10JiraClient4postppE0Bb_
FNDA:0,_RNCINvMs_NtNtCs6CcTQqNWjGP_13rust_jira_mcp4jira6clientNtB7_10JiraClient6deletepE0Bb_
FNDA:0,_RNCINvMs_NtNtCs6CcTQqNWjGP_13rust_jira_mcp4jira6clientNtB7_10JiraClient7requestppE0Bb_
FNDA:0,_RNCNCINvMs_NtNtCs6CcTQqNWjGP_13rust_jira_mcp4jira6clientNtB9_10JiraClient14zephyr_requestppE00Bd_
FNDA:0,_RNCNCINvMs_NtNtCs6CcTQqNWjGP_13rust_jira_mcp4jira6clientNtB9_10JiraClient14zephyr_requestppE0s_0Bd_
FNDA:0,_RNCNCINvMs_NtNtCs6CcTQqNWjGP_13rust_jira_mcp4jira6clientNtB9_10JiraClient7requestppE00Bd_
FNDA:0,_RNCNCINvMs_NtNtCs6CcTQqNWjGP_13rust_jira_mcp4jira6clientNtB9_10JiraClient7requestppE0s_0Bd_
FNDA:0,_RNCNCNvMs_NtNtCs6CcTQqNWjGP_13rust_jira_mcp4jira6clientNtB8_10JiraClient10get_labels00Bc_
FNDA:0,_RNCNCNvMs_NtNtCs6CcTQqNWjGP_13rust_jira_mcp4jira6clientNtB8_10JiraClient11link_issues00Bc_
FNDA:0,_RNCNCNvMs_NtNtCs6CcTQqNWjGP_13rust_jira_mcp4jira6clientNtB8_10JiraClient12get_comments00Bc_
FNDA:0,_RNCNCNvMs_NtNtCs6CcTQqNWjGP_13rust_jira_mcp4jira6clientNtB8_10JiraClient12get_comments0s_0Bc_
FNDA:0,_RNCNCNvMs_NtNtCs6CcTQqNWjGP_13rust_jira_mcp4jira6clientNtB8_10JiraClient13search_issues00Bc_
FNDA:0,_RNCNCNvMs_NtNtCs6CcTQqNWjGP_13rust_jira_mcp4jira6clientNtB8_10JiraClient15get_issue_links00Bc_
FNDA:0,_RNCNCNvMs_NtNtCs6CcTQqNWjGP_13rust_jira_mcp4jira6clientNtB8_10JiraClient15get_transitions00Bc_
FNDA:0,_RNCNCNvMs_NtNtCs6CcTQqNWjGP_13rust_jira_mcp4jira6clientNtB8_10JiraClient15get_transitions0s_0Bc_
FNDA:0,_RNCNCNvMs_NtNtCs6CcTQqNWjGP_13rust_jira_mcp4jira6clientNtB8_10JiraClient17bulk_add_comments00Bc_
FNDA:0,_RNCNCNvMs_NtNtCs6CcTQqNWjGP_13rust_jira_mcp4jira6clientNtB8_10JiraClient17get_custom_fields00Bc_
FNDA:0,_RNCNCNvMs_NtNtCs6CcTQqNWjGP_13rust_jira_mcp4jira6clientNtB8_10JiraClient17perform_operation00Bc_
FNDA:0,_RNCNCNvMs_NtNtCs6CcTQqNWjGP_13rust_jira_mcp4jira6clientNtB8_10JiraClient17perform_operation0s0_0Bc_
FNDA:0,_RNCNCNvMs_NtNtCs6CcTQqNWjGP_13rust_jira_mcp4jira6clientNtB8_10JiraClient17perform_operation0s1_0Bc_
FNDA:0,_RNCNCNvMs_NtNtCs6CcTQqNWjGP_13rust_jira_mcp4jira6clientNtB8_10JiraClient17perform_operation0s2_0Bc_
FNDA:0,_RNCNCNvMs_NtNtCs6CcTQqNWjGP_13rust_jira_mcp4jira6clientNtB8_10JiraClient17perform_operation0s3_0Bc_
FNDA:0,_RNCNCNvMs_NtNtCs6CcTQqNWjGP_13rust_jira_mcp4jira6clientNtB8_10JiraClient17perform_operation0s4_0Bc_
FNDA:0,_RNCNCNvMs_NtNtCs6CcTQqNWjGP_13rust_jira_mcp4jira6clientNtB8_10JiraClient17perform_operation0s5_0Bc_
FNDA:0,_RNCNCNvMs_NtNtCs6CcTQqNWjGP_13rust_jira_mcp4jira6clientNtB8_10JiraClient17perform_operation0s6_0Bc_
FNDA:0,_RNCNCNvMs_NtNtCs6CcTQqNWjGP_13rust_jira_mcp4jira6clientNtB8_10JiraClient17perform_operation0s7_0Bc_
FNDA:0,_RNCNCNvMs_NtNtCs6CcTQqNWjGP_13rust_jira_mcp4jira6clientNtB8_10JiraClient17perform_operation0s_0Bc_
FNDA:0,_RNCNCNvMs_NtNtCs6CcTQqNWjGP_13rust_jira_mcp4jira6clientNtB8_10JiraClient17upload_attachment00Bc_
FNDA:0,_RNCNCNvMs_NtNtCs6CcTQqNWjGP_13rust_jira_mcp4jira6clientNtB8_10JiraClient18bulk_update_issues00Bc_
FNDA:0,_RNCNCNvMs_NtNtCs6CcTQqNWjGP_13rust_jira_mcp4jira6clientNtB8_10JiraClient19download_attachment00Bc_
FNDA:0,_RNCNCNvMs_NtNtCs6CcTQqNWjGP_13rust_jira_mcp4jira6clientNtB8_10JiraClient19get_issue_work_logs00Bc_
FNDA:0,_RNCNCNvMs_NtNtCs6CcTQqNWjGP_13rust_jira_mcp4jira6clientNtB8_10JiraClient19get_issue_work_logs0s_0Bc_
FNDA:0,_RNCNCNvMs_NtNtCs6CcTQqNWjGP_13rust_jira_mcp4jira6clientNtB8_10JiraClient21get_issue_attachments00Bc_
FNDA:0,_RNCNCNvMs_NtNtCs6CcTQqNWjGP_13rust_jira_mcp4jira6clientNtB8_10JiraClient21get_issue_attachments0s_0Bc_
FNDA:0,_RNCNCNvMs_NtNtCs6CcTQqNWjGP_13rust_jira_mcp4jira6clientNtB8_10JiraClient21get_zephyr_test_plans00Bc_
FNDA:0,_RNCNCNvMs_NtNtCs6CcTQqNWjGP_13rust_jira_mcp4jira6clientNtB8_10JiraClient21get_zephyr_test_plans0s_0Bc_
FNDA:0,_RNCNCNvMs_NtNtCs6CcTQqNWjGP_13rust_jira_mcp4jira6clientNtB8_10JiraClient21get_zephyr_test_steps00Bc_
FNDA:0,_RNCNCNvMs_NtNtCs6CcTQqNWjGP_13rust_jira_mcp4jira6clientNtB8_10JiraClient21get_zephyr_test_steps0s_0Bc_
FNDA:0,_RNCNCNvMs_NtNtCs6CcTQqNWjGP_13rust_jira_mcp4jira6clientNtB8_10JiraClient22bulk_transition_issues00Bc_
FNDA:0,_RNCNCNvMs_NtNtCs6CcTQqNWjGP_13rust_jira_mcp4jira6clientNtB8_10JiraClient22get_zephyr_test_cycles00Bc_
FNDA:0,_RNCNCNvMs_NtNtCs6CcTQqNWjGP_13rust_jira_mcp4jira6clientNtB8_10JiraClient22get_zephyr_test_cycles0s_0Bc_
FNDA:0,_RNCNCNvMs_NtNtCs6CcTQqNWjGP_13rust_jira_mcp4jira6clientNtB8_10JiraClient23get_project_issue_types00Bc_
FNDA:0,_RNCNCNvMs_NtNtCs6CcTQqNWjGP_13rust_jira_mcp4jira6clientNtB8_10JiraClient23get_project_issue_types0s_0Bc_
FNDA:0,_RNCNCNvMs_NtNtCs6CcTQqNWjGP_13rust_jira_mcp4jira6clientNtB8_10JiraClient24search_zephyr_test_cases00Bc_
FNDA:0,_RNCNCNvMs_NtNtCs6CcTQqNWjGP_13rust_jira_mcp4jira6clientNtB8_10JiraClient26get_zephyr_test_executions00Bc_
FNDA:0,_RNCNCNvMs_NtNtCs6CcTQqNWjGP_13rust_jira_mcp4jira6clientNtB8_10JiraClient26get_zephyr_test_executions0s_0Bc_
FNDA:0,_RNCNvMNtNtCs6CcTQqNWjGP_13rust_jira_mcp4jira6clientNtB4_11RateLimiter14wait_if_needed0B8_
FNDA:0,_RNCNvMs_NtNtCs6CcTQqNWjGP_13rust_jira_mcp4jira6clientNtB6_10JiraClient10get_labels0Ba_
FNDA:0,_RNCNvMs_NtNtCs6CcTQqNWjGP_13rust_jira_mcp4jira6clientNtB6_10JiraClient11add_comment0Ba_
FNDA:0,_RNCNvMs_NtNtCs6CcTQqNWjGP_13rust_jira_mcp4jira6clientNtB6_10JiraClient11clone_issue0Ba_
FNDA:0,_RNCNvMs_NtNtCs6CcTQqNWjGP_13rust_jira_mcp4jira6clientNtB6_10JiraClient11link_issues0Ba_
FNDA:0,_RNCNvMs_NtNtCs6CcTQqNWjGP_13rust_jira_mcp4jira6clientNtB6_10JiraClient12add_work_log0Ba_
FNDA:0,_RNCNvMs_NtNtCs6CcTQqNWjGP_13rust_jira_mcp4jira6clientNtB6_10JiraClient12create_issue0Ba_
FNDA:0,_RNCNvMs_NtNtCs6CcTQqNWjGP_13rust_jira_mcp4jira6clientNtB6_10JiraClient12create_label0Ba_
FNDA:0,_RNCNvMs_NtNtCs6CcTQqNWjGP_13rust_jira_mcp4jira6clientNtB6_10JiraClient12delete_label0Ba_
FNDA:0,_RNCNvMs_NtNtCs6CcTQqNWjGP_13rust_jira_mcp4jira6clientNtB6_10JiraClient12get_comments0Ba_
FNDA:0,_RNCNvMs_NtNtCs6CcTQqNWjGP_13rust_jira_mcp4jira6clientNtB6_10JiraClient12get_statuses0Ba_
FNDA:0,_RNCNvMs_NtNtCs6CcTQqNWjGP_13rust_jira_mcp4jira6clientNtB6_10JiraClient12update_issue0Ba_
FNDA:0,_RNCNvMs_NtNtCs6CcTQqNWjGP_13rust_jira_mcp4jira6clientNtB6_10JiraClient12update_label0Ba_
FNDA:0,_RNCNvMs_NtNtCs6CcTQqNWjGP_13rust_jira_mcp4jira6clientNtB6_10JiraClient13process_batch0Ba_
FNDA:0,_RNCNvMs_NtNtCs6CcTQqNWjGP_13rust_jira_mcp4jira6clientNtB6_10JiraClient13search_issues0Ba_
FNDA:0,_RNCNvMs_NtNtCs6CcTQqNWjGP_13rust_jira_mcp4jira6clientNtB6_10JiraClient14get_link_types0Ba_
FNDA:0,_RNCNvMs_NtNtCs6CcTQqNWjGP_13rust_jira_mcp4jira6clientNtB6_10JiraClient14get_priorities0Ba_
FNDA:0,_RNCNvMs_NtNtCs6CcTQqNWjGP_13rust_jira_mcp4jira6clientNtB6_10JiraClient15delete_work_log0Ba_
FNDA:0,_RNCNvMs_NtNtCs6CcTQqNWjGP_13rust_jira_mcp4jira6clientNtB6_10JiraClient15get_issue_links0Ba_
FNDA:0,_RNCNvMs_NtNtCs6CcTQqNWjGP_13rust_jira_mcp4jira6clientNtB6_10JiraClient15get_transitions0Ba_
FNDA:0,_RNCNvMs_NtNtCs6CcTQqNWjGP_13rust_jira_mcp4jira6clientNtB6_10JiraClient15update_work_log0Ba_
FNDA:0,_RNCNvMs_NtNtCs6CcTQqNWjGP_13rust_jira_mcp4jira6clientNtB6_10JiraClient16build_zephyr_url0Ba_
FNDA:0,_RNCNvMs_NtNtCs6CcTQqNWjGP_13rust_jira_mcp4jira6clientNtB6_10JiraClient16build_zephyr_urls_0Ba_
FNDA:0,_RNCNvMs_NtNtCs6CcTQqNWjGP_13rust_jira_mcp4jira6clientNtB6_10JiraClient16create_component0Ba_
FNDA:0,_RNCNvMs_NtNtCs6CcTQqNWjGP_13rust_jira_mcp4jira6clientNtB6_10JiraClient16delete_component0Ba_
FNDA:0,_RNCNvMs_NtNtCs6CcTQqNWjGP_13rust_jira_mcp4jira6clientNtB6_10JiraClient16transition_issue0Ba_
FNDA:0,_RNCNvMs_NtNtCs6CcTQqNWjGP_13rust_jira_mcp4jira6clientNtB6_10JiraClient16update_component0Ba_
FNDA:0,_RNCNvMs_NtNtCs6CcTQqNWjGP_13rust_jira_mcp4jira6clientNtB6_10JiraClient17add_issue_watcher0Ba_
FNDA:0,_RNCNvMs_NtNtCs6CcTQqNWjGP_13rust_jira_mcp4jira6clientNtB6_10JiraClient17bulk_add_comments0Ba_
FNDA:0,_RNCNvMs_NtNtCs6CcTQqNWjGP_13rust_jira_mcp4jira6clientNtB6_10JiraClient17create_issue_link0Ba_
FNDA:0,_RNCNvMs_NtNtCs6CcTQqNWjGP_13rust_jira_mcp4jira6clientNtB6_10JiraClient17delete_attachment0Ba_
FNDA:0,_RNCNvMs_NtNtCs6CcTQqNWjGP_13rust_jira_mcp4jira6clientNtB6_10JiraClient17delete_issue_link0Ba_
FNDA:0,_RNCNvMs_NtNtCs6CcTQqNWjGP_13rust_jira_mcp4jira6clientNtB6_10JiraClient17get_custom_fields0Ba_
FNDA:0,_RNCNvMs_NtNtCs6CcTQqNWjGP_13rust_jira_mcp4jira6clientNtB6_10JiraClient17perform_operation0Ba_
FNDA:0,_RNCNvMs_NtNtCs6CcTQqNWjGP_13rust_jira_mcp4jira6clientNtB6_10JiraClient17upload_attachment0Ba_
FNDA:0,_RNCNvMs_NtNtCs6CcTQqNWjGP_13rust_jira_mcp4jira6clientNtB6_10JiraClient18bulk_update_issues0Ba_
FNDA:0,_RNCNvMs_NtNtCs6CcTQqNWjGP_13rust_jira_mcp4jira6clientNtB6_10JiraClient18get_issue_watchers0Ba_
FNDA:0,_RNCNvMs_NtNtCs6CcTQqNWjGP_13rust_jira_mcp4jira6clientNtB6_10JiraClient19download_attachment0Ba_
FNDA:0,_RNCNvMs_NtNtCs6CcTQqNWjGP_13rust_jira_mcp4jira6clientNtB6_10JiraClient19get_issue_work_logs0Ba_
FNDA:0,_RNCNvMs_NtNtCs6CcTQqNWjGP_13rust_jira_mcp4jira6clientNtB6_10JiraClient20get_project_metadata0Ba_
FNDA:0,_RNCNvMs_NtNtCs6CcTQqNWjGP_13rust_jira_mcp4jira6clientNtB6_10JiraClient20remove_issue_watcher0Ba_
FNDA:0,_RNCNvMs_NtNtCs6CcTQqNWjGP_13rust_jira_mcp4jira6clientNtB6_10JiraClient21get_issue_attachments0Ba_
FNDA:0,_RNCNvMs_NtNtCs6CcTQqNWjGP_13rust_jira_mcp4jira6clientNtB6_10JiraClient21get_zephyr_test_plans0Ba_
FNDA:0,_RNCNvMs_NtNtCs6CcTQqNWjGP_13rust_jira_mcp4jira6clientNtB6_10JiraClient21get_zephyr_test_steps0Ba_
FNDA:0,_RNCNvMs_NtNtCs6CcTQqNWjGP_13rust_jira_mcp4jira6clientNtB6_10JiraClient22bulk_transition_issues0Ba_
FNDA:0,_RNCNvMs_NtNtCs6CcTQqNWjGP_13rust_jira_mcp4jira6clientNtB6_10JiraClient22get_project_components0Ba_
FNDA:0,_RNCNvMs_NtNtCs6CcTQqNWjGP_13rust_jira_mcp4jira6clientNtB6_10JiraClient22get_zephyr_test_cycles0Ba_
FNDA:0,_RNCNvMs_NtNtCs6CcTQqNWjGP_13rust_jira_mcp4jira6clientNtB6_10JiraClient23create_zephyr_test_case0Ba_
FNDA:0,_RNCNvMs_NtNtCs6CcTQqNWjGP_13rust_jira_mcp4jira6clientNtB6_10JiraClient23create_zephyr_test_step0Ba_
FNDA:0,_RNCNvMs_NtNtCs6CcTQqNWjGP_13rust_jira_mcp4jira6clientNtB6_10JiraClient23delete_zephyr_test_step0Ba_
FNDA:0,_RNCNvMs_NtNtCs6CcTQqNWjGP_13rust_jira_mcp4jira6clientNtB6_10JiraClient23execute_bulk_operations0Ba_
FNDA:0,_RNCNvMs_NtNtCs6CcTQqNWjGP_13rust_jira_mcp4jira6clientNtB6_10JiraClient23get_issue_type_metadata0Ba_
FNDA:0,_RNCNvMs_NtNtCs6CcTQqNWjGP_13rust_jira_mcp4jira6clientNtB6_10JiraClient23get_project_issue_types0Ba_
FNDA:0,_RNCNvMs_NtNtCs6CcTQqNWjGP_13rust_jira_mcp4jira6clientNtB6_10JiraClient23update_zephyr_test_step0Ba_
FNDA:0,_RNCNvMs_NtNtCs6CcTQqNWjGP_13rust_jira_mcp4jira6clientNtB6_10JiraClient24execute_single_operation0Ba_
FNDA:0,_RNCNvMs_NtNtCs6CcTQqNWjGP_13rust_jira_mcp4jira6clientNtB6_10JiraClient24search_zephyr_test_cases0Ba_
FNDA:0,_RNCNvMs_NtNtCs6CcTQqNWjGP_13rust_jira_mcp4jira6clientNtB6_10JiraClient25get_project_configuration0Ba_
FNDA:0,_RNCNvMs_NtNtCs6CcTQqNWjGP_13rust_jira_mcp4jira6clientNtB6_10JiraClient26get_zephyr_test_executions0Ba_
FNDA:0,_RNCNvMs_NtNtCs6CcTQqNWjGP_13rust_jira_mcp4jira6clientNtB6_10JiraClient28create_zephyr_test_execution0Ba_
FNDA:0,_RNCNvMs_NtNtCs6CcTQqNWjGP_13rust_jira_mcp4jira6clientNtB6_10JiraClient9build_url0Ba_
FNDA:0,_RNCNvMs_NtNtCs6CcTQqNWjGP_13rust_jira_mcp4jira6clientNtB6_10JiraClient9build_urls_0Ba_
FNDA:0,_RNCNvMs_NtNtCs6CcTQqNWjGP_13rust_jira_mcp4jira6clientNtB6_10JiraClient9get_issue0Ba_
FNDA:0,_RNvMNtNtCs6CcTQqNWjGP_13rust_jira_mcp4jira6clientNtB2_11RateLimiter14wait_if_needed
FNDA:0,_RNvMNtNtCs6CcTQqNWjGP_13rust_jira_mcp4jira6clientNtB2_11RateLimiter3new
FNDA:0,_RNvMs_NtNtCs6CcTQqNWjGP_13rust_jira_mcp4jira6clientNtB4_10JiraClient10get_labels
FNDA:0,_RNvMs_NtNtCs6CcTQqNWjGP_13rust_jira_mcp4jira6clientNtB4_10JiraClient11add_comment
FNDA:0,_RNvMs_NtNtCs6CcTQqNWjGP_13rust_jira_mcp4jira6clientNtB4_10JiraClient11auth_header
FNDA:0,_RNvMs_NtNtCs6CcTQqNWjGP_13rust_jira_mcp4jira6clientNtB4_10JiraClient11clone_issue
FNDA:0,_RNvMs_NtNtCs6CcTQqNWjGP_13rust_jira_mcp4jira6clientNtB4_10JiraClient11http_client
FNDA:0,_RNvMs_NtNtCs6CcTQqNWjGP_13rust_jira_mcp4jira6clientNtB4_10JiraClient11link_issues
FNDA:0,_RNvMs_NtNtCs6CcTQqNWjGP_13rust_jira_mcp4jira6clientNtB4_10JiraClient12add_work_log
FNDA:0,_RNvMs_NtNtCs6CcTQqNWjGP_13rust_jira_mcp4jira6clientNtB4_10JiraClient12api_base_url
FNDA:0,_RNvMs_NtNtCs6CcTQqNWjGP_13rust_jira_mcp4jira6clientNtB4_10JiraClient12create_issue
FNDA:0,_RNvMs_NtNtCs6CcTQqNWjGP_13rust_jira_mcp4jira6clientNtB4_10JiraClient12create_label
FNDA:0,_RNvMs_NtNtCs6CcTQqNWjGP_13rust_jira_mcp4jira6clientNtB4_10JiraClient12delete_label
FNDA:0,_RNvMs_NtNtCs6CcTQqNWjGP_13rust_jira_mcp4jira6clientNtB4_10JiraClient12get_comments
FNDA:0,_RNvMs_NtNtCs6CcTQqNWjGP_13rust_jira_mcp4jira6clientNtB4_10JiraClient12get_statuses
FNDA:0,_RNvMs_NtNtCs6CcTQqNWjGP_13rust_jira_mcp4jira6clientNtB4_10JiraClient12should_retry
FNDA:0,_RNvMs_NtNtCs6CcTQqNWjGP_13rust_jira_mcp4jira6clientNtB4_10JiraClient12update_issue
FNDA:0,_RNvMs_NtNtCs6CcTQqNWjGP_13rust_jira_mcp4jira6clientNtB4_10JiraClient12update_label
FNDA:0,_RNvMs_NtNtCs6CcTQqNWjGP_13rust_jira_mcp4jira6clientNtB4_10JiraClient13process_batch
FNDA:0,_RNvMs_NtNtCs6CcTQqNWjGP_13rust_jira_mcp4jira6clientNtB4_10JiraClient13search_issues
FNDA:0,_RNvMs_NtNtCs6CcTQqNWjGP_13rust_jira_mcp4jira6clientNtB4_10JiraClient14get_link_types
FNDA:0,_RNvMs_NtNtCs6CcTQqNWjGP_13rust_jira_mcp4jira6clientNtB4_10JiraClient14get_priorities
FNDA:0,_RNvMs_NtNtCs6CcTQqNWjGP_13rust_jira_mcp4jira6clientNtB4_10JiraClient15delete_work_log
FNDA:0,_RNvMs_NtNtCs6CcTQqNWjGP_13rust_jira_mcp4jira6clientNtB4_10JiraClient15get_issue_links
FNDA:0,_RNvMs_NtNtCs6CcTQqNWjGP_13rust_jira_mcp4jira6clientNtB4_10JiraClient15get_transitions
FNDA:0,_RNvMs_NtNtCs6CcTQqNWjGP_13rust_jira_mcp4jira6clientNtB4_10JiraClient15update_work_log
FNDA:0,_RNvMs_NtNtCs6CcTQqNWjGP_13rust_jira_mcp4jira6clientNtB4_10JiraClient16build_zephyr_url
FNDA:0,_RNvMs_NtNtCs6CcTQqNWjGP_13rust_jira_mcp4jira6clientNtB4_10JiraClient16create_component
FNDA:0,_RNvMs_NtNtCs6CcTQqNWjGP_13rust_jira_mcp4jira6clientNtB4_10JiraClient16delete_component
FNDA:0,_RNvMs_NtNtCs6CcTQqNWjGP_13rust_jira_mcp4jira6clientNtB4_10JiraClient16transition_issue
FNDA:0,_RNvMs_NtNtCs6CcTQqNWjGP_13rust_jira_mcp4jira6clientNtB4_10JiraClient16update_component
FNDA:0,_RNvMs_NtNtCs6CcTQqNWjGP_13rust_jira_mcp4jira6clientNtB4_10JiraClient17add_issue_watcher
FNDA:0,_RNvMs_NtNtCs6CcTQqNWjGP_13rust_jira_mcp4jira6clientNtB4_10JiraClient17bulk_add_comments
FNDA:0,_RNvMs_NtNtCs6CcTQqNWjGP_13rust_jira_mcp4jira6clientNtB4_10JiraClient17create_issue_link
FNDA:0,_RNvMs_NtNtCs6CcTQqNWjGP_13rust_jira_mcp4jira6clientNtB4_10JiraClient17delete_attachment
FNDA:0,_RNvMs_NtNtCs6CcTQqNWjGP_13rust_jira_mcp4jira6clientNtB4_10JiraClient17delete_issue_link
FNDA:0,_RNvMs_NtNtCs6CcTQqNWjGP_13rust_jira_mcp4jira6clientNtB4_10JiraClient17get_custom_fields
FNDA:0,_RNvMs_NtNtCs6CcTQqNWjGP_13rust_jira_mcp4jira6clientNtB4_10JiraClient17perform_operation
FNDA:0,_RNvMs_NtNtCs6CcTQqNWjGP_13rust_jira_mcp4jira6clientNtB4_10JiraClient17upload_attachment
FNDA:0,_RNvMs_NtNtCs6CcTQqNWjGP_13rust_jira_mcp4jira6clientNtB4_10JiraClient18bulk_update_issues
FNDA:0,_RNvMs_NtNtCs6CcTQqNWjGP_13rust_jira_mcp4jira6clientNtB4_10JiraClient18get_issue_watchers
FNDA:0,_RNvMs_NtNtCs6CcTQqNWjGP_13rust_jira_mcp4jira6clientNtB4_10JiraClient19download_attachment
FNDA:0,_RNvMs_NtNtCs6CcTQqNWjGP_13rust_jira_mcp4jira6clientNtB4_10JiraClient19get_issue_work_logs
FNDA:0,_RNvMs_NtNtCs6CcTQqNWjGP_13rust_jira_mcp4jira6clientNtB4_10JiraClient19zephyr_api_base_url
FNDA:0,_RNvMs_NtNtCs6CcTQqNWjGP_13rust_jira_mcp4jira6clientNtB4_10JiraClient20get_project_metadata
FNDA:0,_RNvMs_NtNtCs6CcTQqNWjGP_13rust_jira_mcp4jira6clientNtB4_10JiraClient20remove_issue_watcher
FNDA:0,_RNvMs_NtNtCs6CcTQqNWjGP_13rust_jira_mcp4jira6clientNtB4_10JiraClient21get_issue_attachments
FNDA:0,_RNvMs_NtNtCs6CcTQqNWjGP_13rust_jira_mcp4jira6clientNtB4_10JiraClient21get_zephyr_test_plans
FNDA:0,_RNvMs_NtNtCs6CcTQqNWjGP_13rust_jira_mcp4jira6clientNtB4_10JiraClient21get_zephyr_test_steps
FNDA:0,_RNvMs_NtNtCs6CcTQqNWjGP_13rust_jira_mcp4jira6clientNtB4_10JiraClient22bulk_transition_issues
FNDA:0,_RNvMs_NtNtCs6CcTQqNWjGP_13rust_jira_mcp4jira6clientNtB4_10JiraClient22get_project_components
FNDA:0,_RNvMs_NtNtCs6CcTQqNWjGP_13rust_jira_mcp4jira6clientNtB4_10JiraClient22get_zephyr_test_cycles
FNDA:0,_RNvMs_NtNtCs6CcTQqNWjGP_13rust_jira_mcp4jira6clientNtB4_10JiraClient22should_retry_operation
FNDA:0,_RNvMs_NtNtCs6CcTQqNWjGP_13rust_jira_mcp4jira6clientNtB4_10JiraClient23create_zephyr_test_case
FNDA:0,_RNvMs_NtNtCs6CcTQqNWjGP_13rust_jira_mcp4jira6clientNtB4_10JiraClient23create_zephyr_test_step
FNDA:0,_RNvMs_NtNtCs6CcTQqNWjGP_13rust_jira_mcp4jira6clientNtB4_10JiraClient23delete_zephyr_test_step
FNDA:0,_RNvMs_NtNtCs6CcTQqNWjGP_13rust_jira_mcp4jira6clientNtB4_10JiraClient23execute_bulk_operations
FNDA:0,_RNvMs_NtNtCs6CcTQqNWjGP_13rust_jira_mcp4jira6clientNtB4_10JiraClient23get_issue_type_metadata
FNDA:0,_RNvMs_NtNtCs6CcTQqNWjGP_13rust_jira_mcp4jira6clientNtB4_10JiraClient23get_project_issue_types
FNDA:0,_RNvMs_NtNtCs6CcTQqNWjGP_13rust_jira_mcp4jira6clientNtB4_10JiraClient23update_zephyr_test_step
FNDA:0,_RNvMs_NtNtCs6CcTQqNWjGP_13rust_jira_mcp4jira6clientNtB4_10JiraClient24execute_single_operation
FNDA:0,_RNvMs_NtNtCs6CcTQqNWjGP_13rust_jira_mcp4jira6clientNtB4_10JiraClient24search_zephyr_test_cases
FNDA:0,_RNvMs_NtNtCs6CcTQqNWjGP_13rust_jira_mcp4jira6clientNtB4_10JiraClient25get_project_configuration
FNDA:0,_RNvMs_NtNtCs6CcTQqNWjGP_13rust_jira_mcp4jira6clientNtB4_10JiraClient26get_zephyr_test_executions
FNDA:0,_RNvMs_NtNtCs6CcTQqNWjGP_13rust_jira_mcp4jira6clientNtB4_10JiraClient28create_zephyr_test_execution
FNDA:0,_RNvMs_NtNtCs6CcTQqNWjGP_13rust_jira_mcp4jira6clientNtB4_10JiraClient3new
FNDA:0,_RNvMs_NtNtCs6CcTQqNWjGP_13rust_jira_mcp4jira6clientNtB4_10JiraClient9build_url
FNDA:0,_RNvMs_NtNtCs6CcTQqNWjGP_13rust_jira_mcp4jira6clientNtB4_10JiraClient9get_issue
FNF:195
FNH:123
DA:34,1758
DA:35,1758
DA:36,1758
DA:37,1758
DA:38,1758
DA:39,1758
DA:40,1758
DA:41,1758
DA:42,1758
DA:43,1758
DA:45,75
DA:46,75
DA:47,75
DA:48,75
DA:49,75
DA:52,75
DA:53,0
DA:54,0
DA:55,0
DA:56,75
DA:58,75
DA:59,75
DA:60,75
DA:61,75
DA:62,75
DA:71,1758
DA:72,1758
DA:73,1758
DA:74,1758
DA:75,1758
DA:76,1758
DA:78,1758
DA:80,1758
DA:81,1758
DA:82,1758
DA:83,1758
DA:84,1758
DA:85,1758
DA:89,2
DA:90,2
DA:91,2
DA:95,77
DA:96,77
DA:97,77
DA:101,0
DA:102,0
DA:103,0
DA:110,32
DA:111,32
DA:112,32
DA:113,32
DA:114,32
DA:115,32
DA:122,19
DA:123,19
DA:124,19
DA:125,19
DA:126,19
DA:127,19
DA:128,19
DA:135,10
DA:136,10
DA:137,10
DA:138,10
DA:139,10
DA:140,10
DA:141,10
DA:148,2
DA:149,2
DA:150,2
DA:151,2
DA:152,2
DA:153,2
DA:160,63
DA:161,63
DA:162,63
DA:163,63
DA:164,63
DA:165,63
DA:166,63
DA:167,63
DA:171,63
DA:173,63
DA:175,63
DA:179,63
DA:180,12
DA:181,12
DA:182,12
DA:184,12
DA:185,0
DA:186,0
DA:188,0
DA:190,0
DA:191,0
DA:192,0
DA:193,0
DA:194,12
DA:196,12
DA:198,12
DA:201,12
DA:202,12
DA:204,12
DA:207,12
DA:208,0
DA:210,0
DA:211,0
DA:213,0
DA:214,0
DA:217,0
DA:218,0
DA:219,12
DA:221,12
DA:223,51
DA:224,51
DA:226,51
DA:227,0
DA:229,0
DA:230,0
DA:232,0
DA:233,0
DA:236,0
DA:237,0
DA:238,51
DA:240,51
DA:244,63
DA:247,64
DA:248,64
DA:249,64
DA:251,64
DA:252,64
DA:253,64
DA:254,64
DA:257,63
DA:258,63
DA:259,63
DA:260,63
DA:261,63
DA:262,63
DA:263,63
DA:264,63
DA:266,63
DA:267,63
DA:268,63
DA:269,63
DA:270,63
DA:271,63
DA:273,63
DA:274,29
DA:275,29
DA:276,29
DA:277,34
DA:279,63
DA:280,63
DA:284,23
DA:285,18
DA:286,23
DA:293,23
DA:302,7
DA:303,7
DA:304,7
DA:305,7
DA:312,4
DA:313,4
DA:314,4
DA:315,4
DA:316,4
DA:317,4
DA:318,4
DA:320,4
DA:321,1
DA:322,3
DA:324,4
DA:325,3
DA:326,3
DA:327,1
DA:328,1
DA:330,4
DA:331,4
DA:332,9
DA:333,4
DA:334,4
DA:336,4
DA:337,4
DA:338,4
DA:345,3
DA:346,3
DA:347,3
DA:354,8
DA:355,8
DA:356,8
DA:357,8
DA:358,8
DA:359,8
DA:360,8
DA:361,0
DA:362,8
DA:369,5
DA:370,5
DA:371,5
DA:372,5
DA:374,5
DA:375,5
DA:382,1
DA:383,1
DA:384,1
DA:387,0
DA:388,0
DA:389,0
DA:390,0
DA:392,0
DA:393,0
DA:394,0
DA:395,0
DA:396,0
DA:399,0
DA:400,1
DA:407,1
DA:408,1
DA:409,1
DA:412,0
DA:413,0
DA:414,0
DA:415,0
DA:417,0
DA:418,0
DA:419,0
DA:420,0
DA:421,0
DA:424,0
DA:425,1
DA:432,5
DA:433,5
DA:434,5
DA:435,5
DA:436,5
DA:437,5
DA:438,5
DA:440,5
DA:441,5
DA:442,5
DA:446,5
DA:447,0
DA:448,0
DA:449,5
DA:451,5
DA:452,0
DA:453,5
DA:462,1
DA:463,1
DA:464,1
DA:465,1
DA:472,1
DA:473,1
DA:474,1
DA:475,1
DA:476,1
DA:477,1
DA:479,0
DA:480,0
DA:481,0
DA:482,0
DA:483,0
DA:484,0
DA:486,0
DA:487,0
DA:488,0
DA:489,0
DA:490,0
DA:491,0
DA:494,0
DA:495,1
DA:502,1
DA:503,1
DA:504,1
DA:505,1
DA:506,1
DA:507,1
DA:508,1
DA:515,2
DA:516,2
DA:517,2
DA:518,2
DA:519,2
DA:520,2
DA:521,2
DA:528,1
DA:529,1
DA:530,1
DA:537,1
DA:538,1
DA:539,1
DA:546,1
DA:547,1
DA:548,1
DA:550,0
DA:551,0
DA:552,0
DA:554,0
DA:555,1
DA:563,2
DA:564,2
DA:565,2
DA:572,2
DA:573,2
DA:574,2
DA:576,0
DA:577,0
DA:578,0
DA:580,0
DA:581,0
DA:582,0
DA:583,0
DA:584,0
DA:587,0
DA:588,2
DA:595,2
DA:596,2
DA:597,2
DA:598,0
DA:599,2
DA:606,1
DA:607,1
DA:608,1
DA:609,0
DA:610,1
DA:617,1
DA:618,1
DA:619,1
DA:620,1
DA:621,1
DA:622,1
DA:623,1
DA:624,1
DA:625,1
DA:626,1
DA:627,1
DA:628,1
DA:629,1
DA:630,1
DA:631,1
DA:632,1
DA:633,1
DA:634,1
DA:635,1
DA:636,1
DA:637,1
DA:640,1
DA:641,1
DA:650,2
DA:651,2
DA:653,0
DA:654,0
DA:655,0
DA:656,0
DA:657,0
DA:659,0
DA:660,0
DA:661,0
DA:662,0
DA:663,0
DA:666,0
DA:667,2
DA:674,1
DA:675,1
DA:676,1
DA:677,1
DA:678,1
DA:679,1
DA:680,1
DA:681,1
DA:682,1
DA:685,1
DA:687,1
DA:688,1
DA:689,1
DA:690,1
DA:691,1
DA:694,1
DA:695,1
DA:697,1
DA:700,1
DA:701,0
DA:702,1
DA:704,1
DA:706,1
DA:708,1
DA:709,0
DA:711,0
DA:712,0
DA:713,0
DA:715,0
DA:716,0
DA:718,0
DA:720,0
DA:721,0
DA:723,0
DA:724,0
DA:726,0
DA:728,1
DA:735,0
DA:736,0
DA:737,0
DA:738,0
DA:739,0
DA:746,0
DA:747,0
DA:748,0
DA:751,0
DA:753,0
DA:754,0
DA:755,0
DA:756,0
DA:758,0
DA:760,0
DA:761,0
DA:763,0
DA:764,0
DA:765,0
DA:767,0
DA:768,0
DA:770,0
DA:771,0
DA:773,0
DA:775,0
DA:784,2
DA:785,2
DA:786,2
DA:788,0
DA:789,0
DA:790,0
DA:791,0
DA:793,0
DA:794,0
DA:795,0
DA:796,0
DA:797,0
DA:800,0
DA:801,2
DA:808,1
DA:809,1
DA:810,1
DA:811,1
DA:812,1
DA:813,1
DA:814,1
DA:815,1
DA:822,0
DA:823,0
DA:824,0
DA:825,0
DA:826,0
DA:827,0
DA:828,0
DA:829,0
DA:830,0
DA:837,0
DA:838,0
DA:839,0
DA:840,0
DA:841,0
DA:853,0
DA:854,0
DA:855,0
DA:856,0
DA:857,0
DA:858,0
DA:859,0
DA:860,0
DA:861,0
DA:863,0
DA:864,0
DA:865,0
DA:866,0
DA:867,0
DA:868,0
DA:869,0
DA:870,0
DA:871,0
DA:872,0
DA:881,8
DA:882,8
DA:883,8
DA:884,8
DA:885,8
DA:886,8
DA:887,8
DA:889,8
DA:892,8
DA:893,0
DA:894,0
DA:895,0
DA:896,8
DA:899,8
DA:900,8
DA:902,8
DA:903,8
DA:905,23
DA:906,15
DA:907,15
DA:909,8
DA:910,8
DA:913,8
DA:914,8
DA:915,0
DA:918,8
DA:920,8
DA:921,0
DA:924,0
DA:927,8
DA:928,8
DA:931,8
DA:932,8
DA:933,8
DA:934,8
DA:935,8
DA:936,8
DA:938,23
DA:939,15
DA:940,15
DA:943,15
DA:944,15
DA:945,0
DA:948,8
DA:949,8
DA:952,15
DA:953,15
DA:954,15
DA:955,15
DA:956,15
DA:957,15
DA:958,15
DA:961,15
DA:963,0
DA:964,0
DA:965,0
DA:966,0
DA:967,0
DA:968,0
DA:970,15
DA:971,15
DA:972,0
DA:973,0
DA:974,0
DA:976,0
DA:977,0
DA:980,0
DA:981,0
DA:982,15
DA:984,15
DA:985,15
DA:986,15
DA:987,15
DA:988,15
DA:989,15
DA:993,15
DA:996,15
DA:997,15
DA:999,7
DA:1000,7
DA:1003,4
DA:1004,4
DA:1005,4
DA:1006,4
DA:1007,4
DA:1008,0
DA:1009,0
DA:1010,4
DA:1011,4
DA:1012,4
DA:1015,4
DA:1016,4
DA:1017,4
DA:1018,4
DA:1019,4
DA:1020,0
DA:1021,0
DA:1022,4
DA:1023,0
DA:1027,0
DA:1029,0
DA:1030,0
DA:1031,0
DA:1033,0
DA:1034,0
DA:1035,0
DA:1036,0
DA:1037,0
DA:1038,0
DA:1039,0
DA:1040,0
DA:1041,0
DA:1042,0
DA:1043,0
DA:1045,0
DA:1046,0
DA:1047,0
DA:1048,0
DA:1049,0
DA:1050,0
DA:1051,0
DA:1052,0
DA:1053,0
DA:1055,0
DA:1056,0
DA:1057,0
DA:1061,15
DA:1064,15
DA:1065,15
DA:1066,13
DA:1067,2
DA:1068,2
DA:1069,2
DA:1070,2
DA:1072,0
DA:1074,15
DA:1081,3
DA:1082,3
DA:1083,3
DA:1084,3
DA:1085,3
DA:1086,3
DA:1087,3
DA:1088,3
DA:1089,3
DA:1090,3
DA:1091,6
DA:1092,6
DA:1093,6
DA:1094,6
DA:1095,3
DA:1097,3
DA:1098,3
DA:1105,2
DA:1106,2
DA:1107,2
DA:1108,2
DA:1109,2
DA:1110,2
DA:1111,2
DA:1112,2
DA:1113,2
DA:1114,2
DA:1117,2
DA:1118,0
DA:1119,2
DA:1121,2
DA:1122,2
DA:1123,2
DA:1124,4
DA:1125,4
DA:1126,4
DA:1127,4
DA:1128,2
DA:1130,2
DA:1131,2
DA:1138,2
DA:1139,2
DA:1140,2
DA:1141,2
DA:1142,2
DA:1143,2
DA:1144,2
DA:1145,2
DA:1146,2
DA:1149,2
DA:1150,2
DA:1151,2
DA:1152,4
DA:1153,4
DA:1154,4
DA:1155,4
DA:1156,2
DA:1158,2
DA:1159,2
DA:1168,2
DA:1169,2
DA:1170,2
DA:1171,2
DA:1178,1
DA:1179,1
DA:1180,1
DA:1181,1
DA:1183,1
DA:1184,0
DA:1185,1
DA:1192,0
DA:1193,0
DA:1194,0
DA:1195,0
DA:1196,0
DA:1205,2
DA:1206,2
DA:1207,2
DA:1209,0
DA:1210,0
DA:1211,0
DA:1213,0
DA:1214,0
DA:1215,0
DA:1216,0
DA:1217,0
DA:1220,0
DA:1221,2
DA:1228,1
DA:1229,1
DA:1230,1
DA:1237,0
DA:1238,0
DA:1239,0
DA:1240,0
DA:1241,0
DA:1242,0
DA:1243,0
DA:1244,0
DA:1251,0
DA:1252,0
DA:1253,0
DA:1254,0
DA:1255,0
DA:1264,0
DA:1265,0
DA:1266,0
DA:1267,0
DA:1268,0
DA:1269,0
DA:1276,1
DA:1277,1
DA:1278,1
DA:1279,1
DA:1280,1
DA:1281,1
DA:1282,1
DA:1283,1
DA:1290,0
DA:1291,0
DA:1292,0
DA:1293,0
DA:1294,0
DA:1303,0
DA:1304,0
DA:1305,0
DA:1306,0
DA:1307,0
DA:1309,0
DA:1312,0
DA:1313,0
DA:1314,0
DA:1315,0
DA:1317,0
DA:1318,0
DA:1320,0
DA:1325,0
DA:1326,0
DA:1327,0
DA:1328,0
DA:1331,0
DA:1332,0
DA:1333,0
DA:1336,0
DA:1339,0
DA:1342,0
DA:1343,0
DA:1344,0
DA:1345,0
DA:1346,0
DA:1347,0
DA:1348,0
DA:1349,0
DA:1350,0
DA:1351,0
DA:1352,0
DA:1353,0
DA:1359,12
DA:1361,12
DA:1362,12
DA:1369,5
DA:1370,5
DA:1371,5
DA:1372,5
DA:1373,5
DA:1374,5
DA:1375,5
DA:1382,4
DA:1383,4
DA:1384,4
DA:1385,4
DA:1386,4
DA:1387,4
DA:1388,4
DA:1389,4
DA:1396,1
DA:1397,1
DA:1398,1
DA:1399,1
DA:1400,1
DA:1401,1
DA:1402,1
DA:1409,1
DA:1410,1
DA:1411,1
DA:1412,1
DA:1413,1
DA:1414,1
DA:1415,1
DA:1422,11
DA:1423,11
DA:1424,11
DA:1425,11
DA:1426,11
DA:1427,11
DA:1428,11
DA:1429,11
DA:1430,11
DA:1431,11
DA:1432,11
DA:1433,11
DA:1434,11
DA:1438,11
DA:1440,11
DA:1442,11
DA:1444,11
DA:1445,1
DA:1446,1
DA:1447,1
DA:1449,1
DA:1450,0
DA:1451,0
DA:1453,0
DA:1455,0
DA:1456,0
DA:1457,0
DA:1458,0
DA:1459,1
DA:1461,1
DA:1463,1
DA:1466,1
DA:1467,1
DA:1469,1
DA:1472,1
DA:1473,0
DA:1474,0
DA:1475,0
DA:1477,0
DA:1478,0
DA:1481,0
DA:1482,0
DA:1483,1
DA:1485,1
DA:1487,10
DA:1488,10
DA:1490,10
DA:1491,0
DA:1492,0
DA:1493,0
DA:1495,0
DA:1496,0
DA:1499,0
DA:1500,0
DA:1501,10
DA:1503,10
DA:1507,11
DA:1510,11
DA:1511,11
DA:1512,11
DA:1514,11
DA:1515,11
DA:1516,11
DA:1517,11
DA:1520,11
DA:1521,11
DA:1522,11
DA:1523,11
DA:1524,11
DA:1525,11
DA:1526,11
DA:1527,11
DA:1529,11
DA:1530,11
DA:1531,11
DA:1532,11
DA:1533,11
DA:1534,11
DA:1536,11
DA:1537,5
DA:1538,5
DA:1539,5
DA:1540,6
DA:1542,11
DA:1543,11
DA:1552,1
DA:1553,1
DA:1554,1
DA:1557,0
DA:1558,0
DA:1559,0
DA:1560,0
DA:1562,0
DA:1563,0
DA:1564,0
DA:1565,0
DA:1566,0
DA:1569,0
DA:1570,1
DA:1577,1
DA:1578,1
DA:1579,1
DA:1580,1
DA:1581,1
DA:1582,1
DA:1583,1
DA:1590,0
DA:1591,0
DA:1592,0
DA:1593,0
DA:1594,0
DA:1595,0
DA:1596,0
DA:1597,0
DA:1598,0
DA:1605,0
DA:1606,0
DA:1607,0
DA:1608,0
DA:1609,0
DA:1623,3
DA:1624,3
DA:1625,3
DA:1626,3
DA:1627,3
DA:1628,3
DA:1629,3
DA:1631,3
DA:1632,1
DA:1633,2
DA:1635,3
DA:1636,3
DA:1637,3
DA:1639,3
DA:1640,3
DA:1641,7
DA:1642,3
DA:1643,3
DA:1645,3
DA:1646,3
DA:1647,3
DA:1654,2
DA:1655,2
DA:1656,2
DA:1657,2
DA:1658,2
DA:1659,2
DA:1677,0
DA:1678,0
DA:1679,0
DA:1680,0
DA:1681,0
DA:1682,0
DA:1685,0
DA:1686,0
DA:1687,0
DA:1688,0
DA:1690,0
DA:1691,0
DA:1692,0
DA:1693,0
DA:1694,0
DA:1697,0
DA:1698,0
DA:1705,0
DA:1706,0
DA:1707,0
DA:1708,0
DA:1709,0
DA:1710,0
DA:1728,0
DA:1729,0
DA:1730,0
DA:1733,0
DA:1734,0
DA:1735,0
DA:1736,0
DA:1738,0
DA:1739,0
DA:1740,0
DA:1741,0
DA:1742,0
DA:1745,0
DA:1746,0
DA:1769,0
DA:1770,0
DA:1771,0
DA:1774,0
DA:1775,0
DA:1776,0
DA:1777,0
DA:1779,0
DA:1780,0
DA:1781,0
DA:1782,0
DA:1783,0
DA:1786,0
DA:1787,0
BRF:0
BRH:0
LF:1108
LH:653
end_of_record
SF:/Users/garthdb/Projects/rust-jira-mcp/src/logging/config.rs
FN:60,_RNvMs1_NtNtCskhkPsqpzxNu_13rust_jira_mcp7logging6configNtB5_13LoggingConfig10production
FN:71,_RNvMs1_NtNtCskhkPsqpzxNu_13rust_jira_mcp7logging6configNtB5_13LoggingConfig11development
FN:14,_RNvXNtNtCskhkPsqpzxNu_13rust_jira_mcp7logging6configNtB2_8LogLevelNtNtCs99E9PC2tmbt_4core7default7Default7default
FN:47,_RNvXs0_NtNtCskhkPsqpzxNu_13rust_jira_mcp7logging6configNtB5_13LoggingConfigNtNtCs99E9PC2tmbt_4core7default7Default7default
FN:28,_RNvXs_NtNtCskhkPsqpzxNu_13rust_jira_mcp7logging6configNtB4_9LogFormatNtNtCs99E9PC2tmbt_4core7default7Default7default
FN:14,_RNvXNtNtCslEfzt21w4nZ_13rust_jira_mcp7logging6configNtB2_8LogLevelNtNtCs99E9PC2tmbt_4core7default7Default7default
FN:28,_RNvXs_NtNtCslEfzt21w4nZ_13rust_jira_mcp7logging6configNtB4_9LogFormatNtNtCs99E9PC2tmbt_4core7default7Default7default
FN:60,_RNvMs1_NtNtCslEfzt21w4nZ_13rust_jira_mcp7logging6configNtB5_13LoggingConfig10production
FN:71,_RNvMs1_NtNtCslEfzt21w4nZ_13rust_jira_mcp7logging6configNtB5_13LoggingConfig11development
FN:47,_RNvXs0_NtNtCslEfzt21w4nZ_13rust_jira_mcp7logging6configNtB5_13LoggingConfigNtNtCs99E9PC2tmbt_4core7default7Default7default
FN:60,_RNvMs1_NtNtCsbRuuH6jbcRQ_13rust_jira_mcp7logging6configNtB5_13LoggingConfig10production
FN:71,_RNvMs1_NtNtCsbRuuH6jbcRQ_13rust_jira_mcp7logging6configNtB5_13LoggingConfig11development
FN:14,_RNvXNtNtCsbRuuH6jbcRQ_13rust_jira_mcp7logging6configNtB2_8LogLevelNtNtCs99E9PC2tmbt_4core7default7Default7default
FN:47,_RNvXs0_NtNtCsbRuuH6jbcRQ_13rust_jira_mcp7logging6configNtB5_13LoggingConfigNtNtCs99E9PC2tmbt_4core7default7Default7default
FN:28,_RNvXs_NtNtCsbRuuH6jbcRQ_13rust_jira_mcp7logging6configNtB4_9LogFormatNtNtCs99E9PC2tmbt_4core7default7Default7default
FN:60,_RNvMs1_NtNtCs6CcTQqNWjGP_13rust_jira_mcp7logging6configNtB5_13LoggingConfig10production
FN:71,_RNvMs1_NtNtCs6CcTQqNWjGP_13rust_jira_mcp7logging6configNtB5_13LoggingConfig11development
FN:14,_RNvXNtNtCs6CcTQqNWjGP_13rust_jira_mcp7logging6configNtB2_8LogLevelNtNtCs99E9PC2tmbt_4core7default7Default7default
FN:47,_RNvXs0_NtNtCs6CcTQqNWjGP_13rust_jira_mcp7logging6configNtB5_13LoggingConfigNtNtCs99E9PC2tmbt_4core7default7Default7default
FN:28,_RNvXs_NtNtCs6CcTQqNWjGP_13rust_jira_mcp7logging6configNtB4_9LogFormatNtNtCs99E9PC2tmbt_4core7default7Default7default
FNDA:3,_RNvMs1_NtNtCskhkPsqpzxNu_13rust_jira_mcp7logging6configNtB5_13LoggingConfig10production
FNDA:1,_RNvMs1_NtNtCskhkPsqpzxNu_13rust_jira_mcp7logging6configNtB5_13LoggingConfig11development
FNDA:1,_RNvXNtNtCskhkPsqpzxNu_13rust_jira_mcp7logging6configNtB2_8LogLevelNtNtCs99E9PC2tmbt_4core7default7Default7default
FNDA:2,_RNvXs0_NtNtCskhkPsqpzxNu_13rust_jira_mcp7logging6configNtB5_13LoggingConfigNtNtCs99E9PC2tmbt_4core7default7Default7default
FNDA:1,_RNvXs_NtNtCskhkPsqpzxNu_13rust_jira_mcp7logging6configNtB4_9LogFormatNtNtCs99E9PC2tmbt_4core7default7Default7default
FNDA:0,_RNvXNtNtCslEfzt21w4nZ_13rust_jira_mcp7logging6configNtB2_8LogLevelNtNtCs99E9PC2tmbt_4core7default7Default7default
FNDA:0,_RNvXs_NtNtCslEfzt21w4nZ_13rust_jira_mcp7logging6configNtB4_9LogFormatNtNtCs99E9PC2tmbt_4core7default7Default7default
FNDA:0,_RNvMs1_NtNtCslEfzt21w4nZ_13rust_jira_mcp7logging6configNtB5_13LoggingConfig10production
FNDA:0,_RNvMs1_NtNtCslEfzt21w4nZ_13rust_jira_mcp7logging6configNtB5_13LoggingConfig11development
FNDA:0,_RNvXs0_NtNtCslEfzt21w4nZ_13rust_jira_mcp7logging6configNtB5_13LoggingConfigNtNtCs99E9PC2tmbt_4core7default7Default7default
FNDA:0,_RNvMs1_NtNtCsbRuuH6jbcRQ_13rust_jira_mcp7logging6configNtB5_13LoggingConfig10production
FNDA:0,_RNvMs1_NtNtCsbRuuH6jbcRQ_13rust_jira_mcp7logging6configNtB5_13LoggingConfig11development
FNDA:0,_RNvXNtNtCsbRuuH6jbcRQ_13rust_jira_mcp7logging6configNtB2_8LogLevelNtNtCs99E9PC2tmbt_4core7default7Default7default
FNDA:0,_RNvXs0_NtNtCsbRuuH6jbcRQ_13rust_jira_mcp7logging6configNtB5_13LoggingConfigNtNtCs99E9PC2tmbt_4core7default7Default7default
FNDA:0,_RNvXs_NtNtCsbRuuH6jbcRQ_13rust_jira_mcp7logging6configNtB4_9LogFormatNtNtCs99E9PC2tmbt_4core7default7Default7default
FNDA:0,_RNvMs1_NtNtCs6CcTQqNWjGP_13rust_jira_mcp7logging6configNtB5_13LoggingConfig10production
FNDA:0,_RNvMs1_NtNtCs6CcTQqNWjGP_13rust_jira_mcp7logging6configNtB5_13LoggingConfig11development
FNDA:0,_RNvXNtNtCs6CcTQqNWjGP_13rust_jira_mcp7logging6configNtB2_8LogLevelNtNtCs99E9PC2tmbt_4core7default7Default7default
FNDA:0,_RNvXs0_NtNtCs6CcTQqNWjGP_13rust_jira_mcp7logging6configNtB5_13LoggingConfigNtNtCs99E9PC2tmbt_4core7default7Default7default
FNDA:0,_RNvXs_NtNtCs6CcTQqNWjGP_13rust_jira_mcp7logging6configNtB4_9LogFormatNtNtCs99E9PC2tmbt_4core7default7Default7default
FNF:5
FNH:5
DA:14,1
DA:15,1
DA:16,1
DA:28,1
DA:29,1
DA:30,1
DA:47,2
DA:48,2
DA:49,2
DA:50,2
DA:51,2
DA:52,2
DA:53,2
DA:54,2
DA:60,3
DA:61,3
DA:62,3
DA:63,3
DA:64,3
DA:65,3
DA:66,3
DA:67,3
DA:71,1
DA:72,1
DA:73,1
DA:74,1
DA:75,1
DA:76,1
DA:77,1
DA:78,1
BRF:0
BRH:0
LF:30
LH:30
end_of_record
SF:/Users/garthdb/Projects/rust-jira-mcp/src/logging/metrics.rs
FN:39,_RNCNvMs_NtNtCskhkPsqpzxNu_13rust_jira_mcp7logging7metricsNtB6_16MetricsCollector24record_operation_success0Ba_
FN:39,_RNCNvMs_NtNtCskhkPsqpzxNu_13rust_jira_mcp7logging7metricsNtB6_16MetricsCollector24record_operation_success0CslPYhbvxNp2n_12logging_test
FN:34,_RNvMs_NtNtCskhkPsqpzxNu_13rust_jira_mcp7logging7metricsNtB4_16MetricsCollector24record_operation_success
FN:25,_RNvMs_NtNtCskhkPsqpzxNu_13rust_jira_mcp7logging7metricsNtB4_16MetricsCollector3new
FN:17,_RNvXNtNtCskhkPsqpzxNu_13rust_jira_mcp7logging7metricsNtB2_16MetricsCollectorNtNtCs99E9PC2tmbt_4core7default7Default7default
FN:39,_RNCNvMs_NtNtCskhkPsqpzxNu_13rust_jira_mcp7logging7metricsNtB6_16MetricsCollector24record_operation_success0CskJEy2L8KvEw_21main_integration_test
FN:39,_RNCNvMs_NtNtCslEfzt21w4nZ_13rust_jira_mcp7logging7metricsNtB6_16MetricsCollector24record_operation_success0Ba_
FN:17,_RNvXNtNtCslEfzt21w4nZ_13rust_jira_mcp7logging7metricsNtB2_16MetricsCollectorNtNtCs99E9PC2tmbt_4core7default7Default7default
FN:34,_RNvMs_NtNtCslEfzt21w4nZ_13rust_jira_mcp7logging7metricsNtB4_16MetricsCollector24record_operation_success
FN:25,_RNvMs_NtNtCslEfzt21w4nZ_13rust_jira_mcp7logging7metricsNtB4_16MetricsCollector3new
FN:39,_RNCNvMs_NtNtCsbRuuH6jbcRQ_13rust_jira_mcp7logging7metricsNtB6_16MetricsCollector24record_operation_success0Ba_
FN:34,_RNvMs_NtNtCsbRuuH6jbcRQ_13rust_jira_mcp7logging7metricsNtB4_16MetricsCollector24record_operation_success
FN:25,_RNvMs_NtNtCsbRuuH6jbcRQ_13rust_jira_mcp7logging7metricsNtB4_16MetricsCollector3new
FN:17,_RNvXNtNtCsbRuuH6jbcRQ_13rust_jira_mcp7logging7metricsNtB2_16MetricsCollectorNtNtCs99E9PC2tmbt_4core7default7Default7default
FN:39,_RNCNvMs_NtNtCs6CcTQqNWjGP_13rust_jira_mcp7logging7metricsNtB6_16MetricsCollector24record_operation_success0Ba_
FN:34,_RNvMs_NtNtCs6CcTQqNWjGP_13rust_jira_mcp7logging7metricsNtB4_16MetricsCollector24record_operation_success
FN:25,_RNvMs_NtNtCs6CcTQqNWjGP_13rust_jira_mcp7logging7metricsNtB4_16MetricsCollector3new
FN:17,_RNvXNtNtCs6CcTQqNWjGP_13rust_jira_mcp7logging7metricsNtB2_16MetricsCollectorNtNtCs99E9PC2tmbt_4core7default7Default7default
FNDA:0,_RNCNvMs_NtNtCskhkPsqpzxNu_13rust_jira_mcp7logging7metricsNtB6_16MetricsCollector24record_operation_success0Ba_
FNDA:4,_RNCNvMs_NtNtCskhkPsqpzxNu_13rust_jira_mcp7logging7metricsNtB6_16MetricsCollector24record_operation_success0CslPYhbvxNp2n_12logging_test
FNDA:10,_RNvMs_NtNtCskhkPsqpzxNu_13rust_jira_mcp7logging7metricsNtB4_16MetricsCollector24record_operation_success
FNDA:13,_RNvMs_NtNtCskhkPsqpzxNu_13rust_jira_mcp7logging7metricsNtB4_16MetricsCollector3new
FNDA:1,_RNvXNtNtCskhkPsqpzxNu_13rust_jira_mcp7logging7metricsNtB2_16MetricsCollectorNtNtCs99E9PC2tmbt_4core7default7Default7default
FNDA:1,_RNCNvMs_NtNtCskhkPsqpzxNu_13rust_jira_mcp7logging7metricsNtB6_16MetricsCollector24record_operation_success0CskJEy2L8KvEw_21main_integration_test
FNDA:0,_RNCNvMs_NtNtCslEfzt21w4nZ_13rust_jira_mcp7logging7metricsNtB6_16MetricsCollector24record_operation_success0Ba_
FNDA:0,_RNvXNtNtCslEfzt21w4nZ_13rust_jira_mcp7logging7metricsNtB2_16MetricsCollectorNtNtCs99E9PC2tmbt_4core7default7Default7default
FNDA:0,_RNvMs_NtNtCslEfzt21w4nZ_13rust_jira_mcp7logging7metricsNtB4_16MetricsCollector24record_operation_success
FNDA:0,_RNvMs_NtNtCslEfzt21w4nZ_13rust_jira_mcp7logging7metricsNtB4_16MetricsCollector3new
FNDA:0,_RNCNvMs_NtNtCsbRuuH6jbcRQ_13rust_jira_mcp7logging7metricsNtB6_16MetricsCollector24record_operation_success0Ba_
FNDA:0,_RNvMs_NtNtCsbRuuH6jbcRQ_13rust_jira_mcp7logging7metricsNtB4_16MetricsCollector24record_operation_success
FNDA:0,_RNvMs_NtNtCsbRuuH6jbcRQ_13rust_jira_mcp7logging7metricsNtB4_16MetricsCollector3new
FNDA:0,_RNvXNtNtCsbRuuH6jbcRQ_13rust_jira_mcp7logging7metricsNtB2_16MetricsCollectorNtNtCs99E9PC2tmbt_4core7default7Default7default
FNDA:0,_RNCNvMs_NtNtCs6CcTQqNWjGP_13rust_jira_mcp7logging7metricsNtB6_16MetricsCollector24record_operation_success0Ba_
FNDA:0,_RNvMs_NtNtCs6CcTQqNWjGP_13rust_jira_mcp7logging7metricsNtB4_16MetricsCollector24record_operation_success
FNDA:0,_RNvMs_NtNtCs6CcTQqNWjGP_13rust_jira_mcp7logging7metricsNtB4_16MetricsCollector3new
FNDA:0,_RNvXNtNtCs6CcTQqNWjGP_13rust_jira_mcp7logging7metricsNtB2_16MetricsCollectorNtNtCs99E9PC2tmbt_4core7default7Default7default
FNF:4
FNH:4
DA:17,1
DA:18,1
DA:19,1
DA:25,13
DA:26,13
DA:27,13
DA:28,13
DA:29,13
DA:30,13
DA:31,13
DA:34,10
DA:35,10
DA:36,10
DA:37,10
DA:38,10
DA:39,10
DA:40,5
DA:41,5
DA:42,5
DA:43,5
DA:44,5
DA:45,5
BRF:0
BRH:0
LF:23
LH:23
end_of_record
SF:/Users/garthdb/Projects/rust-jira-mcp/src/logging/mod.rs
FN:24,_RNvMNtCskhkPsqpzxNu_13rust_jira_mcp7loggingNtB2_6Logger21log_operation_success
FN:19,_RNvMNtCskhkPsqpzxNu_13rust_jira_mcp7loggingNtB2_6Logger3new
FN:24,_RNvMNtCslEfzt21w4nZ_13rust_jira_mcp7loggingNtB2_6Logger21log_operation_success
FN:19,_RNvMNtCslEfzt21w4nZ_13rust_jira_mcp7loggingNtB2_6Logger3new
FN:24,_RNvMNtCsbRuuH6jbcRQ_13rust_jira_mcp7loggingNtB2_6Logger21log_operation_success
FN:19,_RNvMNtCsbRuuH6jbcRQ_13rust_jira_mcp7loggingNtB2_6Logger3new
FN:24,_RNvMNtCs6CcTQqNWjGP_13rust_jira_mcp7loggingNtB2_6Logger21log_operation_success
FN:19,_RNvMNtCs6CcTQqNWjGP_13rust_jira_mcp7loggingNtB2_6Logger3new
FNDA:5,_RNvMNtCskhkPsqpzxNu_13rust_jira_mcp7loggingNtB2_6Logger21log_operation_success
FNDA:7,_RNvMNtCskhkPsqpzxNu_13rust_jira_mcp7loggingNtB2_6Logger3new
FNDA:0,_RNvMNtCslEfzt21w4nZ_13rust_jira_mcp7loggingNtB2_6Logger21log_operation_success
FNDA:0,_RNvMNtCslEfzt21w4nZ_13rust_jira_mcp7loggingNtB2_6Logger3new
FNDA:0,_RNvMNtCsbRuuH6jbcRQ_13rust_jira_mcp7loggingNtB2_6Logger21log_operation_success
FNDA:0,_RNvMNtCsbRuuH6jbcRQ_13rust_jira_mcp7loggingNtB2_6Logger3new
FNDA:0,_RNvMNtCs6CcTQqNWjGP_13rust_jira_mcp7loggingNtB2_6Logger21log_operation_success
FNDA:0,_RNvMNtCs6CcTQqNWjGP_13rust_jira_mcp7loggingNtB2_6Logger3new
FNF:2
FNH:2
DA:19,7
DA:20,7
DA:21,7
DA:24,5
DA:25,5
DA:26,5
DA:27,5
DA:28,5
DA:29,5
DA:30,5
DA:32,0
DA:34,0
DA:37,5
DA:38,5
DA:39,5
DA:41,5
BRF:0
BRH:0
LF:16
LH:14
end_of_record
SF:/Users/garthdb/Projects/rust-jira-mcp/src/logging/tracing_setup.rs
FN:7,_RNCNvNtNtCskhkPsqpzxNu_13rust_jira_mcp7logging13tracing_setup13setup_logging0B7_
FN:5,_RNvNtNtCskhkPsqpzxNu_13rust_jira_mcp7logging13tracing_setup13setup_logging
FN:7,_RNCNvNtNtCslEfzt21w4nZ_13rust_jira_mcp7logging13tracing_setup13setup_logging0B7_
FN:5,_RNvNtNtCslEfzt21w4nZ_13rust_jira_mcp7logging13tracing_setup13setup_logging
FN:7,_RNCNvNtNtCsbRuuH6jbcRQ_13rust_jira_mcp7logging13tracing_setup13setup_logging0B7_
FN:5,_RNvNtNtCsbRuuH6jbcRQ_13rust_jira_mcp7logging13tracing_setup13setup_logging
FN:7,_RNCNvNtNtCs6CcTQqNWjGP_13rust_jira_mcp7logging13tracing_setup13setup_logging0B7_
FN:5,_RNvNtNtCs6CcTQqNWjGP_13rust_jira_mcp7logging13tracing_setup13setup_logging
FNDA:1,_RNCNvNtNtCskhkPsqpzxNu_13rust_jira_mcp7logging13tracing_setup13setup_logging0B7_
FNDA:1,_RNvNtNtCskhkPsqpzxNu_13rust_jira_mcp7logging13tracing_setup13setup_logging
FNDA:0,_RNCNvNtNtCslEfzt21w4nZ_13rust_jira_mcp7logging13tracing_setup13setup_logging0B7_
FNDA:0,_RNvNtNtCslEfzt21w4nZ_13rust_jira_mcp7logging13tracing_setup13setup_logging
FNDA:0,_RNCNvNtNtCsbRuuH6jbcRQ_13rust_jira_mcp7logging13tracing_setup13setup_logging0B7_
FNDA:0,_RNvNtNtCsbRuuH6jbcRQ_13rust_jira_mcp7logging13tracing_setup13setup_logging
FNDA:0,_RNCNvNtNtCs6CcTQqNWjGP_13rust_jira_mcp7logging13tracing_setup13setup_logging0B7_
FNDA:0,_RNvNtNtCs6CcTQqNWjGP_13rust_jira_mcp7logging13tracing_setup13setup_logging
FNF:2
FNH:2
DA:5,1
DA:7,1
DA:8,0
DA:9,0
DA:10,0
DA:11,1
DA:12,0
DA:13,1
DA:16,1
DA:17,1
DA:18,1
DA:19,0
DA:20,0
DA:23,0
DA:27,1
DA:28,1
DA:29,1
DA:30,1
DA:31,1
BRF:0
BRH:0
LF:20
LH:13
end_of_record
SF:/Users/garthdb/Projects/rust-jira-mcp/src/main.rs
FN:19,_RNCNvCslEfzt21w4nZ_13rust_jira_mcp4main0B3_
FN:19,_RNvCslEfzt21w4nZ_13rust_jira_mcp4main
FN:19,_RNCNvCsbRuuH6jbcRQ_13rust_jira_mcp4main0B3_
FN:19,_RNvCsbRuuH6jbcRQ_13rust_jira_mcp4main
FNDA:0,_RNCNvCslEfzt21w4nZ_13rust_jira_mcp4main0B3_
FNDA:0,_RNvCslEfzt21w4nZ_13rust_jira_mcp4main
FNDA:0,_RNCNvCsbRuuH6jbcRQ_13rust_jira_mcp4main0B3_
FNDA:0,_RNvCsbRuuH6jbcRQ_13rust_jira_mcp4main
FNF:2
FNH:0
DA:19,0
DA:21,0
DA:23,0
DA:24,0
DA:25,0
DA:27,0
DA:31,0
DA:34,0
DA:35,0
DA:39,0
DA:42,0
DA:45,0
DA:46,0
DA:47,0
DA:48,0
DA:49,0
DA:50,0
DA:51,0
DA:52,0
DA:53,0
DA:54,0
DA:57,0
DA:58,0
DA:61,0
DA:64,0
DA:65,0
DA:66,0
DA:67,0
DA:68,0
DA:69,0
DA:72,0
DA:73,0
DA:76,0
DA:79,0
DA:83,0
DA:84,0
DA:89,0
DA:90,0
DA:93,0
DA:94,0
DA:95,0
DA:98,0
DA:99,0
DA:100,0
DA:101,0
DA:102,0
DA:104,0
DA:105,0
DA:106,0
DA:107,0
DA:110,0
DA:111,0
DA:112,0
DA:113,0
DA:117,0
DA:119,0
DA:122,0
DA:123,0
DA:124,0
DA:125,0
DA:126,0
DA:127,0
DA:131,0
DA:134,0
DA:135,0
DA:136,0
DA:137,0
DA:138,0
DA:139,0
DA:142,0
DA:143,0
BRF:0
BRH:0
LF:73
LH:0
end_of_record
SF:/Users/garthdb/Projects/rust-jira-mcp/src/mcp/server.rs
FN:471,_RNCNvMNtNtCskhkPsqpzxNu_13rust_jira_mcp3mcp6serverNtB4_9MCPServer14handle_request0B8_
FN:569,_RNCNvMNtNtCskhkPsqpzxNu_13rust_jira_mcp3mcp6serverNtB4_9MCPServer16handle_call_tool0B8_
FN:1817,_RNCNvMNtNtCskhkPsqpzxNu_13rust_jira_mcp3mcp6serverNtB4_9MCPServer9call_tool0B8_
FN:401,_RNCNvMNtNtCskhkPsqpzxNu_13rust_jira_mcp3mcp6serverNtB4_9MCPServer9run_stdio0B8_
FN:1796,_RNvMNtNtCskhkPsqpzxNu_13rust_jira_mcp3mcp6serverNtB2_9MCPServer10list_tools
FN:471,_RNvMNtNtCskhkPsqpzxNu_13rust_jira_mcp3mcp6serverNtB2_9MCPServer14handle_request
FN:569,_RNvMNtNtCskhkPsqpzxNu_13rust_jira_mcp3mcp6serverNtB2_9MCPServer16handle_call_tool
FN:503,_RNvMNtNtCskhkPsqpzxNu_13rust_jira_mcp3mcp6serverNtB2_9MCPServer17handle_initialize
FN:541,_RNvMNtNtCskhkPsqpzxNu_13rust_jira_mcp3mcp6serverNtB2_9MCPServer17handle_list_tools
FN:186,_RNvMNtNtCskhkPsqpzxNu_13rust_jira_mcp3mcp6serverNtB2_9MCPServer19register_bulk_tools
FN:677,_RNvMNtNtCskhkPsqpzxNu_13rust_jira_mcp3mcp6serverNtB2_9MCPServer20get_issue_crud_tools
FN:1000,_RNvMNtNtCskhkPsqpzxNu_13rust_jira_mcp3mcp6serverNtB2_9MCPServer20get_mixed_bulk_tools
FN:108,_RNvMNtNtCskhkPsqpzxNu_13rust_jira_mcp3mcp6serverNtB2_9MCPServer20register_basic_tools
FN:297,_RNvMNtNtCskhkPsqpzxNu_13rust_jira_mcp3mcp6serverNtB2_9MCPServer20register_label_tools
FN:903,_RNvMNtNtCskhkPsqpzxNu_13rust_jira_mcp3mcp6serverNtB2_9MCPServer21get_simple_bulk_tools
FN:350,_RNvMNtNtCskhkPsqpzxNu_13rust_jira_mcp3mcp6serverNtB2_9MCPServer21register_zephyr_tools
FN:339,_RNvMNtNtCskhkPsqpzxNu_13rust_jira_mcp3mcp6serverNtB2_9MCPServer22register_cloning_tools
FN:209,_RNvMNtNtCskhkPsqpzxNu_13rust_jira_mcp3mcp6serverNtB2_9MCPServer22register_linking_tools
FN:151,_RNvMNtNtCskhkPsqpzxNu_13rust_jira_mcp3mcp6serverNtB2_9MCPServer22register_project_tools
FN:278,_RNvMNtNtCskhkPsqpzxNu_13rust_jira_mcp3mcp6serverNtB2_9MCPServer22register_watcher_tools
FN:255,_RNvMNtNtCskhkPsqpzxNu_13rust_jira_mcp3mcp6serverNtB2_9MCPServer22register_worklog_tools
FN:320,_RNvMNtNtCskhkPsqpzxNu_13rust_jira_mcp3mcp6serverNtB2_9MCPServer24register_component_tools
FN:630,_RNvMNtNtCskhkPsqpzxNu_13rust_jira_mcp3mcp6serverNtB2_9MCPServer25get_auth_and_search_tools
FN:895,_RNvMNtNtCskhkPsqpzxNu_13rust_jira_mcp3mcp6serverNtB2_9MCPServer25get_bulk_tool_definitions
FN:232,_RNvMNtNtCskhkPsqpzxNu_13rust_jira_mcp3mcp6serverNtB2_9MCPServer25register_attachment_tools
FN:621,_RNvMNtNtCskhkPsqpzxNu_13rust_jira_mcp3mcp6serverNtB2_9MCPServer26get_basic_tool_definitions
FN:1600,_RNvMNtNtCskhkPsqpzxNu_13rust_jira_mcp3mcp6serverNtB2_9MCPServer26get_label_tool_definitions
FN:1220,_RNvMNtNtCskhkPsqpzxNu_13rust_jira_mcp3mcp6serverNtB2_9MCPServer26get_zephyr_execution_tools
FN:1158,_RNvMNtNtCskhkPsqpzxNu_13rust_jira_mcp3mcp6serverNtB2_9MCPServer26get_zephyr_test_case_tools
FN:1056,_RNvMNtNtCskhkPsqpzxNu_13rust_jira_mcp3mcp6serverNtB2_9MCPServer26get_zephyr_test_step_tools
FN:1046,_RNvMNtNtCskhkPsqpzxNu_13rust_jira_mcp3mcp6serverNtB2_9MCPServer27get_zephyr_tool_definitions
FN:1740,_RNvMNtNtCskhkPsqpzxNu_13rust_jira_mcp3mcp6serverNtB2_9MCPServer28get_cloning_tool_definitions
FN:1312,_RNvMNtNtCskhkPsqpzxNu_13rust_jira_mcp3mcp6serverNtB2_9MCPServer28get_linking_tool_definitions
FN:803,_RNvMNtNtCskhkPsqpzxNu_13rust_jira_mcp3mcp6serverNtB2_9MCPServer28get_project_tool_definitions
FN:1544,_RNvMNtNtCskhkPsqpzxNu_13rust_jira_mcp3mcp6serverNtB2_9MCPServer28get_watcher_tool_definitions
FN:1450,_RNvMNtNtCskhkPsqpzxNu_13rust_jira_mcp3mcp6serverNtB2_9MCPServer28get_worklog_tool_definitions
FN:1660,_RNvMNtNtCskhkPsqpzxNu_13rust_jira_mcp3mcp6serverNtB2_9MCPServer30get_component_tool_definitions
FN:1380,_RNvMNtNtCskhkPsqpzxNu_13rust_jira_mcp3mcp6serverNtB2_9MCPServer31get_attachment_tool_definitions
FN:1278,_RNvMNtNtCskhkPsqpzxNu_13rust_jira_mcp3mcp6serverNtB2_9MCPServer31get_zephyr_cycle_and_plan_tools
FN:729,_RNvMNtNtCskhkPsqpzxNu_13rust_jira_mcp3mcp6serverNtB2_9MCPServer32get_comment_and_transition_tools
FN:85,_RNvMNtNtCskhkPsqpzxNu_13rust_jira_mcp3mcp6serverNtB2_9MCPServer3new
FN:1817,_RNvMNtNtCskhkPsqpzxNu_13rust_jira_mcp3mcp6serverNtB2_9MCPServer9call_tool
FN:401,_RNvMNtNtCskhkPsqpzxNu_13rust_jira_mcp3mcp6serverNtB2_9MCPServer9run_stdio
FN:1817,_RNCNvMNtNtCskhkPsqpzxNu_13rust_jira_mcp3mcp6serverNtB4_9MCPServer9call_tool0Cs1xcEsOWAaqI_27mcp_server_integration_test
FN:1817,_RNCNvMNtNtCskhkPsqpzxNu_13rust_jira_mcp3mcp6serverNtB4_9MCPServer9call_tool0Cs1hDkBC7GHUf_15mcp_server_test
FN:1796,_RNvMNtNtCslEfzt21w4nZ_13rust_jira_mcp3mcp6serverNtB2_9MCPServer10list_tools
FN:471,_RNvMNtNtCslEfzt21w4nZ_13rust_jira_mcp3mcp6serverNtB2_9MCPServer14handle_request
FN:569,_RNvMNtNtCslEfzt21w4nZ_13rust_jira_mcp3mcp6serverNtB2_9MCPServer16handle_call_tool
FN:503,_RNvMNtNtCslEfzt21w4nZ_13rust_jira_mcp3mcp6serverNtB2_9MCPServer17handle_initialize
FN:541,_RNvMNtNtCslEfzt21w4nZ_13rust_jira_mcp3mcp6serverNtB2_9MCPServer17handle_list_tools
FN:186,_RNvMNtNtCslEfzt21w4nZ_13rust_jira_mcp3mcp6serverNtB2_9MCPServer19register_bulk_tools
FN:677,_RNvMNtNtCslEfzt21w4nZ_13rust_jira_mcp3mcp6serverNtB2_9MCPServer20get_issue_crud_tools
FN:1000,_RNvMNtNtCslEfzt21w4nZ_13rust_jira_mcp3mcp6serverNtB2_9MCPServer20get_mixed_bulk_tools
FN:108,_RNvMNtNtCslEfzt21w4nZ_13rust_jira_mcp3mcp6serverNtB2_9MCPServer20register_basic_tools
FN:297,_RNvMNtNtCslEfzt21w4nZ_13rust_jira_mcp3mcp6serverNtB2_9MCPServer20register_label_tools
FN:903,_RNvMNtNtCslEfzt21w4nZ_13rust_jira_mcp3mcp6serverNtB2_9MCPServer21get_simple_bulk_tools
FN:350,_RNvMNtNtCslEfzt21w4nZ_13rust_jira_mcp3mcp6serverNtB2_9MCPServer21register_zephyr_tools
FN:339,_RNvMNtNtCslEfzt21w4nZ_13rust_jira_mcp3mcp6serverNtB2_9MCPServer22register_cloning_tools
FN:209,_RNvMNtNtCslEfzt21w4nZ_13rust_jira_mcp3mcp6serverNtB2_9MCPServer22register_linking_tools
FN:151,_RNvMNtNtCslEfzt21w4nZ_13rust_jira_mcp3mcp6serverNtB2_9MCPServer22register_project_tools
FN:278,_RNvMNtNtCslEfzt21w4nZ_13rust_jira_mcp3mcp6serverNtB2_9MCPServer22register_watcher_tools
FN:255,_RNvMNtNtCslEfzt21w4nZ_13rust_jira_mcp3mcp6serverNtB2_9MCPServer22register_worklog_tools
FN:320,_RNvMNtNtCslEfzt21w4nZ_13rust_jira_mcp3mcp6serverNtB2_9MCPServer24register_component_tools
FN:630,_RNvMNtNtCslEfzt21w4nZ_13rust_jira_mcp3mcp6serverNtB2_9MCPServer25get_auth_and_search_tools
FN:895,_RNvMNtNtCslEfzt21w4nZ_13rust_jira_mcp3mcp6serverNtB2_9MCPServer25get_bulk_tool_definitions
FN:232,_RNvMNtNtCslEfzt21w4nZ_13rust_jira_mcp3mcp6serverNtB2_9MCPServer25register_attachment_tools
FN:621,_RNvMNtNtCslEfzt21w4nZ_13rust_jira_mcp3mcp6serverNtB2_9MCPServer26get_basic_tool_definitions
FN:1600,_RNvMNtNtCslEfzt21w4nZ_13rust_jira_mcp3mcp6serverNtB2_9MCPServer26get_label_tool_definitions
FN:1220,_RNvMNtNtCslEfzt21w4nZ_13rust_jira_mcp3mcp6serverNtB2_9MCPServer26get_zephyr_execution_tools
FN:1158,_RNvMNtNtCslEfzt21w4nZ_13rust_jira_mcp3mcp6serverNtB2_9MCPServer26get_zephyr_test_case_tools
FN:1056,_RNvMNtNtCslEfzt21w4nZ_13rust_jira_mcp3mcp6serverNtB2_9MCPServer26get_zephyr_test_step_tools
FN:1046,_RNvMNtNtCslEfzt21w4nZ_13rust_jira_mcp3mcp6serverNtB2_9MCPServer27get_zephyr_tool_definitions
FN:1740,_RNvMNtNtCslEfzt21w4nZ_13rust_jira_mcp3mcp6serverNtB2_9MCPServer28get_cloning_tool_definitions
FN:1312,_RNvMNtNtCslEfzt21w4nZ_13rust_jira_mcp3mcp6serverNtB2_9MCPServer28get_linking_tool_definitions
FN:803,_RNvMNtNtCslEfzt21w4nZ_13rust_jira_mcp3mcp6serverNtB2_9MCPServer28get_project_tool_definitions
FN:1544,_RNvMNtNtCslEfzt21w4nZ_13rust_jira_mcp3mcp6serverNtB2_9MCPServer28get_watcher_tool_definitions
FN:1450,_RNvMNtNtCslEfzt21w4nZ_13rust_jira_mcp3mcp6serverNtB2_9MCPServer28get_worklog_tool_definitions
FN:1660,_RNvMNtNtCslEfzt21w4nZ_13rust_jira_mcp3mcp6serverNtB2_9MCPServer30get_component_tool_definitions
FN:1380,_RNvMNtNtCslEfzt21w4nZ_13rust_jira_mcp3mcp6serverNtB2_9MCPServer31get_attachment_tool_definitions
FN:1278,_RNvMNtNtCslEfzt21w4nZ_13rust_jira_mcp3mcp6serverNtB2_9MCPServer31get_zephyr_cycle_and_plan_tools
FN:729,_RNvMNtNtCslEfzt21w4nZ_13rust_jira_mcp3mcp6serverNtB2_9MCPServer32get_comment_and_transition_tools
FN:85,_RNvMNtNtCslEfzt21w4nZ_13rust_jira_mcp3mcp6serverNtB2_9MCPServer3new
FN:1817,_RNvMNtNtCslEfzt21w4nZ_13rust_jira_mcp3mcp6serverNtB2_9MCPServer9call_tool
FN:401,_RNvMNtNtCslEfzt21w4nZ_13rust_jira_mcp3mcp6serverNtB2_9MCPServer9run_stdio
FN:471,_RNCNvMNtNtCslEfzt21w4nZ_13rust_jira_mcp3mcp6serverNtB4_9MCPServer14handle_request0B8_
FN:569,_RNCNvMNtNtCslEfzt21w4nZ_13rust_jira_mcp3mcp6serverNtB4_9MCPServer16handle_call_tool0B8_
FN:1817,_RNCNvMNtNtCslEfzt21w4nZ_13rust_jira_mcp3mcp6serverNtB4_9MCPServer9call_tool0B8_
FN:401,_RNCNvMNtNtCslEfzt21w4nZ_13rust_jira_mcp3mcp6serverNtB4_9MCPServer9run_stdio0B8_
FN:471,_RNCNvMNtNtCsbRuuH6jbcRQ_13rust_jira_mcp3mcp6serverNtB4_9MCPServer14handle_request0B8_
FN:569,_RNCNvMNtNtCsbRuuH6jbcRQ_13rust_jira_mcp3mcp6serverNtB4_9MCPServer16handle_call_tool0B8_
FN:1817,_RNCNvMNtNtCsbRuuH6jbcRQ_13rust_jira_mcp3mcp6serverNtB4_9MCPServer9call_tool0B8_
FN:401,_RNCNvMNtNtCsbRuuH6jbcRQ_13rust_jira_mcp3mcp6serverNtB4_9MCPServer9run_stdio0B8_
FN:1796,_RNvMNtNtCsbRuuH6jbcRQ_13rust_jira_mcp3mcp6serverNtB2_9MCPServer10list_tools
FN:471,_RNvMNtNtCsbRuuH6jbcRQ_13rust_jira_mcp3mcp6serverNtB2_9MCPServer14handle_request
FN:569,_RNvMNtNtCsbRuuH6jbcRQ_13rust_jira_mcp3mcp6serverNtB2_9MCPServer16handle_call_tool
FN:503,_RNvMNtNtCsbRuuH6jbcRQ_13rust_jira_mcp3mcp6serverNtB2_9MCPServer17handle_initialize
FN:541,_RNvMNtNtCsbRuuH6jbcRQ_13rust_jira_mcp3mcp6serverNtB2_9MCPServer17handle_list_tools
FN:186,_RNvMNtNtCsbRuuH6jbcRQ_13rust_jira_mcp3mcp6serverNtB2_9MCPServer19register_bulk_tools
FN:677,_RNvMNtNtCsbRuuH6jbcRQ_13rust_jira_mcp3mcp6serverNtB2_9MCPServer20get_issue_crud_tools
FN:1000,_RNvMNtNtCsbRuuH6jbcRQ_13rust_jira_mcp3mcp6serverNtB2_9MCPServer20get_mixed_bulk_tools
FN:108,_RNvMNtNtCsbRuuH6jbcRQ_13rust_jira_mcp3mcp6serverNtB2_9MCPServer20register_basic_tools
FN:297,_RNvMNtNtCsbRuuH6jbcRQ_13rust_jira_mcp3mcp6serverNtB2_9MCPServer20register_label_tools
FN:903,_RNvMNtNtCsbRuuH6jbcRQ_13rust_jira_mcp3mcp6serverNtB2_9MCPServer21get_simple_bulk_tools
FN:350,_RNvMNtNtCsbRuuH6jbcRQ_13rust_jira_mcp3mcp6serverNtB2_9MCPServer21register_zephyr_tools
FN:339,_RNvMNtNtCsbRuuH6jbcRQ_13rust_jira_mcp3mcp6serverNtB2_9MCPServer22register_cloning_tools
FN:209,_RNvMNtNtCsbRuuH6jbcRQ_13rust_jira_mcp3mcp6serverNtB2_9MCPServer22register_linking_tools
FN:151,_RNvMNtNtCsbRuuH6jbcRQ_13rust_jira_mcp3mcp6serverNtB2_9MCPServer22register_project_tools
FN:278,_RNvMNtNtCsbRuuH6jbcRQ_13rust_jira_mcp3mcp6serverNtB2_9MCPServer22register_watcher_tools
FN:255,_RNvMNtNtCsbRuuH6jbcRQ_13rust_jira_mcp3mcp6serverNtB2_9MCPServer22register_worklog_tools
FN:320,_RNvMNtNtCsbRuuH6jbcRQ_13rust_jira_mcp3mcp6serverNtB2_9MCPServer24register_component_tools
FN:630,_RNvMNtNtCsbRuuH6jbcRQ_13rust_jira_mcp3mcp6serverNtB2_9MCPServer25get_auth_and_search_tools
FN:895,_RNvMNtNtCsbRuuH6jbcRQ_13rust_jira_mcp3mcp6serverNtB2_9MCPServer25get_bulk_tool_definitions
FN:232,_RNvMNtNtCsbRuuH6jbcRQ_13rust_jira_mcp3mcp6serverNtB2_9MCPServer25register_attachment_tools
FN:621,_RNvMNtNtCsbRuuH6jbcRQ_13rust_jira_mcp3mcp6serverNtB2_9MCPServer26get_basic_tool_definitions
FN:1600,_RNvMNtNtCsbRuuH6jbcRQ_13rust_jira_mcp3mcp6serverNtB2_9MCPServer26get_label_tool_definitions
FN:1220,_RNvMNtNtCsbRuuH6jbcRQ_13rust_jira_mcp3mcp6serverNtB2_9MCPServer26get_zephyr_execution_tools
FN:1158,_RNvMNtNtCsbRuuH6jbcRQ_13rust_jira_mcp3mcp6serverNtB2_9MCPServer26get_zephyr_test_case_tools
FN:1056,_RNvMNtNtCsbRuuH6jbcRQ_13rust_jira_mcp3mcp6serverNtB2_9MCPServer26get_zephyr_test_step_tools
FN:1046,_RNvMNtNtCsbRuuH6jbcRQ_13rust_jira_mcp3mcp6serverNtB2_9MCPServer27get_zephyr_tool_definitions
FN:1740,_RNvMNtNtCsbRuuH6jbcRQ_13rust_jira_mcp3mcp6serverNtB2_9MCPServer28get_cloning_tool_definitions
FN:1312,_RNvMNtNtCsbRuuH6jbcRQ_13rust_jira_mcp3mcp6serverNtB2_9MCPServer28get_linking_tool_definitions
FN:803,_RNvMNtNtCsbRuuH6jbcRQ_13rust_jira_mcp3mcp6serverNtB2_9MCPServer28get_project_tool_definitions
FN:1544,_RNvMNtNtCsbRuuH6jbcRQ_13rust_jira_mcp3mcp6serverNtB2_9MCPServer28get_watcher_tool_definitions
FN:1450,_RNvMNtNtCsbRuuH6jbcRQ_13rust_jira_mcp3mcp6serverNtB2_9MCPServer28get_worklog_tool_definitions
FN:1660,_RNvMNtNtCsbRuuH6jbcRQ_13rust_jira_mcp3mcp6serverNtB2_9MCPServer30get_component_tool_definitions
FN:1380,_RNvMNtNtCsbRuuH6jbcRQ_13rust_jira_mcp3mcp6serverNtB2_9MCPServer31get_attachment_tool_definitions
FN:1278,_RNvMNtNtCsbRuuH6jbcRQ_13rust_jira_mcp3mcp6serverNtB2_9MCPServer31get_zephyr_cycle_and_plan_tools
FN:729,_RNvMNtNtCsbRuuH6jbcRQ_13rust_jira_mcp3mcp6serverNtB2_9MCPServer32get_comment_and_transition_tools
FN:85,_RNvMNtNtCsbRuuH6jbcRQ_13rust_jira_mcp3mcp6serverNtB2_9MCPServer3new
FN:1817,_RNvMNtNtCsbRuuH6jbcRQ_13rust_jira_mcp3mcp6serverNtB2_9MCPServer9call_tool
FN:401,_RNvMNtNtCsbRuuH6jbcRQ_13rust_jira_mcp3mcp6serverNtB2_9MCPServer9run_stdio
FN:471,_RNCNvMNtNtCs6CcTQqNWjGP_13rust_jira_mcp3mcp6serverNtB4_9MCPServer14handle_request0B8_
FN:569,_RNCNvMNtNtCs6CcTQqNWjGP_13rust_jira_mcp3mcp6serverNtB4_9MCPServer16handle_call_tool0B8_
FN:1817,_RNCNvMNtNtCs6CcTQqNWjGP_13rust_jira_mcp3mcp6serverNtB4_9MCPServer9call_tool0B8_
FN:401,_RNCNvMNtNtCs6CcTQqNWjGP_13rust_jira_mcp3mcp6serverNtB4_9MCPServer9run_stdio0B8_
FN:1796,_RNvMNtNtCs6CcTQqNWjGP_13rust_jira_mcp3mcp6serverNtB2_9MCPServer10list_tools
FN:471,_RNvMNtNtCs6CcTQqNWjGP_13rust_jira_mcp3mcp6serverNtB2_9MCPServer14handle_request
FN:569,_RNvMNtNtCs6CcTQqNWjGP_13rust_jira_mcp3mcp6serverNtB2_9MCPServer16handle_call_tool
FN:503,_RNvMNtNtCs6CcTQqNWjGP_13rust_jira_mcp3mcp6serverNtB2_9MCPServer17handle_initialize
FN:541,_RNvMNtNtCs6CcTQqNWjGP_13rust_jira_mcp3mcp6serverNtB2_9MCPServer17handle_list_tools
FN:186,_RNvMNtNtCs6CcTQqNWjGP_13rust_jira_mcp3mcp6serverNtB2_9MCPServer19register_bulk_tools
FN:677,_RNvMNtNtCs6CcTQqNWjGP_13rust_jira_mcp3mcp6serverNtB2_9MCPServer20get_issue_crud_tools
FN:1000,_RNvMNtNtCs6CcTQqNWjGP_13rust_jira_mcp3mcp6serverNtB2_9MCPServer20get_mixed_bulk_tools
FN:108,_RNvMNtNtCs6CcTQqNWjGP_13rust_jira_mcp3mcp6serverNtB2_9MCPServer20register_basic_tools
FN:297,_RNvMNtNtCs6CcTQqNWjGP_13rust_jira_mcp3mcp6serverNtB2_9MCPServer20register_label_tools
FN:903,_RNvMNtNtCs6CcTQqNWjGP_13rust_jira_mcp3mcp6serverNtB2_9MCPServer21get_simple_bulk_tools
FN:350,_RNvMNtNtCs6CcTQqNWjGP_13rust_jira_mcp3mcp6serverNtB2_9MCPServer21register_zephyr_tools
FN:339,_RNvMNtNtCs6CcTQqNWjGP_13rust_jira_mcp3mcp6serverNtB2_9MCPServer22register_cloning_tools
FN:209,_RNvMNtNtCs6CcTQqNWjGP_13rust_jira_mcp3mcp6serverNtB2_9MCPServer22register_linking_tools
FN:151,_RNvMNtNtCs6CcTQqNWjGP_13rust_jira_mcp3mcp6serverNtB2_9MCPServer22register_project_tools
FN:278,_RNvMNtNtCs6CcTQqNWjGP_13rust_jira_mcp3mcp6serverNtB2_9MCPServer22register_watcher_tools
FN:255,_RNvMNtNtCs6CcTQqNWjGP_13rust_jira_mcp3mcp6serverNtB2_9MCPServer22register_worklog_tools
FN:320,_RNvMNtNtCs6CcTQqNWjGP_13rust_jira_mcp3mcp6serverNtB2_9MCPServer24register_component_tools
FN:630,_RNvMNtNtCs6CcTQqNWjGP_13rust_jira_mcp3mcp6serverNtB2_9MCPServer25get_auth_and_search_tools
FN:895,_RNvMNtNtCs6CcTQqNWjGP_13rust_jira_mcp3mcp6serverNtB2_9MCPServer25get_bulk_tool_definitions
FN:232,_RNvMNtNtCs6CcTQqNWjGP_13rust_jira_mcp3mcp6serverNtB2_9MCPServer25register_attachment_tools
FN:621,_RNvMNtNtCs6CcTQqNWjGP_13rust_jira_mcp3mcp6serverNtB2_9MCPServer26get_basic_tool_definitions
FN:1600,_RNvMNtNtCs6CcTQqNWjGP_13rust_jira_mcp3mcp6serverNtB2_9MCPServer26get_label_tool_definitions
FN:1220,_RNvMNtNtCs6CcTQqNWjGP_13rust_jira_mcp3mcp6serverNtB2_9MCPServer26get_zephyr_execution_tools
FN:1158,_RNvMNtNtCs6CcTQqNWjGP_13rust_jira_mcp3mcp6serverNtB2_9MCPServer26get_zephyr_test_case_tools
FN:1056,_RNvMNtNtCs6CcTQqNWjGP_13rust_jira_mcp3mcp6serverNtB2_9MCPServer26get_zephyr_test_step_tools
FN:1046,_RNvMNtNtCs6CcTQqNWjGP_13rust_jira_mcp3mcp6serverNtB2_9MCPServer27get_zephyr_tool_definitions
FN:1740,_RNvMNtNtCs6CcTQqNWjGP_13rust_jira_mcp3mcp6serverNtB2_9MCPServer28get_cloning_tool_definitions
FN:1312,_RNvMNtNtCs6CcTQqNWjGP_13rust_jira_mcp3mcp6serverNtB2_9MCPServer28get_linking_tool_definitions
FN:803,_RNvMNtNtCs6CcTQqNWjGP_13rust_jira_mcp3mcp6serverNtB2_9MCPServer28get_project_tool_definitions
FN:1544,_RNvMNtNtCs6CcTQqNWjGP_13rust_jira_mcp3mcp6serverNtB2_9MCPServer28get_watcher_tool_definitions
FN:1450,_RNvMNtNtCs6CcTQqNWjGP_13rust_jira_mcp3mcp6serverNtB2_9MCPServer28get_worklog_tool_definitions
FN:1660,_RNvMNtNtCs6CcTQqNWjGP_13rust_jira_mcp3mcp6serverNtB2_9MCPServer30get_component_tool_definitions
FN:1380,_RNvMNtNtCs6CcTQqNWjGP_13rust_jira_mcp3mcp6serverNtB2_9MCPServer31get_attachment_tool_definitions
FN:1278,_RNvMNtNtCs6CcTQqNWjGP_13rust_jira_mcp3mcp6serverNtB2_9MCPServer31get_zephyr_cycle_and_plan_tools
FN:729,_RNvMNtNtCs6CcTQqNWjGP_13rust_jira_mcp3mcp6serverNtB2_9MCPServer32get_comment_and_transition_tools
FN:85,_RNvMNtNtCs6CcTQqNWjGP_13rust_jira_mcp3mcp6serverNtB2_9MCPServer3new
FN:1817,_RNvMNtNtCs6CcTQqNWjGP_13rust_jira_mcp3mcp6serverNtB2_9MCPServer9call_tool
FN:401,_RNvMNtNtCs6CcTQqNWjGP_13rust_jira_mcp3mcp6serverNtB2_9MCPServer9run_stdio
FNDA:0,_RNCNvMNtNtCskhkPsqpzxNu_13rust_jira_mcp3mcp6serverNtB4_9MCPServer14handle_request0B8_
FNDA:0,_RNCNvMNtNtCskhkPsqpzxNu_13rust_jira_mcp3mcp6serverNtB4_9MCPServer16handle_call_tool0B8_
FNDA:0,_RNCNvMNtNtCskhkPsqpzxNu_13rust_jira_mcp3mcp6serverNtB4_9MCPServer9call_tool0B8_
FNDA:0,_RNCNvMNtNtCskhkPsqpzxNu_13rust_jira_mcp3mcp6serverNtB4_9MCPServer9run_stdio0B8_
FNDA:9,_RNvMNtNtCskhkPsqpzxNu_13rust_jira_mcp3mcp6serverNtB2_9MCPServer10list_tools
FNDA:0,_RNvMNtNtCskhkPsqpzxNu_13rust_jira_mcp3mcp6serverNtB2_9MCPServer14handle_request
FNDA:0,_RNvMNtNtCskhkPsqpzxNu_13rust_jira_mcp3mcp6serverNtB2_9MCPServer16handle_call_tool
FNDA:0,_RNvMNtNtCskhkPsqpzxNu_13rust_jira_mcp3mcp6serverNtB2_9MCPServer17handle_initialize
FNDA:0,_RNvMNtNtCskhkPsqpzxNu_13rust_jira_mcp3mcp6serverNtB2_9MCPServer17handle_list_tools
FNDA:33,_RNvMNtNtCskhkPsqpzxNu_13rust_jira_mcp3mcp6serverNtB2_9MCPServer19register_bulk_tools
FNDA:9,_RNvMNtNtCskhkPsqpzxNu_13rust_jira_mcp3mcp6serverNtB2_9MCPServer20get_issue_crud_tools
FNDA:9,_RNvMNtNtCskhkPsqpzxNu_13rust_jira_mcp3mcp6serverNtB2_9MCPServer20get_mixed_bulk_tools
FNDA:33,_RNvMNtNtCskhkPsqpzxNu_13rust_jira_mcp3mcp6serverNtB2_9MCPServer20register_basic_tools
FNDA:33,_RNvMNtNtCskhkPsqpzxNu_13rust_jira_mcp3mcp6serverNtB2_9MCPServer20register_label_tools
FNDA:9,_RNvMNtNtCskhkPsqpzxNu_13rust_jira_mcp3mcp6serverNtB2_9MCPServer21get_simple_bulk_tools
FNDA:33,_RNvMNtNtCskhkPsqpzxNu_13rust_jira_mcp3mcp6serverNtB2_9MCPServer21register_zephyr_tools
FNDA:33,_RNvMNtNtCskhkPsqpzxNu_13rust_jira_mcp3mcp6serverNtB2_9MCPServer22register_cloning_tools
FNDA:33,_RNvMNtNtCskhkPsqpzxNu_13rust_jira_mcp3mcp6serverNtB2_9MCPServer22register_linking_tools
FNDA:33,_RNvMNtNtCskhkPsqpzxNu_13rust_jira_mcp3mcp6serverNtB2_9MCPServer22register_project_tools
FNDA:33,_RNvMNtNtCskhkPsqpzxNu_13rust_jira_mcp3mcp6serverNtB2_9MCPServer22register_watcher_tools
FNDA:33,_RNvMNtNtCskhkPsqpzxNu_13rust_jira_mcp3mcp6serverNtB2_9MCPServer22register_worklog_tools
FNDA:33,_RNvMNtNtCskhkPsqpzxNu_13rust_jira_mcp3mcp6serverNtB2_9MCPServer24register_component_tools
FNDA:9,_RNvMNtNtCskhkPsqpzxNu_13rust_jira_mcp3mcp6serverNtB2_9MCPServer25get_auth_and_search_tools
FNDA:9,_RNvMNtNtCskhkPsqpzxNu_13rust_jira_mcp3mcp6serverNtB2_9MCPServer25get_bulk_tool_definitions
FNDA:33,_RNvMNtNtCskhkPsqpzxNu_13rust_jira_mcp3mcp6serverNtB2_9MCPServer25register_attachment_tools
FNDA:9,_RNvMNtNtCskhkPsqpzxNu_13rust_jira_mcp3mcp6serverNtB2_9MCPServer26get_basic_tool_definitions
FNDA:9,_RNvMNtNtCskhkPsqpzxNu_13rust_jira_mcp3mcp6serverNtB2_9MCPServer26get_label_tool_definitions
FNDA:9,_RNvMNtNtCskhkPsqpzxNu_13rust_jira_mcp3mcp6serverNtB2_9MCPServer26get_zephyr_execution_tools
FNDA:9,_RNvMNtNtCskhkPsqpzxNu_13rust_jira_mcp3mcp6serverNtB2_9MCPServer26get_zephyr_test_case_tools
FNDA:9,_RNvMNtNtCskhkPsqpzxNu_13rust_jira_mcp3mcp6serverNtB2_9MCPServer26get_zephyr_test_step_tools
FNDA:9,_RNvMNtNtCskhkPsqpzxNu_13rust_jira_mcp3mcp6serverNtB2_9MCPServer27get_zephyr_tool_definitions
FNDA:9,_RNvMNtNtCskhkPsqpzxNu_13rust_jira_mcp3mcp6serverNtB2_9MCPServer28get_cloning_tool_definitions
FNDA:9,_RNvMNtNtCskhkPsqpzxNu_13rust_jira_mcp3mcp6serverNtB2_9MCPServer28get_linking_tool_definitions
FNDA:9,_RNvMNtNtCskhkPsqpzxNu_13rust_jira_mcp3mcp6serverNtB2_9MCPServer28get_project_tool_definitions
FNDA:9,_RNvMNtNtCskhkPsqpzxNu_13rust_jira_mcp3mcp6serverNtB2_9MCPServer28get_watcher_tool_definitions
FNDA:9,_RNvMNtNtCskhkPsqpzxNu_13rust_jira_mcp3mcp6serverNtB2_9MCPServer28get_worklog_tool_definitions
FNDA:9,_RNvMNtNtCskhkPsqpzxNu_13rust_jira_mcp3mcp6serverNtB2_9MCPServer30get_component_tool_definitions
FNDA:9,_RNvMNtNtCskhkPsqpzxNu_13rust_jira_mcp3mcp6serverNtB2_9MCPServer31get_attachment_tool_definitions
FNDA:9,_RNvMNtNtCskhkPsqpzxNu_13rust_jira_mcp3mcp6serverNtB2_9MCPServer31get_zephyr_cycle_and_plan_tools
FNDA:9,_RNvMNtNtCskhkPsqpzxNu_13rust_jira_mcp3mcp6serverNtB2_9MCPServer32get_comment_and_transition_tools
FNDA:33,_RNvMNtNtCskhkPsqpzxNu_13rust_jira_mcp3mcp6serverNtB2_9MCPServer3new
FNDA:38,_RNvMNtNtCskhkPsqpzxNu_13rust_jira_mcp3mcp6serverNtB2_9MCPServer9call_tool
FNDA:0,_RNvMNtNtCskhkPsqpzxNu_13rust_jira_mcp3mcp6serverNtB2_9MCPServer9run_stdio
FNDA:14,_RNCNvMNtNtCskhkPsqpzxNu_13rust_jira_mcp3mcp6serverNtB4_9MCPServer9call_tool0Cs1xcEsOWAaqI_27mcp_server_integration_test
FNDA:24,_RNCNvMNtNtCskhkPsqpzxNu_13rust_jira_mcp3mcp6serverNtB4_9MCPServer9call_tool0Cs1hDkBC7GHUf_15mcp_server_test
FNDA:0,_RNvMNtNtCslEfzt21w4nZ_13rust_jira_mcp3mcp6serverNtB2_9MCPServer10list_tools
FNDA:0,_RNvMNtNtCslEfzt21w4nZ_13rust_jira_mcp3mcp6serverNtB2_9MCPServer14handle_request
FNDA:0,_RNvMNtNtCslEfzt21w4nZ_13rust_jira_mcp3mcp6serverNtB2_9MCPServer16handle_call_tool
FNDA:0,_RNvMNtNtCslEfzt21w4nZ_13rust_jira_mcp3mcp6serverNtB2_9MCPServer17handle_initialize
FNDA:0,_RNvMNtNtCslEfzt21w4nZ_13rust_jira_mcp3mcp6serverNtB2_9MCPServer17handle_list_tools
FNDA:0,_RNvMNtNtCslEfzt21w4nZ_13rust_jira_mcp3mcp6serverNtB2_9MCPServer19register_bulk_tools
FNDA:0,_RNvMNtNtCslEfzt21w4nZ_13rust_jira_mcp3mcp6serverNtB2_9MCPServer20get_issue_crud_tools
FNDA:0,_RNvMNtNtCslEfzt21w4nZ_13rust_jira_mcp3mcp6serverNtB2_9MCPServer20get_mixed_bulk_tools
FNDA:0,_RNvMNtNtCslEfzt21w4nZ_13rust_jira_mcp3mcp6serverNtB2_9MCPServer20register_basic_tools
FNDA:0,_RNvMNtNtCslEfzt21w4nZ_13rust_jira_mcp3mcp6serverNtB2_9MCPServer20register_label_tools
FNDA:0,_RNvMNtNtCslEfzt21w4nZ_13rust_jira_mcp3mcp6serverNtB2_9MCPServer21get_simple_bulk_tools
FNDA:0,_RNvMNtNtCslEfzt21w4nZ_13rust_jira_mcp3mcp6serverNtB2_9MCPServer21register_zephyr_tools
FNDA:0,_RNvMNtNtCslEfzt21w4nZ_13rust_jira_mcp3mcp6serverNtB2_9MCPServer22register_cloning_tools
FNDA:0,_RNvMNtNtCslEfzt21w4nZ_13rust_jira_mcp3mcp6serverNtB2_9MCPServer22register_linking_tools
FNDA:0,_RNvMNtNtCslEfzt21w4nZ_13rust_jira_mcp3mcp6serverNtB2_9MCPServer22register_project_tools
FNDA:0,_RNvMNtNtCslEfzt21w4nZ_13rust_jira_mcp3mcp6serverNtB2_9MCPServer22register_watcher_tools
FNDA:0,_RNvMNtNtCslEfzt21w4nZ_13rust_jira_mcp3mcp6serverNtB2_9MCPServer22register_worklog_tools
FNDA:0,_RNvMNtNtCslEfzt21w4nZ_13rust_jira_mcp3mcp6serverNtB2_9MCPServer24register_component_tools
FNDA:0,_RNvMNtNtCslEfzt21w4nZ_13rust_jira_mcp3mcp6serverNtB2_9MCPServer25get_auth_and_search_tools
FNDA:0,_RNvMNtNtCslEfzt21w4nZ_13rust_jira_mcp3mcp6serverNtB2_9MCPServer25get_bulk_tool_definitions
FNDA:0,_RNvMNtNtCslEfzt21w4nZ_13rust_jira_mcp3mcp6serverNtB2_9MCPServer25register_attachment_tools
FNDA:0,_RNvMNtNtCslEfzt21w4nZ_13rust_jira_mcp3mcp6serverNtB2_9MCPServer26get_basic_tool_definitions
FNDA:0,_RNvMNtNtCslEfzt21w4nZ_13rust_jira_mcp3mcp6serverNtB2_9MCPServer26get_label_tool_definitions
FNDA:0,_RNvMNtNtCslEfzt21w4nZ_13rust_jira_mcp3mcp6serverNtB2_9MCPServer26get_zephyr_execution_tools
FNDA:0,_RNvMNtNtCslEfzt21w4nZ_13rust_jira_mcp3mcp6serverNtB2_9MCPServer26get_zephyr_test_case_tools
FNDA:0,_RNvMNtNtCslEfzt21w4nZ_13rust_jira_mcp3mcp6serverNtB2_9MCPServer26get_zephyr_test_step_tools
FNDA:0,_RNvMNtNtCslEfzt21w4nZ_13rust_jira_mcp3mcp6serverNtB2_9MCPServer27get_zephyr_tool_definitions
FNDA:0,_RNvMNtNtCslEfzt21w4nZ_13rust_jira_mcp3mcp6serverNtB2_9MCPServer28get_cloning_tool_definitions
FNDA:0,_RNvMNtNtCslEfzt21w4nZ_13rust_jira_mcp3mcp6serverNtB2_9MCPServer28get_linking_tool_definitions
FNDA:0,_RNvMNtNtCslEfzt21w4nZ_13rust_jira_mcp3mcp6serverNtB2_9MCPServer28get_project_tool_definitions
FNDA:0,_RNvMNtNtCslEfzt21w4nZ_13rust_jira_mcp3mcp6serverNtB2_9MCPServer28get_watcher_tool_definitions
FNDA:0,_RNvMNtNtCslEfzt21w4nZ_13rust_jira_mcp3mcp6serverNtB2_9MCPServer28get_worklog_tool_definitions
FNDA:0,_RNvMNtNtCslEfzt21w4nZ_13rust_jira_mcp3mcp6serverNtB2_9MCPServer30get_component_tool_definitions
FNDA:0,_RNvMNtNtCslEfzt21w4nZ_13rust_jira_mcp3mcp6serverNtB2_9MCPServer31get_attachment_tool_definitions
FNDA:0,_RNvMNtNtCslEfzt21w4nZ_13rust_jira_mcp3mcp6serverNtB2_9MCPServer31get_zephyr_cycle_and_plan_tools
FNDA:0,_RNvMNtNtCslEfzt21w4nZ_13rust_jira_mcp3mcp6serverNtB2_9MCPServer32get_comment_and_transition_tools
FNDA:0,_RNvMNtNtCslEfzt21w4nZ_13rust_jira_mcp3mcp6serverNtB2_9MCPServer3new
FNDA:0,_RNvMNtNtCslEfzt21w4nZ_13rust_jira_mcp3mcp6serverNtB2_9MCPServer9call_tool
FNDA:0,_RNvMNtNtCslEfzt21w4nZ_13rust_jira_mcp3mcp6serverNtB2_9MCPServer9run_stdio
FNDA:0,_RNCNvMNtNtCslEfzt21w4nZ_13rust_jira_mcp3mcp6serverNtB4_9MCPServer14handle_request0B8_
FNDA:0,_RNCNvMNtNtCslEfzt21w4nZ_13rust_jira_mcp3mcp6serverNtB4_9MCPServer16handle_call_tool0B8_
FNDA:0,_RNCNvMNtNtCslEfzt21w4nZ_13rust_jira_mcp3mcp6serverNtB4_9MCPServer9call_tool0B8_
FNDA:0,_RNCNvMNtNtCslEfzt21w4nZ_13rust_jira_mcp3mcp6serverNtB4_9MCPServer9run_stdio0B8_
FNDA:0,_RNCNvMNtNtCsbRuuH6jbcRQ_13rust_jira_mcp3mcp6serverNtB4_9MCPServer14handle_request0B8_
FNDA:0,_RNCNvMNtNtCsbRuuH6jbcRQ_13rust_jira_mcp3mcp6serverNtB4_9MCPServer16handle_call_tool0B8_
FNDA:0,_RNCNvMNtNtCsbRuuH6jbcRQ_13rust_jira_mcp3mcp6serverNtB4_9MCPServer9call_tool0B8_
FNDA:0,_RNCNvMNtNtCsbRuuH6jbcRQ_13rust_jira_mcp3mcp6serverNtB4_9MCPServer9run_stdio0B8_
FNDA:0,_RNvMNtNtCsbRuuH6jbcRQ_13rust_jira_mcp3mcp6serverNtB2_9MCPServer10list_tools
FNDA:0,_RNvMNtNtCsbRuuH6jbcRQ_13rust_jira_mcp3mcp6serverNtB2_9MCPServer14handle_request
FNDA:0,_RNvMNtNtCsbRuuH6jbcRQ_13rust_jira_mcp3mcp6serverNtB2_9MCPServer16handle_call_tool
FNDA:0,_RNvMNtNtCsbRuuH6jbcRQ_13rust_jira_mcp3mcp6serverNtB2_9MCPServer17handle_initialize
FNDA:0,_RNvMNtNtCsbRuuH6jbcRQ_13rust_jira_mcp3mcp6serverNtB2_9MCPServer17handle_list_tools
FNDA:0,_RNvMNtNtCsbRuuH6jbcRQ_13rust_jira_mcp3mcp6serverNtB2_9MCPServer19register_bulk_tools
FNDA:0,_RNvMNtNtCsbRuuH6jbcRQ_13rust_jira_mcp3mcp6serverNtB2_9MCPServer20get_issue_crud_tools
FNDA:0,_RNvMNtNtCsbRuuH6jbcRQ_13rust_jira_mcp3mcp6serverNtB2_9MCPServer20get_mixed_bulk_tools
FNDA:0,_RNvMNtNtCsbRuuH6jbcRQ_13rust_jira_mcp3mcp6serverNtB2_9MCPServer20register_basic_tools
FNDA:0,_RNvMNtNtCsbRuuH6jbcRQ_13rust_jira_mcp3mcp6serverNtB2_9MCPServer20register_label_tools
FNDA:0,_RNvMNtNtCsbRuuH6jbcRQ_13rust_jira_mcp3mcp6serverNtB2_9MCPServer21get_simple_bulk_tools
FNDA:0,_RNvMNtNtCsbRuuH6jbcRQ_13rust_jira_mcp3mcp6serverNtB2_9MCPServer21register_zephyr_tools
FNDA:0,_RNvMNtNtCsbRuuH6jbcRQ_13rust_jira_mcp3mcp6serverNtB2_9MCPServer22register_cloning_tools
FNDA:0,_RNvMNtNtCsbRuuH6jbcRQ_13rust_jira_mcp3mcp6serverNtB2_9MCPServer22register_linking_tools
FNDA:0,_RNvMNtNtCsbRuuH6jbcRQ_13rust_jira_mcp3mcp6serverNtB2_9MCPServer22register_project_tools
FNDA:0,_RNvMNtNtCsbRuuH6jbcRQ_13rust_jira_mcp3mcp6serverNtB2_9MCPServer22register_watcher_tools
FNDA:0,_RNvMNtNtCsbRuuH6jbcRQ_13rust_jira_mcp3mcp6serverNtB2_9MCPServer22register_worklog_tools
FNDA:0,_RNvMNtNtCsbRuuH6jbcRQ_13rust_jira_mcp3mcp6serverNtB2_9MCPServer24register_component_tools
FNDA:0,_RNvMNtNtCsbRuuH6jbcRQ_13rust_jira_mcp3mcp6serverNtB2_9MCPServer25get_auth_and_search_tools
FNDA:0,_RNvMNtNtCsbRuuH6jbcRQ_13rust_jira_mcp3mcp6serverNtB2_9MCPServer25get_bulk_tool_definitions
FNDA:0,_RNvMNtNtCsbRuuH6jbcRQ_13rust_jira_mcp3mcp6serverNtB2_9MCPServer25register_attachment_tools
FNDA:0,_RNvMNtNtCsbRuuH6jbcRQ_13rust_jira_mcp3mcp6serverNtB2_9MCPServer26get_basic_tool_definitions
FNDA:0,_RNvMNtNtCsbRuuH6jbcRQ_13rust_jira_mcp3mcp6serverNtB2_9MCPServer26get_label_tool_definitions
FNDA:0,_RNvMNtNtCsbRuuH6jbcRQ_13rust_jira_mcp3mcp6serverNtB2_9MCPServer26get_zephyr_execution_tools
FNDA:0,_RNvMNtNtCsbRuuH6jbcRQ_13rust_jira_mcp3mcp6serverNtB2_9MCPServer26get_zephyr_test_case_tools
FNDA:0,_RNvMNtNtCsbRuuH6jbcRQ_13rust_jira_mcp3mcp6serverNtB2_9MCPServer26get_zephyr_test_step_tools
FNDA:0,_RNvMNtNtCsbRuuH6jbcRQ_13rust_jira_mcp3mcp6serverNtB2_9MCPServer27get_zephyr_tool_definitions
FNDA:0,_RNvMNtNtCsbRuuH6jbcRQ_13rust_jira_mcp3mcp6serverNtB2_9MCPServer28get_cloning_tool_definitions
FNDA:0,_RNvMNtNtCsbRuuH6jbcRQ_13rust_jira_mcp3mcp6serverNtB2_9MCPServer28get_linking_tool_definitions
FNDA:0,_RNvMNtNtCsbRuuH6jbcRQ_13rust_jira_mcp3mcp6serverNtB2_9MCPServer28get_project_tool_definitions
FNDA:0,_RNvMNtNtCsbRuuH6jbcRQ_13rust_jira_mcp3mcp6serverNtB2_9MCPServer28get_watcher_tool_definitions
FNDA:0,_RNvMNtNtCsbRuuH6jbcRQ_13rust_jira_mcp3mcp6serverNtB2_9MCPServer28get_worklog_tool_definitions
FNDA:0,_RNvMNtNtCsbRuuH6jbcRQ_13rust_jira_mcp3mcp6serverNtB2_9MCPServer30get_component_tool_definitions
FNDA:0,_RNvMNtNtCsbRuuH6jbcRQ_13rust_jira_mcp3mcp6serverNtB2_9MCPServer31get_attachment_tool_definitions
FNDA:0,_RNvMNtNtCsbRuuH6jbcRQ_13rust_jira_mcp3mcp6serverNtB2_9MCPServer31get_zephyr_cycle_and_plan_tools
FNDA:0,_RNvMNtNtCsbRuuH6jbcRQ_13rust_jira_mcp3mcp6serverNtB2_9MCPServer32get_comment_and_transition_tools
FNDA:0,_RNvMNtNtCsbRuuH6jbcRQ_13rust_jira_mcp3mcp6serverNtB2_9MCPServer3new
FNDA:0,_RNvMNtNtCsbRuuH6jbcRQ_13rust_jira_mcp3mcp6serverNtB2_9MCPServer9call_tool
FNDA:0,_RNvMNtNtCsbRuuH6jbcRQ_13rust_jira_mcp3mcp6serverNtB2_9MCPServer9run_stdio
FNDA:0,_RNCNvMNtNtCs6CcTQqNWjGP_13rust_jira_mcp3mcp6serverNtB4_9MCPServer14handle_request0B8_
FNDA:0,_RNCNvMNtNtCs6CcTQqNWjGP_13rust_jira_mcp3mcp6serverNtB4_9MCPServer16handle_call_tool0B8_
FNDA:0,_RNCNvMNtNtCs6CcTQqNWjGP_13rust_jira_mcp3mcp6serverNtB4_9MCPServer9call_tool0B8_
FNDA:0,_RNCNvMNtNtCs6CcTQqNWjGP_13rust_jira_mcp3mcp6serverNtB4_9MCPServer9run_stdio0B8_
FNDA:0,_RNvMNtNtCs6CcTQqNWjGP_13rust_jira_mcp3mcp6serverNtB2_9MCPServer10list_tools
FNDA:0,_RNvMNtNtCs6CcTQqNWjGP_13rust_jira_mcp3mcp6serverNtB2_9MCPServer14handle_request
FNDA:0,_RNvMNtNtCs6CcTQqNWjGP_13rust_jira_mcp3mcp6serverNtB2_9MCPServer16handle_call_tool
FNDA:0,_RNvMNtNtCs6CcTQqNWjGP_13rust_jira_mcp3mcp6serverNtB2_9MCPServer17handle_initialize
FNDA:0,_RNvMNtNtCs6CcTQqNWjGP_13rust_jira_mcp3mcp6serverNtB2_9MCPServer17handle_list_tools
FNDA:0,_RNvMNtNtCs6CcTQqNWjGP_13rust_jira_mcp3mcp6serverNtB2_9MCPServer19register_bulk_tools
FNDA:0,_RNvMNtNtCs6CcTQqNWjGP_13rust_jira_mcp3mcp6serverNtB2_9MCPServer20get_issue_crud_tools
FNDA:0,_RNvMNtNtCs6CcTQqNWjGP_13rust_jira_mcp3mcp6serverNtB2_9MCPServer20get_mixed_bulk_tools
FNDA:0,_RNvMNtNtCs6CcTQqNWjGP_13rust_jira_mcp3mcp6serverNtB2_9MCPServer20register_basic_tools
FNDA:0,_RNvMNtNtCs6CcTQqNWjGP_13rust_jira_mcp3mcp6serverNtB2_9MCPServer20register_label_tools
FNDA:0,_RNvMNtNtCs6CcTQqNWjGP_13rust_jira_mcp3mcp6serverNtB2_9MCPServer21get_simple_bulk_tools
FNDA:0,_RNvMNtNtCs6CcTQqNWjGP_13rust_jira_mcp3mcp6serverNtB2_9MCPServer21register_zephyr_tools
FNDA:0,_RNvMNtNtCs6CcTQqNWjGP_13rust_jira_mcp3mcp6serverNtB2_9MCPServer22register_cloning_tools
FNDA:0,_RNvMNtNtCs6CcTQqNWjGP_13rust_jira_mcp3mcp6serverNtB2_9MCPServer22register_linking_tools
FNDA:0,_RNvMNtNtCs6CcTQqNWjGP_13rust_jira_mcp3mcp6serverNtB2_9MCPServer22register_project_tools
FNDA:0,_RNvMNtNtCs6CcTQqNWjGP_13rust_jira_mcp3mcp6serverNtB2_9MCPServer22register_watcher_tools
FNDA:0,_RNvMNtNtCs6CcTQqNWjGP_13rust_jira_mcp3mcp6serverNtB2_9MCPServer22register_worklog_tools
FNDA:0,_RNvMNtNtCs6CcTQqNWjGP_13rust_jira_mcp3mcp6serverNtB2_9MCPServer24register_component_tools
FNDA:0,_RNvMNtNtCs6CcTQqNWjGP_13rust_jira_mcp3mcp6serverNtB2_9MCPServer25get_auth_and_search_tools
FNDA:0,_RNvMNtNtCs6CcTQqNWjGP_13rust_jira_mcp3mcp6serverNtB2_9MCPServer25get_bulk_tool_definitions
FNDA:0,_RNvMNtNtCs6CcTQqNWjGP_13rust_jira_mcp3mcp6serverNtB2_9MCPServer25register_attachment_tools
FNDA:0,_RNvMNtNtCs6CcTQqNWjGP_13rust_jira_mcp3mcp6serverNtB2_9MCPServer26get_basic_tool_definitions
FNDA:0,_RNvMNtNtCs6CcTQqNWjGP_13rust_jira_mcp3mcp6serverNtB2_9MCPServer26get_label_tool_definitions
FNDA:0,_RNvMNtNtCs6CcTQqNWjGP_13rust_jira_mcp3mcp6serverNtB2_9MCPServer26get_zephyr_execution_tools
FNDA:0,_RNvMNtNtCs6CcTQqNWjGP_13rust_jira_mcp3mcp6serverNtB2_9MCPServer26get_zephyr_test_case_tools
FNDA:0,_RNvMNtNtCs6CcTQqNWjGP_13rust_jira_mcp3mcp6serverNtB2_9MCPServer26get_zephyr_test_step_tools
FNDA:0,_RNvMNtNtCs6CcTQqNWjGP_13rust_jira_mcp3mcp6serverNtB2_9MCPServer27get_zephyr_tool_definitions
FNDA:0,_RNvMNtNtCs6CcTQqNWjGP_13rust_jira_mcp3mcp6serverNtB2_9MCPServer28get_cloning_tool_definitions
FNDA:0,_RNvMNtNtCs6CcTQqNWjGP_13rust_jira_mcp3mcp6serverNtB2_9MCPServer28get_linking_tool_definitions
FNDA:0,_RNvMNtNtCs6CcTQqNWjGP_13rust_jira_mcp3mcp6serverNtB2_9MCPServer28get_project_tool_definitions
FNDA:0,_RNvMNtNtCs6CcTQqNWjGP_13rust_jira_mcp3mcp6serverNtB2_9MCPServer28get_watcher_tool_definitions
FNDA:0,_RNvMNtNtCs6CcTQqNWjGP_13rust_jira_mcp3mcp6serverNtB2_9MCPServer28get_worklog_tool_definitions
FNDA:0,_RNvMNtNtCs6CcTQqNWjGP_13rust_jira_mcp3mcp6serverNtB2_9MCPServer30get_component_tool_definitions
FNDA:0,_RNvMNtNtCs6CcTQqNWjGP_13rust_jira_mcp3mcp6serverNtB2_9MCPServer31get_attachment_tool_definitions
FNDA:0,_RNvMNtNtCs6CcTQqNWjGP_13rust_jira_mcp3mcp6serverNtB2_9MCPServer31get_zephyr_cycle_and_plan_tools
FNDA:0,_RNvMNtNtCs6CcTQqNWjGP_13rust_jira_mcp3mcp6serverNtB2_9MCPServer32get_comment_and_transition_tools
FNDA:0,_RNvMNtNtCs6CcTQqNWjGP_13rust_jira_mcp3mcp6serverNtB2_9MCPServer3new
FNDA:0,_RNvMNtNtCs6CcTQqNWjGP_13rust_jira_mcp3mcp6serverNtB2_9MCPServer9call_tool
FNDA:0,_RNvMNtNtCs6CcTQqNWjGP_13rust_jira_mcp3mcp6serverNtB2_9MCPServer9run_stdio
FNF:43
FNH:35
DA:85,33
DA:86,33
DA:88,33
DA:89,33
DA:90,33
DA:91,33
DA:92,33
DA:93,33
DA:94,33
DA:95,33
DA:96,33
DA:97,33
DA:98,33
DA:100,33
DA:101,33
DA:102,33
DA:103,33
DA:104,33
DA:105,33
DA:108,33
DA:109,33
DA:110,33
DA:111,33
DA:112,33
DA:113,33
DA:114,33
DA:116,33
DA:117,33
DA:118,33
DA:120,33
DA:121,33
DA:122,33
DA:124,33
DA:125,33
DA:126,33
DA:128,33
DA:129,33
DA:130,33
DA:132,33
DA:133,33
DA:134,33
DA:136,33
DA:137,33
DA:138,33
DA:140,33
DA:141,33
DA:142,33
DA:144,33
DA:145,33
DA:146,33
DA:148,33
DA:151,33
DA:152,33
DA:153,33
DA:154,33
DA:155,33
DA:156,33
DA:157,33
DA:159,33
DA:160,33
DA:161,33
DA:163,33
DA:164,33
DA:165,33
DA:167,33
DA:168,33
DA:169,33
DA:171,33
DA:172,33
DA:173,33
DA:175,33
DA:176,33
DA:177,33
DA:179,33
DA:180,33
DA:181,33
DA:183,33
DA:186,33
DA:187,33
DA:188,33
DA:189,33
DA:190,33
DA:191,33
DA:192,33
DA:194,33
DA:195,33
DA:196,33
DA:198,33
DA:199,33
DA:200,33
DA:202,33
DA:203,33
DA:204,33
DA:206,33
DA:209,33
DA:210,33
DA:211,33
DA:212,33
DA:213,33
DA:214,33
DA:215,33
DA:217,33
DA:218,33
DA:219,33
DA:221,33
DA:222,33
DA:223,33
DA:225,33
DA:226,33
DA:227,33
DA:229,33
DA:232,33
DA:233,33
DA:234,33
DA:235,33
DA:236,33
DA:237,33
DA:238,33
DA:240,33
DA:241,33
DA:242,33
DA:244,33
DA:245,33
DA:246,33
DA:248,33
DA:249,33
DA:250,33
DA:252,33
DA:255,33
DA:256,33
DA:257,33
DA:258,33
DA:259,33
DA:260,33
DA:261,33
DA:263,33
DA:264,33
DA:265,33
DA:267,33
DA:268,33
DA:269,33
DA:271,33
DA:272,33
DA:273,33
DA:275,33
DA:278,33
DA:279,33
DA:280,33
DA:281,33
DA:282,33
DA:283,33
DA:284,33
DA:286,33
DA:287,33
DA:288,33
DA:290,33
DA:291,33
DA:292,33
DA:294,33
DA:297,33
DA:298,33
DA:299,33
DA:300,33
DA:301,33
DA:302,33
DA:303,33
DA:305,33
DA:306,33
DA:307,33
DA:309,33
DA:310,33
DA:311,33
DA:313,33
DA:314,33
DA:315,33
DA:317,33
DA:320,33
DA:321,33
DA:322,33
DA:323,33
DA:324,33
DA:325,33
DA:326,33
DA:328,33
DA:329,33
DA:330,33
DA:332,33
DA:333,33
DA:334,33
DA:336,33
DA:339,33
DA:340,33
DA:341,33
DA:342,33
DA:343,33
DA:344,33
DA:345,33
DA:347,33
DA:350,33
DA:351,33
DA:352,33
DA:353,33
DA:354,33
DA:355,33
DA:356,33
DA:358,33
DA:359,33
DA:360,33
DA:362,33
DA:363,33
DA:364,33
DA:366,33
DA:367,33
DA:368,33
DA:370,33
DA:371,33
DA:372,33
DA:374,33
DA:375,33
DA:376,33
DA:378,33
DA:379,33
DA:380,33
DA:382,33
DA:383,33
DA:384,33
DA:386,33
DA:387,33
DA:388,33
DA:390,33
DA:391,33
DA:392,33
DA:394,33
DA:401,0
DA:402,0
DA:403,0
DA:405,0
DA:406,0
DA:407,0
DA:408,0
DA:410,0
DA:412,0
DA:415,0
DA:416,0
DA:418,0
DA:419,0
DA:422,0
DA:423,0
DA:424,0
DA:425,0
DA:427,0
DA:428,0
DA:429,0
DA:430,0
DA:431,0
DA:432,0
DA:434,0
DA:435,0
DA:436,0
DA:437,0
DA:438,0
DA:440,0
DA:441,0
DA:442,0
DA:443,0
DA:444,0
DA:445,0
DA:446,0
DA:447,0
DA:448,0
DA:449,0
DA:450,0
DA:451,0
DA:452,0
DA:453,0
DA:457,0
DA:458,0
DA:459,0
DA:460,0
DA:461,0
DA:466,0
DA:467,0
DA:468,0
DA:471,0
DA:472,0
DA:474,0
DA:475,0
DA:476,0
DA:477,0
DA:478,0
DA:480,0
DA:481,0
DA:482,0
DA:485,0
DA:486,0
DA:487,0
DA:488,0
DA:489,0
DA:490,0
DA:491,0
DA:492,0
DA:493,0
DA:494,0
DA:495,0
DA:499,0
DA:500,0
DA:503,0
DA:504,0
DA:505,0
DA:507,0
DA:508,0
DA:509,0
DA:510,0
DA:511,0
DA:512,0
DA:513,0
DA:514,0
DA:515,0
DA:516,0
DA:519,0
DA:520,0
DA:521,0
DA:522,0
DA:523,0
DA:524,0
DA:525,0
DA:526,0
DA:527,0
DA:528,0
DA:529,0
DA:530,0
DA:533,0
DA:534,0
DA:535,0
DA:536,0
DA:538,0
DA:541,0
DA:542,0
DA:543,0
DA:545,0
DA:546,0
DA:547,0
DA:548,0
DA:549,0
DA:550,0
DA:551,0
DA:552,0
DA:553,0
DA:554,0
DA:557,0
DA:558,0
DA:561,0
DA:562,0
DA:563,0
DA:564,0
DA:566,0
DA:569,0
DA:570,0
DA:571,0
DA:573,0
DA:574,0
DA:575,0
DA:576,0
DA:577,0
DA:578,0
DA:579,0
DA:580,0
DA:581,0
DA:582,0
DA:585,0
DA:586,0
DA:587,0
DA:588,0
DA:590,0
DA:591,0
DA:592,0
DA:593,0
DA:594,0
DA:595,0
DA:598,0
DA:599,0
DA:600,0
DA:601,0
DA:604,0
DA:605,0
DA:606,0
DA:607,0
DA:608,0
DA:609,0
DA:610,0
DA:611,0
DA:612,0
DA:613,0
DA:614,0
DA:615,0
DA:618,0
DA:621,9
DA:622,9
DA:623,9
DA:624,9
DA:625,9
DA:626,9
DA:627,9
DA:630,9
DA:631,9
DA:632,9
DA:633,9
DA:634,9
DA:635,9
DA:636,9
DA:637,9
DA:638,9
DA:639,9
DA:640,9
DA:641,9
DA:642,9
DA:643,9
DA:644,9
DA:645,9
DA:646,9
DA:647,9
DA:648,9
DA:649,9
DA:650,9
DA:651,9
DA:652,9
DA:653,9
DA:654,9
DA:655,9
DA:656,9
DA:657,9
DA:658,9
DA:659,9
DA:660,9
DA:661,9
DA:662,9
DA:663,9
DA:664,9
DA:665,9
DA:666,9
DA:667,9
DA:668,9
DA:669,9
DA:670,9
DA:671,9
DA:672,9
DA:674,9
DA:677,9
DA:678,9
DA:679,9
DA:680,9
DA:681,9
DA:682,9
DA:683,9
DA:684,9
DA:685,9
DA:686,9
DA:687,9
DA:688,9
DA:689,9
DA:690,9
DA:691,9
DA:692,9
DA:693,9
DA:694,9
DA:695,9
DA:696,9
DA:697,9
DA:698,9
DA:699,9
DA:700,9
DA:701,9
DA:702,9
DA:703,9
DA:704,9
DA:705,9
DA:706,9
DA:707,9
DA:708,9
DA:709,9
DA:710,9
DA:711,9
DA:712,9
DA:713,9
DA:714,9
DA:715,9
DA:716,9
DA:717,9
DA:718,9
DA:719,9
DA:720,9
DA:721,9
DA:722,9
DA:723,9
DA:724,9
DA:726,9
DA:729,9
DA:730,9
DA:731,9
DA:732,9
DA:733,9
DA:734,9
DA:735,9
DA:736,9
DA:737,9
DA:738,9
DA:739,9
DA:740,9
DA:741,9
DA:742,9
DA:743,9
DA:744,9
DA:745,9
DA:746,9
DA:747,9
DA:748,9
DA:749,9
DA:750,9
DA:751,9
DA:752,9
DA:753,9
DA:754,9
DA:755,9
DA:756,9
DA:757,9
DA:758,9
DA:759,9
DA:760,9
DA:761,9
DA:762,9
DA:763,9
DA:764,9
DA:765,9
DA:766,9
DA:767,9
DA:768,9
DA:769,9
DA:770,9
DA:771,9
DA:772,9
DA:773,9
DA:774,9
DA:775,9
DA:776,9
DA:777,9
DA:778,9
DA:779,9
DA:780,9
DA:781,9
DA:782,9
DA:783,9
DA:784,9
DA:785,9
DA:786,9
DA:787,9
DA:788,9
DA:789,9
DA:790,9
DA:791,9
DA:792,9
DA:793,9
DA:794,9
DA:795,9
DA:796,9
DA:797,9
DA:798,9
DA:800,9
DA:803,9
DA:804,9
DA:805,9
DA:806,9
DA:807,9
DA:808,9
DA:809,9
DA:810,9
DA:811,9
DA:812,9
DA:813,9
DA:814,9
DA:815,9
DA:816,9
DA:817,9
DA:818,9
DA:819,9
DA:820,9
DA:821,9
DA:822,9
DA:823,9
DA:824,9
DA:825,9
DA:826,9
DA:827,9
DA:828,9
DA:829,9
DA:830,9
DA:831,9
DA:832,9
DA:833,9
DA:834,9
DA:835,9
DA:836,9
DA:837,9
DA:838,9
DA:839,9
DA:840,9
DA:841,9
DA:842,9
DA:843,9
DA:844,9
DA:845,9
DA:846,9
DA:847,9
DA:848,9
DA:849,9
DA:850,9
DA:851,9
DA:852,9
DA:853,9
DA:854,9
DA:855,9
DA:856,9
DA:857,9
DA:858,9
DA:859,9
DA:860,9
DA:861,9
DA:862,9
DA:863,9
DA:864,9
DA:865,9
DA:866,9
DA:867,9
DA:868,9
DA:869,9
DA:870,9
DA:871,9
DA:872,9
DA:873,9
DA:874,9
DA:875,9
DA:876,9
DA:877,9
DA:878,9
DA:879,9
DA:880,9
DA:881,9
DA:882,9
DA:883,9
DA:884,9
DA:885,9
DA:886,9
DA:887,9
DA:888,9
DA:889,9
DA:890,9
DA:892,9
DA:895,9
DA:896,9
DA:897,9
DA:898,9
DA:899,9
DA:900,9
DA:903,9
DA:904,9
DA:905,9
DA:906,9
DA:907,9
DA:908,9
DA:909,9
DA:910,9
DA:911,9
DA:912,9
DA:913,9
DA:914,9
DA:915,9
DA:916,9
DA:917,9
DA:918,9
DA:919,9
DA:920,9
DA:921,9
DA:922,9
DA:923,9
DA:924,9
DA:925,9
DA:926,9
DA:927,9
DA:928,9
DA:929,9
DA:930,9
DA:931,9
DA:932,9
DA:933,9
DA:934,9
DA:935,9
DA:936,9
DA:937,9
DA:938,9
DA:939,9
DA:940,9
DA:941,9
DA:942,9
DA:943,9
DA:944,9
DA:945,9
DA:946,9
DA:947,9
DA:948,9
DA:949,9
DA:950,9
DA:951,9
DA:952,9
DA:953,9
DA:954,9
DA:955,9
DA:956,9
DA:957,9
DA:958,9
DA:959,9
DA:960,9
DA:961,9
DA:962,9
DA:963,9
DA:964,9
DA:965,9
DA:966,9
DA:967,9
DA:968,9
DA:969,9
DA:970,9
DA:971,9
DA:972,9
DA:973,9
DA:974,9
DA:975,9
DA:976,9
DA:977,9
DA:978,9
DA:979,9
DA:980,9
DA:981,9
DA:982,9
DA:983,9
DA:984,9
DA:985,9
DA:986,9
DA:987,9
DA:988,9
DA:989,9
DA:990,9
DA:991,9
DA:992,9
DA:993,9
DA:994,9
DA:995,9
DA:997,9
DA:1000,9
DA:1001,9
DA:1002,9
DA:1003,9
DA:1004,9
DA:1005,9
DA:1006,9
DA:1007,9
DA:1008,9
DA:1009,9
DA:1010,9
DA:1011,9
DA:1012,9
DA:1013,9
DA:1014,9
DA:1015,9
DA:1016,9
DA:1017,9
DA:1018,9
DA:1019,9
DA:1020,9
DA:1021,9
DA:1022,9
DA:1023,9
DA:1024,9
DA:1025,9
DA:1026,9
DA:1027,9
DA:1028,9
DA:1029,9
DA:1030,9
DA:1031,9
DA:1032,9
DA:1033,9
DA:1034,9
DA:1035,9
DA:1036,9
DA:1037,9
DA:1038,9
DA:1039,9
DA:1040,9
DA:1041,9
DA:1043,9
DA:1046,9
DA:1047,9
DA:1048,9
DA:1049,9
DA:1050,9
DA:1051,9
DA:1052,9
DA:1053,9
DA:1056,9
DA:1057,9
DA:1058,9
DA:1059,9
DA:1060,9
DA:1061,9
DA:1062,9
DA:1063,9
DA:1064,9
DA:1065,9
DA:1066,9
DA:1067,9
DA:1068,9
DA:1069,9
DA:1070,9
DA:1071,9
DA:1072,9
DA:1073,9
DA:1074,9
DA:1075,9
DA:1076,9
DA:1077,9
DA:1078,9
DA:1079,9
DA:1080,9
DA:1081,9
DA:1082,9
DA:1083,9
DA:1084,9
DA:1085,9
DA:1086,9
DA:1087,9
DA:1088,9
DA:1089,9
DA:1090,9
DA:1091,9
DA:1092,9
DA:1093,9
DA:1094,9
DA:1095,9
DA:1096,9
DA:1097,9
DA:1098,9
DA:1099,9
DA:1100,9
DA:1101,9
DA:1102,9
DA:1103,9
DA:1104,9
DA:1105,9
DA:1106,9
DA:1107,9
DA:1108,9
DA:1109,9
DA:1110,9
DA:1111,9
DA:1112,9
DA:1113,9
DA:1114,9
DA:1115,9
DA:1116,9
DA:1117,9
DA:1118,9
DA:1119,9
DA:1120,9
DA:1121,9
DA:1122,9
DA:1123,9
DA:1124,9
DA:1125,9
DA:1126,9
DA:1127,9
DA:1128,9
DA:1129,9
DA:1130,9
DA:1131,9
DA:1132,9
DA:1133,9
DA:1134,9
DA:1135,9
DA:1136,9
DA:1137,9
DA:1138,9
DA:1139,9
DA:1140,9
DA:1141,9
DA:1142,9
DA:1143,9
DA:1144,9
DA:1145,9
DA:1146,9
DA:1147,9
DA:1148,9
DA:1149,9
DA:1150,9
DA:1151,9
DA:1152,9
DA:1153,9
DA:1155,9
DA:1158,9
DA:1159,9
DA:1160,9
DA:1161,9
DA:1162,9
DA:1163,9
DA:1164,9
DA:1165,9
DA:1166,9
DA:1167,9
DA:1168,9
DA:1169,9
DA:1170,9
DA:1171,9
DA:1172,9
DA:1173,9
DA:1174,9
DA:1175,9
DA:1176,9
DA:1177,9
DA:1178,9
DA:1179,9
DA:1180,9
DA:1181,9
DA:1182,9
DA:1183,9
DA:1184,9
DA:1185,9
DA:1186,9
DA:1187,9
DA:1188,9
DA:1189,9
DA:1190,9
DA:1191,9
DA:1192,9
DA:1193,9
DA:1194,9
DA:1195,9
DA:1196,9
DA:1197,9
DA:1198,9
DA:1199,9
DA:1200,9
DA:1201,9
DA:1202,9
DA:1203,9
DA:1204,9
DA:1205,9
DA:1206,9
DA:1207,9
DA:1208,9
DA:1209,9
DA:1210,9
DA:1211,9
DA:1212,9
DA:1213,9
DA:1214,9
DA:1215,9
DA:1217,9
DA:1220,9
DA:1221,9
DA:1222,9
DA:1223,9
DA:1224,9
DA:1225,9
DA:1226,9
DA:1227,9
DA:1228,9
DA:1229,9
DA:1230,9
DA:1231,9
DA:1232,9
DA:1233,9
DA:1234,9
DA:1235,9
DA:1236,9
DA:1237,9
DA:1238,9
DA:1239,9
DA:1240,9
DA:1241,9
DA:1242,9
DA:1243,9
DA:1244,9
DA:1245,9
DA:1246,9
DA:1247,9
DA:1248,9
DA:1249,9
DA:1250,9
DA:1251,9
DA:1252,9
DA:1253,9
DA:1254,9
DA:1255,9
DA:1256,9
DA:1257,9
DA:1258,9
DA:1259,9
DA:1260,9
DA:1261,9
DA:1262,9
DA:1263,9
DA:1264,9
DA:1265,9
DA:1266,9
DA:1267,9
DA:1268,9
DA:1269,9
DA:1270,9
DA:1271,9
DA:1272,9
DA:1273,9
DA:1275,9
DA:1278,9
DA:1279,9
DA:1280,9
DA:1281,9
DA:1282,9
DA:1283,9
DA:1284,9
DA:1285,9
DA:1286,9
DA:1287,9
DA:1288,9
DA:1289,9
DA:1290,9
DA:1291,9
DA:1292,9
DA:1293,9
DA:1294,9
DA:1295,9
DA:1296,9
DA:1297,9
DA:1298,9
DA:1299,9
DA:1300,9
DA:1301,9
DA:1302,9
DA:1303,9
DA:1304,9
DA:1305,9
DA:1306,9
DA:1307,9
DA:1309,9
DA:1312,9
DA:1313,9
DA:1314,9
DA:1315,9
DA:1316,9
DA:1317,9
DA:1318,9
DA:1319,9
DA:1320,9
DA:1321,9
DA:1322,9
DA:1323,9
DA:1324,9
DA:1325,9
DA:1326,9
DA:1327,9
DA:1328,9
DA:1329,9
DA:1330,9
DA:1331,9
DA:1332,9
DA:1333,9
DA:1334,9
DA:1335,9
DA:1336,9
DA:1337,9
DA:1338,9
DA:1339,9
DA:1340,9
DA:1341,9
DA:1342,9
DA:1343,9
DA:1344,9
DA:1345,9
DA:1346,9
DA:1347,9
DA:1348,9
DA:1349,9
DA:1350,9
DA:1351,9
DA:1352,9
DA:1353,9
DA:1354,9
DA:1355,9
DA:1356,9
DA:1357,9
DA:1358,9
DA:1359,9
DA:1360,9
DA:1361,9
DA:1362,9
DA:1363,9
DA:1364,9
DA:1365,9
DA:1366,9
DA:1367,9
DA:1368,9
DA:1369,9
DA:1370,9
DA:1371,9
DA:1372,9
DA:1373,9
DA:1374,9
DA:1375,9
DA:1377,9
DA:1380,9
DA:1381,9
DA:1382,9
DA:1383,9
DA:1384,9
DA:1385,9
DA:1386,9
DA:1387,9
DA:1388,9
DA:1389,9
DA:1390,9
DA:1391,9
DA:1392,9
DA:1393,9
DA:1394,9
DA:1395,9
DA:1396,9
DA:1397,9
DA:1398,9
DA:1399,9
DA:1400,9
DA:1401,9
DA:1402,9
DA:1403,9
DA:1404,9
DA:1405,9
DA:1406,9
DA:1407,9
DA:1408,9
DA:1409,9
DA:1410,9
DA:1411,9
DA:1412,9
DA:1413,9
DA:1414,9
DA:1415,9
DA:1416,9
DA:1417,9
DA:1418,9
DA:1419,9
DA:1420,9
DA:1421,9
DA:1422,9
DA:1423,9
DA:1424,9
DA:1425,9
DA:1426,9
DA:1427,9
DA:1428,9
DA:1429,9
DA:1430,9
DA:1431,9
DA:1432,9
DA:1433,9
DA:1434,9
DA:1435,9
DA:1436,9
DA:1437,9
DA:1438,9
DA:1439,9
DA:1440,9
DA:1441,9
DA:1442,9
DA:1443,9
DA:1444,9
DA:1445,9
DA:1447,9
DA:1450,9
DA:1451,9
DA:1452,9
DA:1453,9
DA:1454,9
DA:1455,9
DA:1456,9
DA:1457,9
DA:1458,9
DA:1459,9
DA:1460,9
DA:1461,9
DA:1462,9
DA:1463,9
DA:1464,9
DA:1465,9
DA:1466,9
DA:1467,9
DA:1468,9
DA:1469,9
DA:1470,9
DA:1471,9
DA:1472,9
DA:1473,9
DA:1474,9
DA:1475,9
DA:1476,9
DA:1477,9
DA:1478,9
DA:1479,9
DA:1480,9
DA:1481,9
DA:1482,9
DA:1483,9
DA:1484,9
DA:1485,9
DA:1486,9
DA:1487,9
DA:1488,9
DA:1489,9
DA:1490,9
DA:1491,9
DA:1492,9
DA:1493,9
DA:1494,9
DA:1495,9
DA:1496,9
DA:1497,9
DA:1498,9
DA:1499,9
DA:1500,9
DA:1501,9
DA:1502,9
DA:1503,9
DA:1504,9
DA:1505,9
DA:1506,9
DA:1507,9
DA:1508,9
DA:1509,9
DA:1510,9
DA:1511,9
DA:1512,9
DA:1513,9
DA:1514,9
DA:1515,9
DA:1516,9
DA:1517,9
DA:1518,9
DA:1519,9
DA:1520,9
DA:1521,9
DA:1522,9
DA:1523,9
DA:1524,9
DA:1525,9
DA:1526,9
DA:1527,9
DA:1528,9
DA:1529,9
DA:1530,9
DA:1531,9
DA:1532,9
DA:1533,9
DA:1534,9
DA:1535,9
DA:1536,9
DA:1537,9
DA:1538,9
DA:1539,9
DA:1541,9
DA:1544,9
DA:1545,9
DA:1546,9
DA:1547,9
DA:1548,9
DA:1549,9
DA:1550,9
DA:1551,9
DA:1552,9
DA:1553,9
DA:1554,9
DA:1555,9
DA:1556,9
DA:1557,9
DA:1558,9
DA:1559,9
DA:1560,9
DA:1561,9
DA:1562,9
DA:1563,9
DA:1564,9
DA:1565,9
DA:1566,9
DA:1567,9
DA:1568,9
DA:1569,9
DA:1570,9
DA:1571,9
DA:1572,9
DA:1573,9
DA:1574,9
DA:1575,9
DA:1576,9
DA:1577,9
DA:1578,9
DA:1579,9
DA:1580,9
DA:1581,9
DA:1582,9
DA:1583,9
DA:1584,9
DA:1585,9
DA:1586,9
DA:1587,9
DA:1588,9
DA:1589,9
DA:1590,9
DA:1591,9
DA:1592,9
DA:1593,9
DA:1594,9
DA:1595,9
DA:1597,9
DA:1600,9
DA:1601,9
DA:1602,9
DA:1603,9
DA:1604,9
DA:1605,9
DA:1606,9
DA:1607,9
DA:1608,9
DA:1609,9
DA:1610,9
DA:1611,9
DA:1612,9
DA:1613,9
DA:1614,9
DA:1615,9
DA:1616,9
DA:1617,9
DA:1618,9
DA:1619,9
DA:1620,9
DA:1621,9
DA:1622,9
DA:1623,9
DA:1624,9
DA:1625,9
DA:1626,9
DA:1627,9
DA:1628,9
DA:1629,9
DA:1630,9
DA:1631,9
DA:1632,9
DA:1633,9
DA:1634,9
DA:1635,9
DA:1636,9
DA:1637,9
DA:1638,9
DA:1639,9
DA:1640,9
DA:1641,9
DA:1642,9
DA:1643,9
DA:1644,9
DA:1645,9
DA:1646,9
DA:1647,9
DA:1648,9
DA:1649,9
DA:1650,9
DA:1651,9
DA:1652,9
DA:1653,9
DA:1654,9
DA:1655,9
DA:1657,9
DA:1660,9
DA:1661,9
DA:1662,9
DA:1663,9
DA:1664,9
DA:1665,9
DA:1666,9
DA:1667,9
DA:1668,9
DA:1669,9
DA:1670,9
DA:1671,9
DA:1672,9
DA:1673,9
DA:1674,9
DA:1675,9
DA:1676,9
DA:1677,9
DA:1678,9
DA:1679,9
DA:1680,9
DA:1681,9
DA:1682,9
DA:1683,9
DA:1684,9
DA:1685,9
DA:1686,9
DA:1687,9
DA:1688,9
DA:1689,9
DA:1690,9
DA:1691,9
DA:1692,9
DA:1693,9
DA:1694,9
DA:1695,9
DA:1696,9
DA:1697,9
DA:1698,9
DA:1699,9
DA:1700,9
DA:1701,9
DA:1702,9
DA:1703,9
DA:1704,9
DA:1705,9
DA:1706,9
DA:1707,9
DA:1708,9
DA:1709,9
DA:1710,9
DA:1711,9
DA:1712,9
DA:1713,9
DA:1714,9
DA:1715,9
DA:1716,9
DA:1717,9
DA:1718,9
DA:1719,9
DA:1720,9
DA:1721,9
DA:1722,9
DA:1723,9
DA:1724,9
DA:1725,9
DA:1726,9
DA:1727,9
DA:1728,9
DA:1729,9
DA:1730,9
DA:1731,9
DA:1732,9
DA:1733,9
DA:1734,9
DA:1735,9
DA:1737,9
DA:1740,9
DA:1741,9
DA:1742,9
DA:1743,9
DA:1744,9
DA:1745,9
DA:1746,9
DA:1747,9
DA:1748,9
DA:1749,9
DA:1750,9
DA:1751,9
DA:1752,9
DA:1753,9
DA:1754,9
DA:1755,9
DA:1756,9
DA:1757,9
DA:1758,9
DA:1759,9
DA:1760,9
DA:1761,9
DA:1762,9
DA:1763,9
DA:1764,9
DA:1765,9
DA:1766,9
DA:1767,9
DA:1768,9
DA:1769,9
DA:1770,9
DA:1771,9
DA:1772,9
DA:1773,9
DA:1774,9
DA:1775,9
DA:1776,9
DA:1777,9
DA:1778,9
DA:1779,9
DA:1780,9
DA:1781,9
DA:1782,9
DA:1783,9
DA:1784,9
DA:1785,9
DA:1786,9
DA:1787,9
DA:1788,9
DA:1789,9
DA:1790,9
DA:1791,9
DA:1793,9
DA:1796,9
DA:1797,9
DA:1798,9
DA:1799,9
DA:1800,9
DA:1801,9
DA:1802,9
DA:1803,9
DA:1804,9
DA:1805,9
DA:1806,9
DA:1807,9
DA:1808,9
DA:1809,9
DA:1810,9
DA:1817,38
DA:1818,38
DA:1819,36
DA:1821,2
DA:1822,2
DA:1823,2
DA:1824,2
DA:1826,38
BRF:0
BRH:0
LF:1541
LH:1375
end_of_record
SF:/Users/garthdb/Projects/rust-jira-mcp/src/mcp/tools.rs
FN:25,_RNvMNtNtCskhkPsqpzxNu_13rust_jira_mcp3mcp5toolsNtB2_12TestAuthTool3new
FN:133,_RNvMs0_NtNtCskhkPsqpzxNu_13rust_jira_mcp3mcp5toolsNtB5_15CreateIssueTool3new
FN:172,_RNvMs1_NtNtCskhkPsqpzxNu_13rust_jira_mcp3mcp5toolsNtB5_15UpdateIssueTool3new
FN:218,_RNvMs2_NtNtCskhkPsqpzxNu_13rust_jira_mcp3mcp5toolsNtB5_12GetIssueTool3new
FN:280,_RNvMs3_NtNtCskhkPsqpzxNu_13rust_jira_mcp3mcp5toolsNtB5_15GetCommentsTool3new
FN:334,_RNvMs4_NtNtCskhkPsqpzxNu_13rust_jira_mcp3mcp5toolsNtB5_14AddCommentTool3new
FN:383,_RNvMs5_NtNtCskhkPsqpzxNu_13rust_jira_mcp3mcp5toolsNtB5_18GetTransitionsTool3new
FN:436,_RNvMs6_NtNtCskhkPsqpzxNu_13rust_jira_mcp3mcp5toolsNtB5_19TransitionIssueTool3new
FN:491,_RNvMs7_NtNtCskhkPsqpzxNu_13rust_jira_mcp3mcp5toolsNtB5_20GetProjectConfigTool3new
FN:535,_RNvMs8_NtNtCskhkPsqpzxNu_13rust_jira_mcp3mcp5toolsNtB5_17GetIssueTypesTool3new
FN:592,_RNvMs9_NtNtCskhkPsqpzxNu_13rust_jira_mcp3mcp5toolsNtB5_24GetIssueTypeMetadataTool3new
FN:2264,_RNvMsA_NtNtCskhkPsqpzxNu_13rust_jira_mcp3mcp5toolsNtB5_15DeleteLabelTool3new
FN:2302,_RNvMsB_NtNtCskhkPsqpzxNu_13rust_jira_mcp3mcp5toolsNtB5_19CreateComponentTool3new
FN:2366,_RNvMsC_NtNtCskhkPsqpzxNu_13rust_jira_mcp3mcp5toolsNtB5_19UpdateComponentTool3new
FN:2429,_RNvMsD_NtNtCskhkPsqpzxNu_13rust_jira_mcp3mcp5toolsNtB5_19DeleteComponentTool3new
FN:2470,_RNvMsE_NtNtCskhkPsqpzxNu_13rust_jira_mcp3mcp5toolsNtB5_14CloneIssueTool3new
FN:62,_RNvMs_NtNtCskhkPsqpzxNu_13rust_jira_mcp3mcp5toolsNtB4_16SearchIssuesTool3new
FN:639,_RNvMsa_NtNtCskhkPsqpzxNu_13rust_jira_mcp3mcp5toolsNtB5_24GetProjectComponentsTool3new
FN:693,_RNvMsb_NtNtCskhkPsqpzxNu_13rust_jira_mcp3mcp5toolsNtB5_28GetPrioritiesAndStatusesTool3new
FN:760,_RNvMsc_NtNtCskhkPsqpzxNu_13rust_jira_mcp3mcp5toolsNtB5_19GetCustomFieldsTool3new
FN:825,_RNvMsd_NtNtCskhkPsqpzxNu_13rust_jira_mcp3mcp5toolsNtB5_22GetProjectMetadataTool3new
FN:874,_RNvMse_NtNtCskhkPsqpzxNu_13rust_jira_mcp3mcp5toolsNtB5_20BulkUpdateIssuesTool3new
FN:963,_RNvMsf_NtNtCskhkPsqpzxNu_13rust_jira_mcp3mcp5toolsNtB5_24BulkTransitionIssuesTool3new
FN:1066,_RNvMsg_NtNtCskhkPsqpzxNu_13rust_jira_mcp3mcp5toolsNtB5_19BulkAddCommentsTool3new
FN:1158,_RNvMsh_NtNtCskhkPsqpzxNu_13rust_jira_mcp3mcp5toolsNtB5_23MixedBulkOperationsTool3new
FN:1292,_RNvMsi_NtNtCskhkPsqpzxNu_13rust_jira_mcp3mcp5toolsNtB5_16GetLinkTypesTool3new
FN:1339,_RNvMsj_NtNtCskhkPsqpzxNu_13rust_jira_mcp3mcp5toolsNtB5_17GetIssueLinksTool3new
FN:1399,_RNvMsk_NtNtCskhkPsqpzxNu_13rust_jira_mcp3mcp5toolsNtB5_19CreateIssueLinkTool3new
FN:1461,_RNvMsl_NtNtCskhkPsqpzxNu_13rust_jira_mcp3mcp5toolsNtB5_19DeleteIssueLinkTool3new
FN:1502,_RNvMsm_NtNtCskhkPsqpzxNu_13rust_jira_mcp3mcp5toolsNtB5_23GetIssueAttachmentsTool3new
FN:1559,_RNvMsn_NtNtCskhkPsqpzxNu_13rust_jira_mcp3mcp5toolsNtB5_20UploadAttachmentTool3new
FN:1637,_RNvMso_NtNtCskhkPsqpzxNu_13rust_jira_mcp3mcp5toolsNtB5_20DeleteAttachmentTool3new
FN:1676,_RNvMsp_NtNtCskhkPsqpzxNu_13rust_jira_mcp3mcp5toolsNtB5_22DownloadAttachmentTool3new
FN:1723,_RNvMsq_NtNtCskhkPsqpzxNu_13rust_jira_mcp3mcp5toolsNtB5_20GetIssueWorkLogsTool3new
FN:1789,_RNvMsr_NtNtCskhkPsqpzxNu_13rust_jira_mcp3mcp5toolsNtB5_14AddWorkLogTool3new
FN:1854,_RNvMss_NtNtCskhkPsqpzxNu_13rust_jira_mcp3mcp5toolsNtB5_17UpdateWorkLogTool3new
FN:1923,_RNvMst_NtNtCskhkPsqpzxNu_13rust_jira_mcp3mcp5toolsNtB5_17DeleteWorkLogTool3new
FN:1972,_RNvMsu_NtNtCskhkPsqpzxNu_13rust_jira_mcp3mcp5toolsNtB5_20GetIssueWatchersTool3new
FN:2030,_RNvMsv_NtNtCskhkPsqpzxNu_13rust_jira_mcp3mcp5toolsNtB5_19AddIssueWatcherTool3new
FN:2077,_RNvMsw_NtNtCskhkPsqpzxNu_13rust_jira_mcp3mcp5toolsNtB5_22RemoveIssueWatcherTool3new
FN:2128,_RNvMsx_NtNtCskhkPsqpzxNu_13rust_jira_mcp3mcp5toolsNtB5_13GetLabelsTool3new
FN:2168,_RNvMsy_NtNtCskhkPsqpzxNu_13rust_jira_mcp3mcp5toolsNtB5_15CreateLabelTool3new
FN:2211,_RNvMsz_NtNtCskhkPsqpzxNu_13rust_jira_mcp3mcp5toolsNtB5_15UpdateLabelTool3new
FN:1348,_RNvXs10_NtNtCskhkPsqpzxNu_13rust_jira_mcp3mcp5toolsNtB6_17GetIssueLinksToolNtNtB8_6server14MCPToolHandler6handle
FN:1408,_RNvXs11_NtNtCskhkPsqpzxNu_13rust_jira_mcp3mcp5toolsNtB6_19CreateIssueLinkToolNtNtB8_6server14MCPToolHandler6handle
FN:1470,_RNvXs12_NtNtCskhkPsqpzxNu_13rust_jira_mcp3mcp5toolsNtB6_19DeleteIssueLinkToolNtNtB8_6server14MCPToolHandler6handle
FN:1511,_RNvXs13_NtNtCskhkPsqpzxNu_13rust_jira_mcp3mcp5toolsNtB6_23GetIssueAttachmentsToolNtNtB8_6server14MCPToolHandler6handle
FN:1568,_RNvXs14_NtNtCskhkPsqpzxNu_13rust_jira_mcp3mcp5toolsNtB6_20UploadAttachmentToolNtNtB8_6server14MCPToolHandler6handle
FN:1646,_RNvXs15_NtNtCskhkPsqpzxNu_13rust_jira_mcp3mcp5toolsNtB6_20DeleteAttachmentToolNtNtB8_6server14MCPToolHandler6handle
FN:1685,_RNvXs16_NtNtCskhkPsqpzxNu_13rust_jira_mcp3mcp5toolsNtB6_22DownloadAttachmentToolNtNtB8_6server14MCPToolHandler6handle
FN:1732,_RNvXs17_NtNtCskhkPsqpzxNu_13rust_jira_mcp3mcp5toolsNtB6_20GetIssueWorkLogsToolNtNtB8_6server14MCPToolHandler6handle
FN:1798,_RNvXs18_NtNtCskhkPsqpzxNu_13rust_jira_mcp3mcp5toolsNtB6_14AddWorkLogToolNtNtB8_6server14MCPToolHandler6handle
FN:1863,_RNvXs19_NtNtCskhkPsqpzxNu_13rust_jira_mcp3mcp5toolsNtB6_17UpdateWorkLogToolNtNtB8_6server14MCPToolHandler6handle
FN:1932,_RNvXs1a_NtNtCskhkPsqpzxNu_13rust_jira_mcp3mcp5toolsNtB6_17DeleteWorkLogToolNtNtB8_6server14MCPToolHandler6handle
FN:1981,_RNvXs1b_NtNtCskhkPsqpzxNu_13rust_jira_mcp3mcp5toolsNtB6_20GetIssueWatchersToolNtNtB8_6server14MCPToolHandler6handle
FN:2039,_RNvXs1c_NtNtCskhkPsqpzxNu_13rust_jira_mcp3mcp5toolsNtB6_19AddIssueWatcherToolNtNtB8_6server14MCPToolHandler6handle
FN:2086,_RNvXs1d_NtNtCskhkPsqpzxNu_13rust_jira_mcp3mcp5toolsNtB6_22RemoveIssueWatcherToolNtNtB8_6server14MCPToolHandler6handle
FN:2137,_RNvXs1e_NtNtCskhkPsqpzxNu_13rust_jira_mcp3mcp5toolsNtB6_13GetLabelsToolNtNtB8_6server14MCPToolHandler6handle
FN:2177,_RNvXs1f_NtNtCskhkPsqpzxNu_13rust_jira_mcp3mcp5toolsNtB6_15CreateLabelToolNtNtB8_6server14MCPToolHandler6handle
FN:2220,_RNvXs1g_NtNtCskhkPsqpzxNu_13rust_jira_mcp3mcp5toolsNtB6_15UpdateLabelToolNtNtB8_6server14MCPToolHandler6handle
FN:2273,_RNvXs1h_NtNtCskhkPsqpzxNu_13rust_jira_mcp3mcp5toolsNtB6_15DeleteLabelToolNtNtB8_6server14MCPToolHandler6handle
FN:2311,_RNvXs1i_NtNtCskhkPsqpzxNu_13rust_jira_mcp3mcp5toolsNtB6_19CreateComponentToolNtNtB8_6server14MCPToolHandler6handle
FN:2375,_RNvXs1j_NtNtCskhkPsqpzxNu_13rust_jira_mcp3mcp5toolsNtB6_19UpdateComponentToolNtNtB8_6server14MCPToolHandler6handle
FN:2438,_RNvXs1k_NtNtCskhkPsqpzxNu_13rust_jira_mcp3mcp5toolsNtB6_19DeleteComponentToolNtNtB8_6server14MCPToolHandler6handle
FN:2479,_RNvXs1l_NtNtCskhkPsqpzxNu_13rust_jira_mcp3mcp5toolsNtB6_14CloneIssueToolNtNtB8_6server14MCPToolHandler6handle
FN:32,_RNvXsF_NtNtCskhkPsqpzxNu_13rust_jira_mcp3mcp5toolsNtB5_12TestAuthToolNtNtB7_6server14MCPToolHandler6handle
FN:71,_RNvXsG_NtNtCskhkPsqpzxNu_13rust_jira_mcp3mcp5toolsNtB5_16SearchIssuesToolNtNtB7_6server14MCPToolHandler6handle
FN:142,_RNvXsH_NtNtCskhkPsqpzxNu_13rust_jira_mcp3mcp5toolsNtB5_15CreateIssueToolNtNtB7_6server14MCPToolHandler6handle
FN:181,_RNvXsI_NtNtCskhkPsqpzxNu_13rust_jira_mcp3mcp5toolsNtB5_15UpdateIssueToolNtNtB7_6server14MCPToolHandler6handle
FN:227,_RNvXsJ_NtNtCskhkPsqpzxNu_13rust_jira_mcp3mcp5toolsNtB5_12GetIssueToolNtNtB7_6server14MCPToolHandler6handle
FN:289,_RNvXsK_NtNtCskhkPsqpzxNu_13rust_jira_mcp3mcp5toolsNtB5_15GetCommentsToolNtNtB7_6server14MCPToolHandler6handle
FN:343,_RNvXsL_NtNtCskhkPsqpzxNu_13rust_jira_mcp3mcp5toolsNtB5_14AddCommentToolNtNtB7_6server14MCPToolHandler6handle
FN:392,_RNvXsM_NtNtCskhkPsqpzxNu_13rust_jira_mcp3mcp5toolsNtB5_18GetTransitionsToolNtNtB7_6server14MCPToolHandler6handle
FN:445,_RNvXsN_NtNtCskhkPsqpzxNu_13rust_jira_mcp3mcp5toolsNtB5_19TransitionIssueToolNtNtB7_6server14MCPToolHandler6handle
FN:500,_RNvXsO_NtNtCskhkPsqpzxNu_13rust_jira_mcp3mcp5toolsNtB5_20GetProjectConfigToolNtNtB7_6server14MCPToolHandler6handle
FN:544,_RNvXsP_NtNtCskhkPsqpzxNu_13rust_jira_mcp3mcp5toolsNtB5_17GetIssueTypesToolNtNtB7_6server14MCPToolHandler6handle
FN:601,_RNvXsQ_NtNtCskhkPsqpzxNu_13rust_jira_mcp3mcp5toolsNtB5_24GetIssueTypeMetadataToolNtNtB7_6server14MCPToolHandler6handle
FN:648,_RNvXsR_NtNtCskhkPsqpzxNu_13rust_jira_mcp3mcp5toolsNtB5_24GetProjectComponentsToolNtNtB7_6server14MCPToolHandler6handle
FN:702,_RNvXsS_NtNtCskhkPsqpzxNu_13rust_jira_mcp3mcp5toolsNtB5_28GetPrioritiesAndStatusesToolNtNtB7_6server14MCPToolHandler6handle
FN:769,_RNvXsT_NtNtCskhkPsqpzxNu_13rust_jira_mcp3mcp5toolsNtB5_19GetCustomFieldsToolNtNtB7_6server14MCPToolHandler6handle
FN:834,_RNvXsU_NtNtCskhkPsqpzxNu_13rust_jira_mcp3mcp5toolsNtB5_22GetProjectMetadataToolNtNtB7_6server14MCPToolHandler6handle
FN:883,_RNvXsV_NtNtCskhkPsqpzxNu_13rust_jira_mcp3mcp5toolsNtB5_20BulkUpdateIssuesToolNtNtB7_6server14MCPToolHandler6handle
FN:972,_RNvXsW_NtNtCskhkPsqpzxNu_13rust_jira_mcp3mcp5toolsNtB5_24BulkTransitionIssuesToolNtNtB7_6server14MCPToolHandler6handle
FN:1075,_RNvXsX_NtNtCskhkPsqpzxNu_13rust_jira_mcp3mcp5toolsNtB5_19BulkAddCommentsToolNtNtB7_6server14MCPToolHandler6handle
FN:1167,_RNvXsY_NtNtCskhkPsqpzxNu_13rust_jira_mcp3mcp5toolsNtB5_23MixedBulkOperationsToolNtNtB7_6server14MCPToolHandler6handle
FN:1301,_RNvXsZ_NtNtCskhkPsqpzxNu_13rust_jira_mcp3mcp5toolsNtB5_16GetLinkTypesToolNtNtB7_6server14MCPToolHandler6handle
FN:1351,_RNCNCNvXs10_NtNtCskhkPsqpzxNu_13rust_jira_mcp3mcp5toolsNtBa_17GetIssueLinksToolNtNtBc_6server14MCPToolHandler6handle00Be_
FN:1366,_RNCNCNvXs10_NtNtCskhkPsqpzxNu_13rust_jira_mcp3mcp5toolsNtBa_17GetIssueLinksToolNtNtBc_6server14MCPToolHandler6handle0s0_0Be_
FN:1370,_RNCNCNvXs10_NtNtCskhkPsqpzxNu_13rust_jira_mcp3mcp5toolsNtBa_17GetIssueLinksToolNtNtBc_6server14MCPToolHandler6handle0s1_0Be_
FN:1352,_RNCNCNvXs10_NtNtCskhkPsqpzxNu_13rust_jira_mcp3mcp5toolsNtBa_17GetIssueLinksToolNtNtBc_6server14MCPToolHandler6handle0s_0Be_
FN:1411,_RNCNCNvXs11_NtNtCskhkPsqpzxNu_13rust_jira_mcp3mcp5toolsNtBa_19CreateIssueLinkToolNtNtBc_6server14MCPToolHandler6handle00Be_
FN:1418,_RNCNCNvXs11_NtNtCskhkPsqpzxNu_13rust_jira_mcp3mcp5toolsNtBa_19CreateIssueLinkToolNtNtBc_6server14MCPToolHandler6handle0s0_0Be_
FN:1419,_RNCNCNvXs11_NtNtCskhkPsqpzxNu_13rust_jira_mcp3mcp5toolsNtBa_19CreateIssueLinkToolNtNtBc_6server14MCPToolHandler6handle0s1_0Be_
FN:1425,_RNCNCNvXs11_NtNtCskhkPsqpzxNu_13rust_jira_mcp3mcp5toolsNtBa_19CreateIssueLinkToolNtNtBc_6server14MCPToolHandler6handle0s2_0Be_
FN:1426,_RNCNCNvXs11_NtNtCskhkPsqpzxNu_13rust_jira_mcp3mcp5toolsNtBa_19CreateIssueLinkToolNtNtBc_6server14MCPToolHandler6handle0s3_0Be_
FN:1430,_RNCNCNvXs11_NtNtCskhkPsqpzxNu_13rust_jira_mcp3mcp5toolsNtBa_19CreateIssueLinkToolNtNtBc_6server14MCPToolHandler6handle0s4_0Be_
FN:1412,_RNCNCNvXs11_NtNtCskhkPsqpzxNu_13rust_jira_mcp3mcp5toolsNtBa_19CreateIssueLinkToolNtNtBc_6server14MCPToolHandler6handle0s_0Be_
FN:1473,_RNCNCNvXs12_NtNtCskhkPsqpzxNu_13rust_jira_mcp3mcp5toolsNtBa_19DeleteIssueLinkToolNtNtBc_6server14MCPToolHandler6handle00Be_
FN:1474,_RNCNCNvXs12_NtNtCskhkPsqpzxNu_13rust_jira_mcp3mcp5toolsNtBa_19DeleteIssueLinkToolNtNtBc_6server14MCPToolHandler6handle0s_0Be_
FN:1514,_RNCNCNvXs13_NtNtCskhkPsqpzxNu_13rust_jira_mcp3mcp5toolsNtBa_23GetIssueAttachmentsToolNtNtBc_6server14MCPToolHandler6handle00Be_
FN:1515,_RNCNCNvXs13_NtNtCskhkPsqpzxNu_13rust_jira_mcp3mcp5toolsNtBa_23GetIssueAttachmentsToolNtNtBc_6server14MCPToolHandler6handle0s_0Be_
FN:1571,_RNCNCNvXs14_NtNtCskhkPsqpzxNu_13rust_jira_mcp3mcp5toolsNtBa_20UploadAttachmentToolNtNtBc_6server14MCPToolHandler6handle00Be_
FN:1578,_RNCNCNvXs14_NtNtCskhkPsqpzxNu_13rust_jira_mcp3mcp5toolsNtBa_20UploadAttachmentToolNtNtBc_6server14MCPToolHandler6handle0s0_0Be_
FN:1579,_RNCNCNvXs14_NtNtCskhkPsqpzxNu_13rust_jira_mcp3mcp5toolsNtBa_20UploadAttachmentToolNtNtBc_6server14MCPToolHandler6handle0s1_0Be_
FN:1585,_RNCNCNvXs14_NtNtCskhkPsqpzxNu_13rust_jira_mcp3mcp5toolsNtBa_20UploadAttachmentToolNtNtBc_6server14MCPToolHandler6handle0s2_0Be_
FN:1586,_RNCNCNvXs14_NtNtCskhkPsqpzxNu_13rust_jira_mcp3mcp5toolsNtBa_20UploadAttachmentToolNtNtBc_6server14MCPToolHandler6handle0s3_0Be_
FN:1592,_RNCNCNvXs14_NtNtCskhkPsqpzxNu_13rust_jira_mcp3mcp5toolsNtBa_20UploadAttachmentToolNtNtBc_6server14MCPToolHandler6handle0s4_0Be_
FN:1595,_RNCNCNvXs14_NtNtCskhkPsqpzxNu_13rust_jira_mcp3mcp5toolsNtBa_20UploadAttachmentToolNtNtBc_6server14MCPToolHandler6handle0s5_0Be_
FN:1572,_RNCNCNvXs14_NtNtCskhkPsqpzxNu_13rust_jira_mcp3mcp5toolsNtBa_20UploadAttachmentToolNtNtBc_6server14MCPToolHandler6handle0s_0Be_
FN:1649,_RNCNCNvXs15_NtNtCskhkPsqpzxNu_13rust_jira_mcp3mcp5toolsNtBa_20DeleteAttachmentToolNtNtBc_6server14MCPToolHandler6handle00Be_
FN:1650,_RNCNCNvXs15_NtNtCskhkPsqpzxNu_13rust_jira_mcp3mcp5toolsNtBa_20DeleteAttachmentToolNtNtBc_6server14MCPToolHandler6handle0s_0Be_
FN:1688,_RNCNCNvXs16_NtNtCskhkPsqpzxNu_13rust_jira_mcp3mcp5toolsNtBa_22DownloadAttachmentToolNtNtBc_6server14MCPToolHandler6handle00Be_
FN:1689,_RNCNCNvXs16_NtNtCskhkPsqpzxNu_13rust_jira_mcp3mcp5toolsNtBa_22DownloadAttachmentToolNtNtBc_6server14MCPToolHandler6handle0s_0Be_
FN:1735,_RNCNCNvXs17_NtNtCskhkPsqpzxNu_13rust_jira_mcp3mcp5toolsNtBa_20GetIssueWorkLogsToolNtNtBc_6server14MCPToolHandler6handle00Be_
FN:1736,_RNCNCNvXs17_NtNtCskhkPsqpzxNu_13rust_jira_mcp3mcp5toolsNtBa_20GetIssueWorkLogsToolNtNtBc_6server14MCPToolHandler6handle0s_0Be_
FN:1801,_RNCNCNvXs18_NtNtCskhkPsqpzxNu_13rust_jira_mcp3mcp5toolsNtBa_14AddWorkLogToolNtNtBc_6server14MCPToolHandler6handle00Be_
FN:1808,_RNCNCNvXs18_NtNtCskhkPsqpzxNu_13rust_jira_mcp3mcp5toolsNtBa_14AddWorkLogToolNtNtBc_6server14MCPToolHandler6handle0s0_0Be_
FN:1809,_RNCNCNvXs18_NtNtCskhkPsqpzxNu_13rust_jira_mcp3mcp5toolsNtBa_14AddWorkLogToolNtNtBc_6server14MCPToolHandler6handle0s1_0Be_
FN:1813,_RNCNCNvXs18_NtNtCskhkPsqpzxNu_13rust_jira_mcp3mcp5toolsNtBa_14AddWorkLogToolNtNtBc_6server14MCPToolHandler6handle0s2_0Be_
FN:1814,_RNCNCNvXs18_NtNtCskhkPsqpzxNu_13rust_jira_mcp3mcp5toolsNtBa_14AddWorkLogToolNtNtBc_6server14MCPToolHandler6handle0s3_0Be_
FN:1802,_RNCNCNvXs18_NtNtCskhkPsqpzxNu_13rust_jira_mcp3mcp5toolsNtBa_14AddWorkLogToolNtNtBc_6server14MCPToolHandler6handle0s_0Be_
FN:1866,_RNCNCNvXs19_NtNtCskhkPsqpzxNu_13rust_jira_mcp3mcp5toolsNtBa_17UpdateWorkLogToolNtNtBc_6server14MCPToolHandler6handle00Be_
FN:1873,_RNCNCNvXs19_NtNtCskhkPsqpzxNu_13rust_jira_mcp3mcp5toolsNtBa_17UpdateWorkLogToolNtNtBc_6server14MCPToolHandler6handle0s0_0Be_
FN:1874,_RNCNCNvXs19_NtNtCskhkPsqpzxNu_13rust_jira_mcp3mcp5toolsNtBa_17UpdateWorkLogToolNtNtBc_6server14MCPToolHandler6handle0s1_0Be_
FN:1878,_RNCNCNvXs19_NtNtCskhkPsqpzxNu_13rust_jira_mcp3mcp5toolsNtBa_17UpdateWorkLogToolNtNtBc_6server14MCPToolHandler6handle0s2_0Be_
FN:1879,_RNCNCNvXs19_NtNtCskhkPsqpzxNu_13rust_jira_mcp3mcp5toolsNtBa_17UpdateWorkLogToolNtNtBc_6server14MCPToolHandler6handle0s3_0Be_
FN:1880,_RNCNCNvXs19_NtNtCskhkPsqpzxNu_13rust_jira_mcp3mcp5toolsNtBa_17UpdateWorkLogToolNtNtBc_6server14MCPToolHandler6handle0s4_0Be_
FN:1867,_RNCNCNvXs19_NtNtCskhkPsqpzxNu_13rust_jira_mcp3mcp5toolsNtBa_17UpdateWorkLogToolNtNtBc_6server14MCPToolHandler6handle0s_0Be_
FN:1935,_RNCNCNvXs1a_NtNtCskhkPsqpzxNu_13rust_jira_mcp3mcp5toolsNtBa_17DeleteWorkLogToolNtNtBc_6server14MCPToolHandler6handle00Be_
FN:1942,_RNCNCNvXs1a_NtNtCskhkPsqpzxNu_13rust_jira_mcp3mcp5toolsNtBa_17DeleteWorkLogToolNtNtBc_6server14MCPToolHandler6handle0s0_0Be_
FN:1943,_RNCNCNvXs1a_NtNtCskhkPsqpzxNu_13rust_jira_mcp3mcp5toolsNtBa_17DeleteWorkLogToolNtNtBc_6server14MCPToolHandler6handle0s1_0Be_
FN:1936,_RNCNCNvXs1a_NtNtCskhkPsqpzxNu_13rust_jira_mcp3mcp5toolsNtBa_17DeleteWorkLogToolNtNtBc_6server14MCPToolHandler6handle0s_0Be_
FN:1984,_RNCNCNvXs1b_NtNtCskhkPsqpzxNu_13rust_jira_mcp3mcp5toolsNtBa_20GetIssueWatchersToolNtNtBc_6server14MCPToolHandler6handle00Be_
FN:1985,_RNCNCNvXs1b_NtNtCskhkPsqpzxNu_13rust_jira_mcp3mcp5toolsNtBa_20GetIssueWatchersToolNtNtBc_6server14MCPToolHandler6handle0s_0Be_
FN:2042,_RNCNCNvXs1c_NtNtCskhkPsqpzxNu_13rust_jira_mcp3mcp5toolsNtBa_19AddIssueWatcherToolNtNtBc_6server14MCPToolHandler6handle00Be_
FN:2049,_RNCNCNvXs1c_NtNtCskhkPsqpzxNu_13rust_jira_mcp3mcp5toolsNtBa_19AddIssueWatcherToolNtNtBc_6server14MCPToolHandler6handle0s0_0Be_
FN:2050,_RNCNCNvXs1c_NtNtCskhkPsqpzxNu_13rust_jira_mcp3mcp5toolsNtBa_19AddIssueWatcherToolNtNtBc_6server14MCPToolHandler6handle0s1_0Be_
FN:2043,_RNCNCNvXs1c_NtNtCskhkPsqpzxNu_13rust_jira_mcp3mcp5toolsNtBa_19AddIssueWatcherToolNtNtBc_6server14MCPToolHandler6handle0s_0Be_
FN:2089,_RNCNCNvXs1d_NtNtCskhkPsqpzxNu_13rust_jira_mcp3mcp5toolsNtBa_22RemoveIssueWatcherToolNtNtBc_6server14MCPToolHandler6handle00Be_
FN:2096,_RNCNCNvXs1d_NtNtCskhkPsqpzxNu_13rust_jira_mcp3mcp5toolsNtBa_22RemoveIssueWatcherToolNtNtBc_6server14MCPToolHandler6handle0s0_0Be_
FN:2097,_RNCNCNvXs1d_NtNtCskhkPsqpzxNu_13rust_jira_mcp3mcp5toolsNtBa_22RemoveIssueWatcherToolNtNtBc_6server14MCPToolHandler6handle0s1_0Be_
FN:2090,_RNCNCNvXs1d_NtNtCskhkPsqpzxNu_13rust_jira_mcp3mcp5toolsNtBa_22RemoveIssueWatcherToolNtNtBc_6server14MCPToolHandler6handle0s_0Be_
FN:2178,_RNCNCNvXs1f_NtNtCskhkPsqpzxNu_13rust_jira_mcp3mcp5toolsNtBa_15CreateLabelToolNtNtBc_6server14MCPToolHandler6handle00Be_
FN:2178,_RNCNCNvXs1f_NtNtCskhkPsqpzxNu_13rust_jira_mcp3mcp5toolsNtBa_15CreateLabelToolNtNtBc_6server14MCPToolHandler6handle0s_0Be_
FN:2223,_RNCNCNvXs1g_NtNtCskhkPsqpzxNu_13rust_jira_mcp3mcp5toolsNtBa_15UpdateLabelToolNtNtBc_6server14MCPToolHandler6handle00Be_
FN:2230,_RNCNCNvXs1g_NtNtCskhkPsqpzxNu_13rust_jira_mcp3mcp5toolsNtBa_15UpdateLabelToolNtNtBc_6server14MCPToolHandler6handle0s0_0Be_
FN:2231,_RNCNCNvXs1g_NtNtCskhkPsqpzxNu_13rust_jira_mcp3mcp5toolsNtBa_15UpdateLabelToolNtNtBc_6server14MCPToolHandler6handle0s1_0Be_
FN:2224,_RNCNCNvXs1g_NtNtCskhkPsqpzxNu_13rust_jira_mcp3mcp5toolsNtBa_15UpdateLabelToolNtNtBc_6server14MCPToolHandler6handle0s_0Be_
FN:2274,_RNCNCNvXs1h_NtNtCskhkPsqpzxNu_13rust_jira_mcp3mcp5toolsNtBa_15DeleteLabelToolNtNtBc_6server14MCPToolHandler6handle00Be_
FN:2274,_RNCNCNvXs1h_NtNtCskhkPsqpzxNu_13rust_jira_mcp3mcp5toolsNtBa_15DeleteLabelToolNtNtBc_6server14MCPToolHandler6handle0s_0Be_
FN:2312,_RNCNCNvXs1i_NtNtCskhkPsqpzxNu_13rust_jira_mcp3mcp5toolsNtBa_19CreateComponentToolNtNtBc_6server14MCPToolHandler6handle00Be_
FN:2318,_RNCNCNvXs1i_NtNtCskhkPsqpzxNu_13rust_jira_mcp3mcp5toolsNtBa_19CreateComponentToolNtNtBc_6server14MCPToolHandler6handle0s0_0Be_
FN:2319,_RNCNCNvXs1i_NtNtCskhkPsqpzxNu_13rust_jira_mcp3mcp5toolsNtBa_19CreateComponentToolNtNtBc_6server14MCPToolHandler6handle0s1_0Be_
FN:2323,_RNCNCNvXs1i_NtNtCskhkPsqpzxNu_13rust_jira_mcp3mcp5toolsNtBa_19CreateComponentToolNtNtBc_6server14MCPToolHandler6handle0s2_0Be_
FN:2324,_RNCNCNvXs1i_NtNtCskhkPsqpzxNu_13rust_jira_mcp3mcp5toolsNtBa_19CreateComponentToolNtNtBc_6server14MCPToolHandler6handle0s3_0Be_
FN:2325,_RNCNCNvXs1i_NtNtCskhkPsqpzxNu_13rust_jira_mcp3mcp5toolsNtBa_19CreateComponentToolNtNtBc_6server14MCPToolHandler6handle0s4_0Be_
FN:2312,_RNCNCNvXs1i_NtNtCskhkPsqpzxNu_13rust_jira_mcp3mcp5toolsNtBa_19CreateComponentToolNtNtBc_6server14MCPToolHandler6handle0s_0Be_
FN:2378,_RNCNCNvXs1j_NtNtCskhkPsqpzxNu_13rust_jira_mcp3mcp5toolsNtBa_19UpdateComponentToolNtNtBc_6server14MCPToolHandler6handle00Be_
FN:2383,_RNCNCNvXs1j_NtNtCskhkPsqpzxNu_13rust_jira_mcp3mcp5toolsNtBa_19UpdateComponentToolNtNtBc_6server14MCPToolHandler6handle0s0_0Be_
FN:2384,_RNCNCNvXs1j_NtNtCskhkPsqpzxNu_13rust_jira_mcp3mcp5toolsNtBa_19UpdateComponentToolNtNtBc_6server14MCPToolHandler6handle0s1_0Be_
FN:2385,_RNCNCNvXs1j_NtNtCskhkPsqpzxNu_13rust_jira_mcp3mcp5toolsNtBa_19UpdateComponentToolNtNtBc_6server14MCPToolHandler6handle0s2_0Be_
FN:2386,_RNCNCNvXs1j_NtNtCskhkPsqpzxNu_13rust_jira_mcp3mcp5toolsNtBa_19UpdateComponentToolNtNtBc_6server14MCPToolHandler6handle0s3_0Be_
FN:2379,_RNCNCNvXs1j_NtNtCskhkPsqpzxNu_13rust_jira_mcp3mcp5toolsNtBa_19UpdateComponentToolNtNtBc_6server14MCPToolHandler6handle0s_0Be_
FN:2441,_RNCNCNvXs1k_NtNtCskhkPsqpzxNu_13rust_jira_mcp3mcp5toolsNtBa_19DeleteComponentToolNtNtBc_6server14MCPToolHandler6handle00Be_
FN:2442,_RNCNCNvXs1k_NtNtCskhkPsqpzxNu_13rust_jira_mcp3mcp5toolsNtBa_19DeleteComponentToolNtNtBc_6server14MCPToolHandler6handle0s_0Be_
FN:2482,_RNCNCNvXs1l_NtNtCskhkPsqpzxNu_13rust_jira_mcp3mcp5toolsNtBa_14CloneIssueToolNtNtBc_6server14MCPToolHandler6handle00Be_
FN:2489,_RNCNCNvXs1l_NtNtCskhkPsqpzxNu_13rust_jira_mcp3mcp5toolsNtBa_14CloneIssueToolNtNtBc_6server14MCPToolHandler6handle0s0_0Be_
FN:2490,_RNCNCNvXs1l_NtNtCskhkPsqpzxNu_13rust_jira_mcp3mcp5toolsNtBa_14CloneIssueToolNtNtBc_6server14MCPToolHandler6handle0s1_0Be_
FN:2496,_RNCNCNvXs1l_NtNtCskhkPsqpzxNu_13rust_jira_mcp3mcp5toolsNtBa_14CloneIssueToolNtNtBc_6server14MCPToolHandler6handle0s2_0Be_
FN:2497,_RNCNCNvXs1l_NtNtCskhkPsqpzxNu_13rust_jira_mcp3mcp5toolsNtBa_14CloneIssueToolNtNtBc_6server14MCPToolHandler6handle0s3_0Be_
FN:2503,_RNCNCNvXs1l_NtNtCskhkPsqpzxNu_13rust_jira_mcp3mcp5toolsNtBa_14CloneIssueToolNtNtBc_6server14MCPToolHandler6handle0s4_0Be_
FN:2504,_RNCNCNvXs1l_NtNtCskhkPsqpzxNu_13rust_jira_mcp3mcp5toolsNtBa_14CloneIssueToolNtNtBc_6server14MCPToolHandler6handle0s5_0Be_
FN:2508,_RNCNCNvXs1l_NtNtCskhkPsqpzxNu_13rust_jira_mcp3mcp5toolsNtBa_14CloneIssueToolNtNtBc_6server14MCPToolHandler6handle0s6_0Be_
FN:2483,_RNCNCNvXs1l_NtNtCskhkPsqpzxNu_13rust_jira_mcp3mcp5toolsNtBa_14CloneIssueToolNtNtBc_6server14MCPToolHandler6handle0s_0Be_
FN:74,_RNCNCNvXsG_NtNtCskhkPsqpzxNu_13rust_jira_mcp3mcp5toolsNtB9_16SearchIssuesToolNtNtBb_6server14MCPToolHandler6handle00Bd_
FN:80,_RNCNCNvXsG_NtNtCskhkPsqpzxNu_13rust_jira_mcp3mcp5toolsNtB9_16SearchIssuesToolNtNtBb_6server14MCPToolHandler6handle0s0_0Bd_
FN:85,_RNCNCNvXsG_NtNtCskhkPsqpzxNu_13rust_jira_mcp3mcp5toolsNtB9_16SearchIssuesToolNtNtBb_6server14MCPToolHandler6handle0s1_0Bd_
FN:111,_RNCNCNvXsG_NtNtCskhkPsqpzxNu_13rust_jira_mcp3mcp5toolsNtB9_16SearchIssuesToolNtNtBb_6server14MCPToolHandler6handle0s3_0Bd_
FN:75,_RNCNCNvXsG_NtNtCskhkPsqpzxNu_13rust_jira_mcp3mcp5toolsNtB9_16SearchIssuesToolNtNtBb_6server14MCPToolHandler6handle0s_0Bd_
FN:143,_RNCNCNvXsH_NtNtCskhkPsqpzxNu_13rust_jira_mcp3mcp5toolsNtB9_15CreateIssueToolNtNtBb_6server14MCPToolHandler6handle00Bd_
FN:184,_RNCNCNvXsI_NtNtCskhkPsqpzxNu_13rust_jira_mcp3mcp5toolsNtB9_15UpdateIssueToolNtNtBb_6server14MCPToolHandler6handle00Bd_
FN:189,_RNCNCNvXsI_NtNtCskhkPsqpzxNu_13rust_jira_mcp3mcp5toolsNtB9_15UpdateIssueToolNtNtBb_6server14MCPToolHandler6handle0s0_0Bd_
FN:185,_RNCNCNvXsI_NtNtCskhkPsqpzxNu_13rust_jira_mcp3mcp5toolsNtB9_15UpdateIssueToolNtNtBb_6server14MCPToolHandler6handle0s_0Bd_
FN:230,_RNCNCNvXsJ_NtNtCskhkPsqpzxNu_13rust_jira_mcp3mcp5toolsNtB9_12GetIssueToolNtNtBb_6server14MCPToolHandler6handle00Bd_
FN:242,_RNCNCNvXsJ_NtNtCskhkPsqpzxNu_13rust_jira_mcp3mcp5toolsNtB9_12GetIssueToolNtNtBb_6server14MCPToolHandler6handle0s0_0Bd_
FN:248,_RNCNCNvXsJ_NtNtCskhkPsqpzxNu_13rust_jira_mcp3mcp5toolsNtB9_12GetIssueToolNtNtBb_6server14MCPToolHandler6handle0s1_0Bd_
FN:249,_RNCNCNvXsJ_NtNtCskhkPsqpzxNu_13rust_jira_mcp3mcp5toolsNtB9_12GetIssueToolNtNtBb_6server14MCPToolHandler6handle0s2_0Bd_
FN:255,_RNCNCNvXsJ_NtNtCskhkPsqpzxNu_13rust_jira_mcp3mcp5toolsNtB9_12GetIssueToolNtNtBb_6server14MCPToolHandler6handle0s3_0Bd_
FN:256,_RNCNCNvXsJ_NtNtCskhkPsqpzxNu_13rust_jira_mcp3mcp5toolsNtB9_12GetIssueToolNtNtBb_6server14MCPToolHandler6handle0s4_0Bd_
FN:231,_RNCNCNvXsJ_NtNtCskhkPsqpzxNu_13rust_jira_mcp3mcp5toolsNtB9_12GetIssueToolNtNtBb_6server14MCPToolHandler6handle0s_0Bd_
FN:292,_RNCNCNvXsK_NtNtCskhkPsqpzxNu_13rust_jira_mcp3mcp5toolsNtB9_15GetCommentsToolNtNtBb_6server14MCPToolHandler6handle00Bd_
FN:293,_RNCNCNvXsK_NtNtCskhkPsqpzxNu_13rust_jira_mcp3mcp5toolsNtB9_15GetCommentsToolNtNtBb_6server14MCPToolHandler6handle0s_0Bd_
FN:346,_RNCNCNvXsL_NtNtCskhkPsqpzxNu_13rust_jira_mcp3mcp5toolsNtB9_14AddCommentToolNtNtBb_6server14MCPToolHandler6handle00Bd_
FN:353,_RNCNCNvXsL_NtNtCskhkPsqpzxNu_13rust_jira_mcp3mcp5toolsNtB9_14AddCommentToolNtNtBb_6server14MCPToolHandler6handle0s0_0Bd_
FN:354,_RNCNCNvXsL_NtNtCskhkPsqpzxNu_13rust_jira_mcp3mcp5toolsNtB9_14AddCommentToolNtNtBb_6server14MCPToolHandler6handle0s1_0Bd_
FN:347,_RNCNCNvXsL_NtNtCskhkPsqpzxNu_13rust_jira_mcp3mcp5toolsNtB9_14AddCommentToolNtNtBb_6server14MCPToolHandler6handle0s_0Bd_
FN:395,_RNCNCNvXsM_NtNtCskhkPsqpzxNu_13rust_jira_mcp3mcp5toolsNtB9_18GetTransitionsToolNtNtBb_6server14MCPToolHandler6handle00Bd_
FN:396,_RNCNCNvXsM_NtNtCskhkPsqpzxNu_13rust_jira_mcp3mcp5toolsNtB9_18GetTransitionsToolNtNtBb_6server14MCPToolHandler6handle0s_0Bd_
FN:448,_RNCNCNvXsN_NtNtCskhkPsqpzxNu_13rust_jira_mcp3mcp5toolsNtB9_19TransitionIssueToolNtNtBb_6server14MCPToolHandler6handle00Bd_
FN:455,_RNCNCNvXsN_NtNtCskhkPsqpzxNu_13rust_jira_mcp3mcp5toolsNtB9_19TransitionIssueToolNtNtBb_6server14MCPToolHandler6handle0s0_0Bd_
FN:456,_RNCNCNvXsN_NtNtCskhkPsqpzxNu_13rust_jira_mcp3mcp5toolsNtB9_19TransitionIssueToolNtNtBb_6server14MCPToolHandler6handle0s1_0Bd_
FN:460,_RNCNCNvXsN_NtNtCskhkPsqpzxNu_13rust_jira_mcp3mcp5toolsNtB9_19TransitionIssueToolNtNtBb_6server14MCPToolHandler6handle0s2_0Bd_
FN:449,_RNCNCNvXsN_NtNtCskhkPsqpzxNu_13rust_jira_mcp3mcp5toolsNtB9_19TransitionIssueToolNtNtBb_6server14MCPToolHandler6handle0s_0Bd_
FN:503,_RNCNCNvXsO_NtNtCskhkPsqpzxNu_13rust_jira_mcp3mcp5toolsNtB9_20GetProjectConfigToolNtNtBb_6server14MCPToolHandler6handle00Bd_
FN:516,_RNCNCNvXsO_NtNtCskhkPsqpzxNu_13rust_jira_mcp3mcp5toolsNtB9_20GetProjectConfigToolNtNtBb_6server14MCPToolHandler6handle0s1_0Bd_
FN:504,_RNCNCNvXsO_NtNtCskhkPsqpzxNu_13rust_jira_mcp3mcp5toolsNtB9_20GetProjectConfigToolNtNtBb_6server14MCPToolHandler6handle0s_0Bd_
FN:547,_RNCNCNvXsP_NtNtCskhkPsqpzxNu_13rust_jira_mcp3mcp5toolsNtB9_17GetIssueTypesToolNtNtBb_6server14MCPToolHandler6handle00Bd_
FN:548,_RNCNCNvXsP_NtNtCskhkPsqpzxNu_13rust_jira_mcp3mcp5toolsNtB9_17GetIssueTypesToolNtNtBb_6server14MCPToolHandler6handle0s_0Bd_
FN:604,_RNCNCNvXsQ_NtNtCskhkPsqpzxNu_13rust_jira_mcp3mcp5toolsNtB9_24GetIssueTypeMetadataToolNtNtBb_6server14MCPToolHandler6handle00Bd_
FN:605,_RNCNCNvXsQ_NtNtCskhkPsqpzxNu_13rust_jira_mcp3mcp5toolsNtB9_24GetIssueTypeMetadataToolNtNtBb_6server14MCPToolHandler6handle0s_0Bd_
FN:651,_RNCNCNvXsR_NtNtCskhkPsqpzxNu_13rust_jira_mcp3mcp5toolsNtB9_24GetProjectComponentsToolNtNtBb_6server14MCPToolHandler6handle00Bd_
FN:652,_RNCNCNvXsR_NtNtCskhkPsqpzxNu_13rust_jira_mcp3mcp5toolsNtB9_24GetProjectComponentsToolNtNtBb_6server14MCPToolHandler6handle0s_0Bd_
FN:782,_RNCNCNvXsT_NtNtCskhkPsqpzxNu_13rust_jira_mcp3mcp5toolsNtB9_19GetCustomFieldsToolNtNtBb_6server14MCPToolHandler6handle00Bd_
FN:790,_RNCNCNvXsT_NtNtCskhkPsqpzxNu_13rust_jira_mcp3mcp5toolsNtB9_19GetCustomFieldsToolNtNtBb_6server14MCPToolHandler6handle0s0_0Bd_
FN:791,_RNCNCNvXsT_NtNtCskhkPsqpzxNu_13rust_jira_mcp3mcp5toolsNtB9_19GetCustomFieldsToolNtNtBb_6server14MCPToolHandler6handle0s1_0Bd_
FN:786,_RNCNCNvXsT_NtNtCskhkPsqpzxNu_13rust_jira_mcp3mcp5toolsNtB9_19GetCustomFieldsToolNtNtBb_6server14MCPToolHandler6handle0s_0Bd_
FN:837,_RNCNCNvXsU_NtNtCskhkPsqpzxNu_13rust_jira_mcp3mcp5toolsNtB9_22GetProjectMetadataToolNtNtBb_6server14MCPToolHandler6handle00Bd_
FN:853,_RNCNCNvXsU_NtNtCskhkPsqpzxNu_13rust_jira_mcp3mcp5toolsNtB9_22GetProjectMetadataToolNtNtBb_6server14MCPToolHandler6handle0s1_0Bd_
FN:838,_RNCNCNvXsU_NtNtCskhkPsqpzxNu_13rust_jira_mcp3mcp5toolsNtB9_22GetProjectMetadataToolNtNtBb_6server14MCPToolHandler6handle0s_0Bd_
FN:886,_RNCNCNvXsV_NtNtCskhkPsqpzxNu_13rust_jira_mcp3mcp5toolsNtB9_20BulkUpdateIssuesToolNtNtBb_6server14MCPToolHandler6handle00Bd_
FN:893,_RNCNCNvXsV_NtNtCskhkPsqpzxNu_13rust_jira_mcp3mcp5toolsNtB9_20BulkUpdateIssuesToolNtNtBb_6server14MCPToolHandler6handle0s0_0Bd_
FN:907,_RNCNCNvXsV_NtNtCskhkPsqpzxNu_13rust_jira_mcp3mcp5toolsNtB9_20BulkUpdateIssuesToolNtNtBb_6server14MCPToolHandler6handle0s1_0Bd_
FN:938,_RNCNCNvXsV_NtNtCskhkPsqpzxNu_13rust_jira_mcp3mcp5toolsNtB9_20BulkUpdateIssuesToolNtNtBb_6server14MCPToolHandler6handle0s3_0Bd_
FN:887,_RNCNCNvXsV_NtNtCskhkPsqpzxNu_13rust_jira_mcp3mcp5toolsNtB9_20BulkUpdateIssuesToolNtNtBb_6server14MCPToolHandler6handle0s_0Bd_
FN:975,_RNCNCNvXsW_NtNtCskhkPsqpzxNu_13rust_jira_mcp3mcp5toolsNtB9_24BulkTransitionIssuesToolNtNtBb_6server14MCPToolHandler6handle00Bd_
FN:984,_RNCNCNvXsW_NtNtCskhkPsqpzxNu_13rust_jira_mcp3mcp5toolsNtB9_24BulkTransitionIssuesToolNtNtBb_6server14MCPToolHandler6handle0s0_0Bd_
FN:985,_RNCNCNvXsW_NtNtCskhkPsqpzxNu_13rust_jira_mcp3mcp5toolsNtB9_24BulkTransitionIssuesToolNtNtBb_6server14MCPToolHandler6handle0s1_0Bd_
FN:989,_RNCNCNvXsW_NtNtCskhkPsqpzxNu_13rust_jira_mcp3mcp5toolsNtB9_24BulkTransitionIssuesToolNtNtBb_6server14MCPToolHandler6handle0s2_0Bd_
FN:1001,_RNCNCNvXsW_NtNtCskhkPsqpzxNu_13rust_jira_mcp3mcp5toolsNtB9_24BulkTransitionIssuesToolNtNtBb_6server14MCPToolHandler6handle0s3_0Bd_
FN:1041,_RNCNCNvXsW_NtNtCskhkPsqpzxNu_13rust_jira_mcp3mcp5toolsNtB9_24BulkTransitionIssuesToolNtNtBb_6server14MCPToolHandler6handle0s5_0Bd_
FN:976,_RNCNCNvXsW_NtNtCskhkPsqpzxNu_13rust_jira_mcp3mcp5toolsNtB9_24BulkTransitionIssuesToolNtNtBb_6server14MCPToolHandler6handle0s_0Bd_
FN:1078,_RNCNCNvXsX_NtNtCskhkPsqpzxNu_13rust_jira_mcp3mcp5toolsNtB9_19BulkAddCommentsToolNtNtBb_6server14MCPToolHandler6handle00Bd_
FN:1087,_RNCNCNvXsX_NtNtCskhkPsqpzxNu_13rust_jira_mcp3mcp5toolsNtB9_19BulkAddCommentsToolNtNtBb_6server14MCPToolHandler6handle0s0_0Bd_
FN:1088,_RNCNCNvXsX_NtNtCskhkPsqpzxNu_13rust_jira_mcp3mcp5toolsNtB9_19BulkAddCommentsToolNtNtBb_6server14MCPToolHandler6handle0s1_0Bd_
FN:1102,_RNCNCNvXsX_NtNtCskhkPsqpzxNu_13rust_jira_mcp3mcp5toolsNtB9_19BulkAddCommentsToolNtNtBb_6server14MCPToolHandler6handle0s2_0Bd_
FN:1133,_RNCNCNvXsX_NtNtCskhkPsqpzxNu_13rust_jira_mcp3mcp5toolsNtB9_19BulkAddCommentsToolNtNtBb_6server14MCPToolHandler6handle0s4_0Bd_
FN:1079,_RNCNCNvXsX_NtNtCskhkPsqpzxNu_13rust_jira_mcp3mcp5toolsNtB9_19BulkAddCommentsToolNtNtBb_6server14MCPToolHandler6handle0s_0Bd_
FN:1170,_RNCNCNvXsY_NtNtCskhkPsqpzxNu_13rust_jira_mcp3mcp5toolsNtB9_23MixedBulkOperationsToolNtNtBb_6server14MCPToolHandler6handle00Bd_
FN:1189,_RNCNCNvXsY_NtNtCskhkPsqpzxNu_13rust_jira_mcp3mcp5toolsNtB9_23MixedBulkOperationsToolNtNtBb_6server14MCPToolHandler6handle0s0_0Bd_
FN:1190,_RNCNCNvXsY_NtNtCskhkPsqpzxNu_13rust_jira_mcp3mcp5toolsNtB9_23MixedBulkOperationsToolNtNtBb_6server14MCPToolHandler6handle0s1_0Bd_
FN:1199,_RNCNCNvXsY_NtNtCskhkPsqpzxNu_13rust_jira_mcp3mcp5toolsNtB9_23MixedBulkOperationsToolNtNtBb_6server14MCPToolHandler6handle0s2_0Bd_
FN:1200,_RNCNCNvXsY_NtNtCskhkPsqpzxNu_13rust_jira_mcp3mcp5toolsNtB9_23MixedBulkOperationsToolNtNtBb_6server14MCPToolHandler6handle0s3_0Bd_
FN:1220,_RNCNCNvXsY_NtNtCskhkPsqpzxNu_13rust_jira_mcp3mcp5toolsNtB9_23MixedBulkOperationsToolNtNtBb_6server14MCPToolHandler6handle0s4_0Bd_
FN:1259,_RNCNCNvXsY_NtNtCskhkPsqpzxNu_13rust_jira_mcp3mcp5toolsNtB9_23MixedBulkOperationsToolNtNtBb_6server14MCPToolHandler6handle0s6_0Bd_
FN:1171,_RNCNCNvXsY_NtNtCskhkPsqpzxNu_13rust_jira_mcp3mcp5toolsNtB9_23MixedBulkOperationsToolNtNtBb_6server14MCPToolHandler6handle0s_0Bd_
FN:1351,_RNCNCNvXs10_NtNtCslEfzt21w4nZ_13rust_jira_mcp3mcp5toolsNtBa_17GetIssueLinksToolNtNtBc_6server14MCPToolHandler6handle00Be_
FN:1366,_RNCNCNvXs10_NtNtCslEfzt21w4nZ_13rust_jira_mcp3mcp5toolsNtBa_17GetIssueLinksToolNtNtBc_6server14MCPToolHandler6handle0s0_0Be_
FN:1370,_RNCNCNvXs10_NtNtCslEfzt21w4nZ_13rust_jira_mcp3mcp5toolsNtBa_17GetIssueLinksToolNtNtBc_6server14MCPToolHandler6handle0s1_0Be_
FN:1352,_RNCNCNvXs10_NtNtCslEfzt21w4nZ_13rust_jira_mcp3mcp5toolsNtBa_17GetIssueLinksToolNtNtBc_6server14MCPToolHandler6handle0s_0Be_
FN:1411,_RNCNCNvXs11_NtNtCslEfzt21w4nZ_13rust_jira_mcp3mcp5toolsNtBa_19CreateIssueLinkToolNtNtBc_6server14MCPToolHandler6handle00Be_
FN:1418,_RNCNCNvXs11_NtNtCslEfzt21w4nZ_13rust_jira_mcp3mcp5toolsNtBa_19CreateIssueLinkToolNtNtBc_6server14MCPToolHandler6handle0s0_0Be_
FN:1419,_RNCNCNvXs11_NtNtCslEfzt21w4nZ_13rust_jira_mcp3mcp5toolsNtBa_19CreateIssueLinkToolNtNtBc_6server14MCPToolHandler6handle0s1_0Be_
FN:1425,_RNCNCNvXs11_NtNtCslEfzt21w4nZ_13rust_jira_mcp3mcp5toolsNtBa_19CreateIssueLinkToolNtNtBc_6server14MCPToolHandler6handle0s2_0Be_
FN:1426,_RNCNCNvXs11_NtNtCslEfzt21w4nZ_13rust_jira_mcp3mcp5toolsNtBa_19CreateIssueLinkToolNtNtBc_6server14MCPToolHandler6handle0s3_0Be_
FN:1430,_RNCNCNvXs11_NtNtCslEfzt21w4nZ_13rust_jira_mcp3mcp5toolsNtBa_19CreateIssueLinkToolNtNtBc_6server14MCPToolHandler6handle0s4_0Be_
FN:1412,_RNCNCNvXs11_NtNtCslEfzt21w4nZ_13rust_jira_mcp3mcp5toolsNtBa_19CreateIssueLinkToolNtNtBc_6server14MCPToolHandler6handle0s_0Be_
FN:1473,_RNCNCNvXs12_NtNtCslEfzt21w4nZ_13rust_jira_mcp3mcp5toolsNtBa_19DeleteIssueLinkToolNtNtBc_6server14MCPToolHandler6handle00Be_
FN:1474,_RNCNCNvXs12_NtNtCslEfzt21w4nZ_13rust_jira_mcp3mcp5toolsNtBa_19DeleteIssueLinkToolNtNtBc_6server14MCPToolHandler6handle0s_0Be_
FN:1514,_RNCNCNvXs13_NtNtCslEfzt21w4nZ_13rust_jira_mcp3mcp5toolsNtBa_23GetIssueAttachmentsToolNtNtBc_6server14MCPToolHandler6handle00Be_
FN:1515,_RNCNCNvXs13_NtNtCslEfzt21w4nZ_13rust_jira_mcp3mcp5toolsNtBa_23GetIssueAttachmentsToolNtNtBc_6server14MCPToolHandler6handle0s_0Be_
FN:1571,_RNCNCNvXs14_NtNtCslEfzt21w4nZ_13rust_jira_mcp3mcp5toolsNtBa_20UploadAttachmentToolNtNtBc_6server14MCPToolHandler6handle00Be_
FN:1578,_RNCNCNvXs14_NtNtCslEfzt21w4nZ_13rust_jira_mcp3mcp5toolsNtBa_20UploadAttachmentToolNtNtBc_6server14MCPToolHandler6handle0s0_0Be_
FN:1579,_RNCNCNvXs14_NtNtCslEfzt21w4nZ_13rust_jira_mcp3mcp5toolsNtBa_20UploadAttachmentToolNtNtBc_6server14MCPToolHandler6handle0s1_0Be_
FN:1585,_RNCNCNvXs14_NtNtCslEfzt21w4nZ_13rust_jira_mcp3mcp5toolsNtBa_20UploadAttachmentToolNtNtBc_6server14MCPToolHandler6handle0s2_0Be_
FN:1586,_RNCNCNvXs14_NtNtCslEfzt21w4nZ_13rust_jira_mcp3mcp5toolsNtBa_20UploadAttachmentToolNtNtBc_6server14MCPToolHandler6handle0s3_0Be_
FN:1592,_RNCNCNvXs14_NtNtCslEfzt21w4nZ_13rust_jira_mcp3mcp5toolsNtBa_20UploadAttachmentToolNtNtBc_6server14MCPToolHandler6handle0s4_0Be_
FN:1595,_RNCNCNvXs14_NtNtCslEfzt21w4nZ_13rust_jira_mcp3mcp5toolsNtBa_20UploadAttachmentToolNtNtBc_6server14MCPToolHandler6handle0s5_0Be_
FN:1572,_RNCNCNvXs14_NtNtCslEfzt21w4nZ_13rust_jira_mcp3mcp5toolsNtBa_20UploadAttachmentToolNtNtBc_6server14MCPToolHandler6handle0s_0Be_
FN:1649,_RNCNCNvXs15_NtNtCslEfzt21w4nZ_13rust_jira_mcp3mcp5toolsNtBa_20DeleteAttachmentToolNtNtBc_6server14MCPToolHandler6handle00Be_
FN:1650,_RNCNCNvXs15_NtNtCslEfzt21w4nZ_13rust_jira_mcp3mcp5toolsNtBa_20DeleteAttachmentToolNtNtBc_6server14MCPToolHandler6handle0s_0Be_
FN:1688,_RNCNCNvXs16_NtNtCslEfzt21w4nZ_13rust_jira_mcp3mcp5toolsNtBa_22DownloadAttachmentToolNtNtBc_6server14MCPToolHandler6handle00Be_
FN:1689,_RNCNCNvXs16_NtNtCslEfzt21w4nZ_13rust_jira_mcp3mcp5toolsNtBa_22DownloadAttachmentToolNtNtBc_6server14MCPToolHandler6handle0s_0Be_
FN:1735,_RNCNCNvXs17_NtNtCslEfzt21w4nZ_13rust_jira_mcp3mcp5toolsNtBa_20GetIssueWorkLogsToolNtNtBc_6server14MCPToolHandler6handle00Be_
FN:1736,_RNCNCNvXs17_NtNtCslEfzt21w4nZ_13rust_jira_mcp3mcp5toolsNtBa_20GetIssueWorkLogsToolNtNtBc_6server14MCPToolHandler6handle0s_0Be_
FN:1801,_RNCNCNvXs18_NtNtCslEfzt21w4nZ_13rust_jira_mcp3mcp5toolsNtBa_14AddWorkLogToolNtNtBc_6server14MCPToolHandler6handle00Be_
FN:1808,_RNCNCNvXs18_NtNtCslEfzt21w4nZ_13rust_jira_mcp3mcp5toolsNtBa_14AddWorkLogToolNtNtBc_6server14MCPToolHandler6handle0s0_0Be_
FN:1809,_RNCNCNvXs18_NtNtCslEfzt21w4nZ_13rust_jira_mcp3mcp5toolsNtBa_14AddWorkLogToolNtNtBc_6server14MCPToolHandler6handle0s1_0Be_
FN:1813,_RNCNCNvXs18_NtNtCslEfzt21w4nZ_13rust_jira_mcp3mcp5toolsNtBa_14AddWorkLogToolNtNtBc_6server14MCPToolHandler6handle0s2_0Be_
FN:1814,_RNCNCNvXs18_NtNtCslEfzt21w4nZ_13rust_jira_mcp3mcp5toolsNtBa_14AddWorkLogToolNtNtBc_6server14MCPToolHandler6handle0s3_0Be_
FN:1802,_RNCNCNvXs18_NtNtCslEfzt21w4nZ_13rust_jira_mcp3mcp5toolsNtBa_14AddWorkLogToolNtNtBc_6server14MCPToolHandler6handle0s_0Be_
FN:1866,_RNCNCNvXs19_NtNtCslEfzt21w4nZ_13rust_jira_mcp3mcp5toolsNtBa_17UpdateWorkLogToolNtNtBc_6server14MCPToolHandler6handle00Be_
FN:1873,_RNCNCNvXs19_NtNtCslEfzt21w4nZ_13rust_jira_mcp3mcp5toolsNtBa_17UpdateWorkLogToolNtNtBc_6server14MCPToolHandler6handle0s0_0Be_
FN:1874,_RNCNCNvXs19_NtNtCslEfzt21w4nZ_13rust_jira_mcp3mcp5toolsNtBa_17UpdateWorkLogToolNtNtBc_6server14MCPToolHandler6handle0s1_0Be_
FN:1878,_RNCNCNvXs19_NtNtCslEfzt21w4nZ_13rust_jira_mcp3mcp5toolsNtBa_17UpdateWorkLogToolNtNtBc_6server14MCPToolHandler6handle0s2_0Be_
FN:1879,_RNCNCNvXs19_NtNtCslEfzt21w4nZ_13rust_jira_mcp3mcp5toolsNtBa_17UpdateWorkLogToolNtNtBc_6server14MCPToolHandler6handle0s3_0Be_
FN:1880,_RNCNCNvXs19_NtNtCslEfzt21w4nZ_13rust_jira_mcp3mcp5toolsNtBa_17UpdateWorkLogToolNtNtBc_6server14MCPToolHandler6handle0s4_0Be_
FN:1867,_RNCNCNvXs19_NtNtCslEfzt21w4nZ_13rust_jira_mcp3mcp5toolsNtBa_17UpdateWorkLogToolNtNtBc_6server14MCPToolHandler6handle0s_0Be_
FN:1935,_RNCNCNvXs1a_NtNtCslEfzt21w4nZ_13rust_jira_mcp3mcp5toolsNtBa_17DeleteWorkLogToolNtNtBc_6server14MCPToolHandler6handle00Be_
FN:1942,_RNCNCNvXs1a_NtNtCslEfzt21w4nZ_13rust_jira_mcp3mcp5toolsNtBa_17DeleteWorkLogToolNtNtBc_6server14MCPToolHandler6handle0s0_0Be_
FN:1943,_RNCNCNvXs1a_NtNtCslEfzt21w4nZ_13rust_jira_mcp3mcp5toolsNtBa_17DeleteWorkLogToolNtNtBc_6server14MCPToolHandler6handle0s1_0Be_
FN:1936,_RNCNCNvXs1a_NtNtCslEfzt21w4nZ_13rust_jira_mcp3mcp5toolsNtBa_17DeleteWorkLogToolNtNtBc_6server14MCPToolHandler6handle0s_0Be_
FN:1984,_RNCNCNvXs1b_NtNtCslEfzt21w4nZ_13rust_jira_mcp3mcp5toolsNtBa_20GetIssueWatchersToolNtNtBc_6server14MCPToolHandler6handle00Be_
FN:1985,_RNCNCNvXs1b_NtNtCslEfzt21w4nZ_13rust_jira_mcp3mcp5toolsNtBa_20GetIssueWatchersToolNtNtBc_6server14MCPToolHandler6handle0s_0Be_
FN:2042,_RNCNCNvXs1c_NtNtCslEfzt21w4nZ_13rust_jira_mcp3mcp5toolsNtBa_19AddIssueWatcherToolNtNtBc_6server14MCPToolHandler6handle00Be_
FN:2049,_RNCNCNvXs1c_NtNtCslEfzt21w4nZ_13rust_jira_mcp3mcp5toolsNtBa_19AddIssueWatcherToolNtNtBc_6server14MCPToolHandler6handle0s0_0Be_
FN:2050,_RNCNCNvXs1c_NtNtCslEfzt21w4nZ_13rust_jira_mcp3mcp5toolsNtBa_19AddIssueWatcherToolNtNtBc_6server14MCPToolHandler6handle0s1_0Be_
FN:2043,_RNCNCNvXs1c_NtNtCslEfzt21w4nZ_13rust_jira_mcp3mcp5toolsNtBa_19AddIssueWatcherToolNtNtBc_6server14MCPToolHandler6handle0s_0Be_
FN:2089,_RNCNCNvXs1d_NtNtCslEfzt21w4nZ_13rust_jira_mcp3mcp5toolsNtBa_22RemoveIssueWatcherToolNtNtBc_6server14MCPToolHandler6handle00Be_
FN:2096,_RNCNCNvXs1d_NtNtCslEfzt21w4nZ_13rust_jira_mcp3mcp5toolsNtBa_22RemoveIssueWatcherToolNtNtBc_6server14MCPToolHandler6handle0s0_0Be_
FN:2097,_RNCNCNvXs1d_NtNtCslEfzt21w4nZ_13rust_jira_mcp3mcp5toolsNtBa_22RemoveIssueWatcherToolNtNtBc_6server14MCPToolHandler6handle0s1_0Be_
FN:2090,_RNCNCNvXs1d_NtNtCslEfzt21w4nZ_13rust_jira_mcp3mcp5toolsNtBa_22RemoveIssueWatcherToolNtNtBc_6server14MCPToolHandler6handle0s_0Be_
FN:2178,_RNCNCNvXs1f_NtNtCslEfzt21w4nZ_13rust_jira_mcp3mcp5toolsNtBa_15CreateLabelToolNtNtBc_6server14MCPToolHandler6handle00Be_
FN:2178,_RNCNCNvXs1f_NtNtCslEfzt21w4nZ_13rust_jira_mcp3mcp5toolsNtBa_15CreateLabelToolNtNtBc_6server14MCPToolHandler6handle0s_0Be_
FN:2223,_RNCNCNvXs1g_NtNtCslEfzt21w4nZ_13rust_jira_mcp3mcp5toolsNtBa_15UpdateLabelToolNtNtBc_6server14MCPToolHandler6handle00Be_
FN:2230,_RNCNCNvXs1g_NtNtCslEfzt21w4nZ_13rust_jira_mcp3mcp5toolsNtBa_15UpdateLabelToolNtNtBc_6server14MCPToolHandler6handle0s0_0Be_
FN:2231,_RNCNCNvXs1g_NtNtCslEfzt21w4nZ_13rust_jira_mcp3mcp5toolsNtBa_15UpdateLabelToolNtNtBc_6server14MCPToolHandler6handle0s1_0Be_
FN:2224,_RNCNCNvXs1g_NtNtCslEfzt21w4nZ_13rust_jira_mcp3mcp5toolsNtBa_15UpdateLabelToolNtNtBc_6server14MCPToolHandler6handle0s_0Be_
FN:2274,_RNCNCNvXs1h_NtNtCslEfzt21w4nZ_13rust_jira_mcp3mcp5toolsNtBa_15DeleteLabelToolNtNtBc_6server14MCPToolHandler6handle00Be_
FN:2274,_RNCNCNvXs1h_NtNtCslEfzt21w4nZ_13rust_jira_mcp3mcp5toolsNtBa_15DeleteLabelToolNtNtBc_6server14MCPToolHandler6handle0s_0Be_
FN:2312,_RNCNCNvXs1i_NtNtCslEfzt21w4nZ_13rust_jira_mcp3mcp5toolsNtBa_19CreateComponentToolNtNtBc_6server14MCPToolHandler6handle00Be_
FN:2318,_RNCNCNvXs1i_NtNtCslEfzt21w4nZ_13rust_jira_mcp3mcp5toolsNtBa_19CreateComponentToolNtNtBc_6server14MCPToolHandler6handle0s0_0Be_
FN:2319,_RNCNCNvXs1i_NtNtCslEfzt21w4nZ_13rust_jira_mcp3mcp5toolsNtBa_19CreateComponentToolNtNtBc_6server14MCPToolHandler6handle0s1_0Be_
FN:2323,_RNCNCNvXs1i_NtNtCslEfzt21w4nZ_13rust_jira_mcp3mcp5toolsNtBa_19CreateComponentToolNtNtBc_6server14MCPToolHandler6handle0s2_0Be_
FN:2324,_RNCNCNvXs1i_NtNtCslEfzt21w4nZ_13rust_jira_mcp3mcp5toolsNtBa_19CreateComponentToolNtNtBc_6server14MCPToolHandler6handle0s3_0Be_
FN:2325,_RNCNCNvXs1i_NtNtCslEfzt21w4nZ_13rust_jira_mcp3mcp5toolsNtBa_19CreateComponentToolNtNtBc_6server14MCPToolHandler6handle0s4_0Be_
FN:2312,_RNCNCNvXs1i_NtNtCslEfzt21w4nZ_13rust_jira_mcp3mcp5toolsNtBa_19CreateComponentToolNtNtBc_6server14MCPToolHandler6handle0s_0Be_
FN:2378,_RNCNCNvXs1j_NtNtCslEfzt21w4nZ_13rust_jira_mcp3mcp5toolsNtBa_19UpdateComponentToolNtNtBc_6server14MCPToolHandler6handle00Be_
FN:2383,_RNCNCNvXs1j_NtNtCslEfzt21w4nZ_13rust_jira_mcp3mcp5toolsNtBa_19UpdateComponentToolNtNtBc_6server14MCPToolHandler6handle0s0_0Be_
FN:2384,_RNCNCNvXs1j_NtNtCslEfzt21w4nZ_13rust_jira_mcp3mcp5toolsNtBa_19UpdateComponentToolNtNtBc_6server14MCPToolHandler6handle0s1_0Be_
FN:2385,_RNCNCNvXs1j_NtNtCslEfzt21w4nZ_13rust_jira_mcp3mcp5toolsNtBa_19UpdateComponentToolNtNtBc_6server14MCPToolHandler6handle0s2_0Be_
FN:2386,_RNCNCNvXs1j_NtNtCslEfzt21w4nZ_13rust_jira_mcp3mcp5toolsNtBa_19UpdateComponentToolNtNtBc_6server14MCPToolHandler6handle0s3_0Be_
FN:2379,_RNCNCNvXs1j_NtNtCslEfzt21w4nZ_13rust_jira_mcp3mcp5toolsNtBa_19UpdateComponentToolNtNtBc_6server14MCPToolHandler6handle0s_0Be_
FN:2441,_RNCNCNvXs1k_NtNtCslEfzt21w4nZ_13rust_jira_mcp3mcp5toolsNtBa_19DeleteComponentToolNtNtBc_6server14MCPToolHandler6handle00Be_
FN:2442,_RNCNCNvXs1k_NtNtCslEfzt21w4nZ_13rust_jira_mcp3mcp5toolsNtBa_19DeleteComponentToolNtNtBc_6server14MCPToolHandler6handle0s_0Be_
FN:2482,_RNCNCNvXs1l_NtNtCslEfzt21w4nZ_13rust_jira_mcp3mcp5toolsNtBa_14CloneIssueToolNtNtBc_6server14MCPToolHandler6handle00Be_
FN:2489,_RNCNCNvXs1l_NtNtCslEfzt21w4nZ_13rust_jira_mcp3mcp5toolsNtBa_14CloneIssueToolNtNtBc_6server14MCPToolHandler6handle0s0_0Be_
FN:2490,_RNCNCNvXs1l_NtNtCslEfzt21w4nZ_13rust_jira_mcp3mcp5toolsNtBa_14CloneIssueToolNtNtBc_6server14MCPToolHandler6handle0s1_0Be_
FN:2496,_RNCNCNvXs1l_NtNtCslEfzt21w4nZ_13rust_jira_mcp3mcp5toolsNtBa_14CloneIssueToolNtNtBc_6server14MCPToolHandler6handle0s2_0Be_
FN:2497,_RNCNCNvXs1l_NtNtCslEfzt21w4nZ_13rust_jira_mcp3mcp5toolsNtBa_14CloneIssueToolNtNtBc_6server14MCPToolHandler6handle0s3_0Be_
FN:2503,_RNCNCNvXs1l_NtNtCslEfzt21w4nZ_13rust_jira_mcp3mcp5toolsNtBa_14CloneIssueToolNtNtBc_6server14MCPToolHandler6handle0s4_0Be_
FN:2504,_RNCNCNvXs1l_NtNtCslEfzt21w4nZ_13rust_jira_mcp3mcp5toolsNtBa_14CloneIssueToolNtNtBc_6server14MCPToolHandler6handle0s5_0Be_
FN:2508,_RNCNCNvXs1l_NtNtCslEfzt21w4nZ_13rust_jira_mcp3mcp5toolsNtBa_14CloneIssueToolNtNtBc_6server14MCPToolHandler6handle0s6_0Be_
FN:2483,_RNCNCNvXs1l_NtNtCslEfzt21w4nZ_13rust_jira_mcp3mcp5toolsNtBa_14CloneIssueToolNtNtBc_6server14MCPToolHandler6handle0s_0Be_
FN:74,_RNCNCNvXsG_NtNtCslEfzt21w4nZ_13rust_jira_mcp3mcp5toolsNtB9_16SearchIssuesToolNtNtBb_6server14MCPToolHandler6handle00Bd_
FN:80,_RNCNCNvXsG_NtNtCslEfzt21w4nZ_13rust_jira_mcp3mcp5toolsNtB9_16SearchIssuesToolNtNtBb_6server14MCPToolHandler6handle0s0_0Bd_
FN:85,_RNCNCNvXsG_NtNtCslEfzt21w4nZ_13rust_jira_mcp3mcp5toolsNtB9_16SearchIssuesToolNtNtBb_6server14MCPToolHandler6handle0s1_0Bd_
FN:111,_RNCNCNvXsG_NtNtCslEfzt21w4nZ_13rust_jira_mcp3mcp5toolsNtB9_16SearchIssuesToolNtNtBb_6server14MCPToolHandler6handle0s3_0Bd_
FN:75,_RNCNCNvXsG_NtNtCslEfzt21w4nZ_13rust_jira_mcp3mcp5toolsNtB9_16SearchIssuesToolNtNtBb_6server14MCPToolHandler6handle0s_0Bd_
FN:143,_RNCNCNvXsH_NtNtCslEfzt21w4nZ_13rust_jira_mcp3mcp5toolsNtB9_15CreateIssueToolNtNtBb_6server14MCPToolHandler6handle00Bd_
FN:184,_RNCNCNvXsI_NtNtCslEfzt21w4nZ_13rust_jira_mcp3mcp5toolsNtB9_15UpdateIssueToolNtNtBb_6server14MCPToolHandler6handle00Bd_
FN:189,_RNCNCNvXsI_NtNtCslEfzt21w4nZ_13rust_jira_mcp3mcp5toolsNtB9_15UpdateIssueToolNtNtBb_6server14MCPToolHandler6handle0s0_0Bd_
FN:185,_RNCNCNvXsI_NtNtCslEfzt21w4nZ_13rust_jira_mcp3mcp5toolsNtB9_15UpdateIssueToolNtNtBb_6server14MCPToolHandler6handle0s_0Bd_
FN:230,_RNCNCNvXsJ_NtNtCslEfzt21w4nZ_13rust_jira_mcp3mcp5toolsNtB9_12GetIssueToolNtNtBb_6server14MCPToolHandler6handle00Bd_
FN:242,_RNCNCNvXsJ_NtNtCslEfzt21w4nZ_13rust_jira_mcp3mcp5toolsNtB9_12GetIssueToolNtNtBb_6server14MCPToolHandler6handle0s0_0Bd_
FN:248,_RNCNCNvXsJ_NtNtCslEfzt21w4nZ_13rust_jira_mcp3mcp5toolsNtB9_12GetIssueToolNtNtBb_6server14MCPToolHandler6handle0s1_0Bd_
FN:249,_RNCNCNvXsJ_NtNtCslEfzt21w4nZ_13rust_jira_mcp3mcp5toolsNtB9_12GetIssueToolNtNtBb_6server14MCPToolHandler6handle0s2_0Bd_
FN:255,_RNCNCNvXsJ_NtNtCslEfzt21w4nZ_13rust_jira_mcp3mcp5toolsNtB9_12GetIssueToolNtNtBb_6server14MCPToolHandler6handle0s3_0Bd_
FN:256,_RNCNCNvXsJ_NtNtCslEfzt21w4nZ_13rust_jira_mcp3mcp5toolsNtB9_12GetIssueToolNtNtBb_6server14MCPToolHandler6handle0s4_0Bd_
FN:231,_RNCNCNvXsJ_NtNtCslEfzt21w4nZ_13rust_jira_mcp3mcp5toolsNtB9_12GetIssueToolNtNtBb_6server14MCPToolHandler6handle0s_0Bd_
FN:292,_RNCNCNvXsK_NtNtCslEfzt21w4nZ_13rust_jira_mcp3mcp5toolsNtB9_15GetCommentsToolNtNtBb_6server14MCPToolHandler6handle00Bd_
FN:293,_RNCNCNvXsK_NtNtCslEfzt21w4nZ_13rust_jira_mcp3mcp5toolsNtB9_15GetCommentsToolNtNtBb_6server14MCPToolHandler6handle0s_0Bd_
FN:346,_RNCNCNvXsL_NtNtCslEfzt21w4nZ_13rust_jira_mcp3mcp5toolsNtB9_14AddCommentToolNtNtBb_6server14MCPToolHandler6handle00Bd_
FN:353,_RNCNCNvXsL_NtNtCslEfzt21w4nZ_13rust_jira_mcp3mcp5toolsNtB9_14AddCommentToolNtNtBb_6server14MCPToolHandler6handle0s0_0Bd_
FN:354,_RNCNCNvXsL_NtNtCslEfzt21w4nZ_13rust_jira_mcp3mcp5toolsNtB9_14AddCommentToolNtNtBb_6server14MCPToolHandler6handle0s1_0Bd_
FN:347,_RNCNCNvXsL_NtNtCslEfzt21w4nZ_13rust_jira_mcp3mcp5toolsNtB9_14AddCommentToolNtNtBb_6server14MCPToolHandler6handle0s_0Bd_
FN:395,_RNCNCNvXsM_NtNtCslEfzt21w4nZ_13rust_jira_mcp3mcp5toolsNtB9_18GetTransitionsToolNtNtBb_6server14MCPToolHandler6handle00Bd_
FN:396,_RNCNCNvXsM_NtNtCslEfzt21w4nZ_13rust_jira_mcp3mcp5toolsNtB9_18GetTransitionsToolNtNtBb_6server14MCPToolHandler6handle0s_0Bd_
FN:448,_RNCNCNvXsN_NtNtCslEfzt21w4nZ_13rust_jira_mcp3mcp5toolsNtB9_19TransitionIssueToolNtNtBb_6server14MCPToolHandler6handle00Bd_
FN:455,_RNCNCNvXsN_NtNtCslEfzt21w4nZ_13rust_jira_mcp3mcp5toolsNtB9_19TransitionIssueToolNtNtBb_6server14MCPToolHandler6handle0s0_0Bd_
FN:456,_RNCNCNvXsN_NtNtCslEfzt21w4nZ_13rust_jira_mcp3mcp5toolsNtB9_19TransitionIssueToolNtNtBb_6server14MCPToolHandler6handle0s1_0Bd_
FN:460,_RNCNCNvXsN_NtNtCslEfzt21w4nZ_13rust_jira_mcp3mcp5toolsNtB9_19TransitionIssueToolNtNtBb_6server14MCPToolHandler6handle0s2_0Bd_
FN:449,_RNCNCNvXsN_NtNtCslEfzt21w4nZ_13rust_jira_mcp3mcp5toolsNtB9_19TransitionIssueToolNtNtBb_6server14MCPToolHandler6handle0s_0Bd_
FN:503,_RNCNCNvXsO_NtNtCslEfzt21w4nZ_13rust_jira_mcp3mcp5toolsNtB9_20GetProjectConfigToolNtNtBb_6server14MCPToolHandler6handle00Bd_
FN:516,_RNCNCNvXsO_NtNtCslEfzt21w4nZ_13rust_jira_mcp3mcp5toolsNtB9_20GetProjectConfigToolNtNtBb_6server14MCPToolHandler6handle0s1_0Bd_
FN:504,_RNCNCNvXsO_NtNtCslEfzt21w4nZ_13rust_jira_mcp3mcp5toolsNtB9_20GetProjectConfigToolNtNtBb_6server14MCPToolHandler6handle0s_0Bd_
FN:547,_RNCNCNvXsP_NtNtCslEfzt21w4nZ_13rust_jira_mcp3mcp5toolsNtB9_17GetIssueTypesToolNtNtBb_6server14MCPToolHandler6handle00Bd_
FN:548,_RNCNCNvXsP_NtNtCslEfzt21w4nZ_13rust_jira_mcp3mcp5toolsNtB9_17GetIssueTypesToolNtNtBb_6server14MCPToolHandler6handle0s_0Bd_
FN:604,_RNCNCNvXsQ_NtNtCslEfzt21w4nZ_13rust_jira_mcp3mcp5toolsNtB9_24GetIssueTypeMetadataToolNtNtBb_6server14MCPToolHandler6handle00Bd_
FN:605,_RNCNCNvXsQ_NtNtCslEfzt21w4nZ_13rust_jira_mcp3mcp5toolsNtB9_24GetIssueTypeMetadataToolNtNtBb_6server14MCPToolHandler6handle0s_0Bd_
FN:651,_RNCNCNvXsR_NtNtCslEfzt21w4nZ_13rust_jira_mcp3mcp5toolsNtB9_24GetProjectComponentsToolNtNtBb_6server14MCPToolHandler6handle00Bd_
FN:652,_RNCNCNvXsR_NtNtCslEfzt21w4nZ_13rust_jira_mcp3mcp5toolsNtB9_24GetProjectComponentsToolNtNtBb_6server14MCPToolHandler6handle0s_0Bd_
FN:782,_RNCNCNvXsT_NtNtCslEfzt21w4nZ_13rust_jira_mcp3mcp5toolsNtB9_19GetCustomFieldsToolNtNtBb_6server14MCPToolHandler6handle00Bd_
FN:790,_RNCNCNvXsT_NtNtCslEfzt21w4nZ_13rust_jira_mcp3mcp5toolsNtB9_19GetCustomFieldsToolNtNtBb_6server14MCPToolHandler6handle0s0_0Bd_
FN:791,_RNCNCNvXsT_NtNtCslEfzt21w4nZ_13rust_jira_mcp3mcp5toolsNtB9_19GetCustomFieldsToolNtNtBb_6server14MCPToolHandler6handle0s1_0Bd_
FN:786,_RNCNCNvXsT_NtNtCslEfzt21w4nZ_13rust_jira_mcp3mcp5toolsNtB9_19GetCustomFieldsToolNtNtBb_6server14MCPToolHandler6handle0s_0Bd_
FN:837,_RNCNCNvXsU_NtNtCslEfzt21w4nZ_13rust_jira_mcp3mcp5toolsNtB9_22GetProjectMetadataToolNtNtBb_6server14MCPToolHandler6handle00Bd_
FN:853,_RNCNCNvXsU_NtNtCslEfzt21w4nZ_13rust_jira_mcp3mcp5toolsNtB9_22GetProjectMetadataToolNtNtBb_6server14MCPToolHandler6handle0s1_0Bd_
FN:838,_RNCNCNvXsU_NtNtCslEfzt21w4nZ_13rust_jira_mcp3mcp5toolsNtB9_22GetProjectMetadataToolNtNtBb_6server14MCPToolHandler6handle0s_0Bd_
FN:886,_RNCNCNvXsV_NtNtCslEfzt21w4nZ_13rust_jira_mcp3mcp5toolsNtB9_20BulkUpdateIssuesToolNtNtBb_6server14MCPToolHandler6handle00Bd_
FN:893,_RNCNCNvXsV_NtNtCslEfzt21w4nZ_13rust_jira_mcp3mcp5toolsNtB9_20BulkUpdateIssuesToolNtNtBb_6server14MCPToolHandler6handle0s0_0Bd_
FN:907,_RNCNCNvXsV_NtNtCslEfzt21w4nZ_13rust_jira_mcp3mcp5toolsNtB9_20BulkUpdateIssuesToolNtNtBb_6server14MCPToolHandler6handle0s1_0Bd_
FN:938,_RNCNCNvXsV_NtNtCslEfzt21w4nZ_13rust_jira_mcp3mcp5toolsNtB9_20BulkUpdateIssuesToolNtNtBb_6server14MCPToolHandler6handle0s3_0Bd_
FN:887,_RNCNCNvXsV_NtNtCslEfzt21w4nZ_13rust_jira_mcp3mcp5toolsNtB9_20BulkUpdateIssuesToolNtNtBb_6server14MCPToolHandler6handle0s_0Bd_
FN:975,_RNCNCNvXsW_NtNtCslEfzt21w4nZ_13rust_jira_mcp3mcp5toolsNtB9_24BulkTransitionIssuesToolNtNtBb_6server14MCPToolHandler6handle00Bd_
FN:984,_RNCNCNvXsW_NtNtCslEfzt21w4nZ_13rust_jira_mcp3mcp5toolsNtB9_24BulkTransitionIssuesToolNtNtBb_6server14MCPToolHandler6handle0s0_0Bd_
FN:985,_RNCNCNvXsW_NtNtCslEfzt21w4nZ_13rust_jira_mcp3mcp5toolsNtB9_24BulkTransitionIssuesToolNtNtBb_6server14MCPToolHandler6handle0s1_0Bd_
FN:989,_RNCNCNvXsW_NtNtCslEfzt21w4nZ_13rust_jira_mcp3mcp5toolsNtB9_24BulkTransitionIssuesToolNtNtBb_6server14MCPToolHandler6handle0s2_0Bd_
FN:1001,_RNCNCNvXsW_NtNtCslEfzt21w4nZ_13rust_jira_mcp3mcp5toolsNtB9_24BulkTransitionIssuesToolNtNtBb_6server14MCPToolHandler6handle0s3_0Bd_
FN:1041,_RNCNCNvXsW_NtNtCslEfzt21w4nZ_13rust_jira_mcp3mcp5toolsNtB9_24BulkTransitionIssuesToolNtNtBb_6server14MCPToolHandler6handle0s5_0Bd_
FN:976,_RNCNCNvXsW_NtNtCslEfzt21w4nZ_13rust_jira_mcp3mcp5toolsNtB9_24BulkTransitionIssuesToolNtNtBb_6server14MCPToolHandler6handle0s_0Bd_
FN:1078,_RNCNCNvXsX_NtNtCslEfzt21w4nZ_13rust_jira_mcp3mcp5toolsNtB9_19BulkAddCommentsToolNtNtBb_6server14MCPToolHandler6handle00Bd_
FN:1087,_RNCNCNvXsX_NtNtCslEfzt21w4nZ_13rust_jira_mcp3mcp5toolsNtB9_19BulkAddCommentsToolNtNtBb_6server14MCPToolHandler6handle0s0_0Bd_
FN:1088,_RNCNCNvXsX_NtNtCslEfzt21w4nZ_13rust_jira_mcp3mcp5toolsNtB9_19BulkAddCommentsToolNtNtBb_6server14MCPToolHandler6handle0s1_0Bd_
FN:1102,_RNCNCNvXsX_NtNtCslEfzt21w4nZ_13rust_jira_mcp3mcp5toolsNtB9_19BulkAddCommentsToolNtNtBb_6server14MCPToolHandler6handle0s2_0Bd_
FN:1133,_RNCNCNvXsX_NtNtCslEfzt21w4nZ_13rust_jira_mcp3mcp5toolsNtB9_19BulkAddCommentsToolNtNtBb_6server14MCPToolHandler6handle0s4_0Bd_
FN:1079,_RNCNCNvXsX_NtNtCslEfzt21w4nZ_13rust_jira_mcp3mcp5toolsNtB9_19BulkAddCommentsToolNtNtBb_6server14MCPToolHandler6handle0s_0Bd_
FN:1170,_RNCNCNvXsY_NtNtCslEfzt21w4nZ_13rust_jira_mcp3mcp5toolsNtB9_23MixedBulkOperationsToolNtNtBb_6server14MCPToolHandler6handle00Bd_
FN:1189,_RNCNCNvXsY_NtNtCslEfzt21w4nZ_13rust_jira_mcp3mcp5toolsNtB9_23MixedBulkOperationsToolNtNtBb_6server14MCPToolHandler6handle0s0_0Bd_
FN:1190,_RNCNCNvXsY_NtNtCslEfzt21w4nZ_13rust_jira_mcp3mcp5toolsNtB9_23MixedBulkOperationsToolNtNtBb_6server14MCPToolHandler6handle0s1_0Bd_
FN:1199,_RNCNCNvXsY_NtNtCslEfzt21w4nZ_13rust_jira_mcp3mcp5toolsNtB9_23MixedBulkOperationsToolNtNtBb_6server14MCPToolHandler6handle0s2_0Bd_
FN:1200,_RNCNCNvXsY_NtNtCslEfzt21w4nZ_13rust_jira_mcp3mcp5toolsNtB9_23MixedBulkOperationsToolNtNtBb_6server14MCPToolHandler6handle0s3_0Bd_
FN:1220,_RNCNCNvXsY_NtNtCslEfzt21w4nZ_13rust_jira_mcp3mcp5toolsNtB9_23MixedBulkOperationsToolNtNtBb_6server14MCPToolHandler6handle0s4_0Bd_
FN:1259,_RNCNCNvXsY_NtNtCslEfzt21w4nZ_13rust_jira_mcp3mcp5toolsNtB9_23MixedBulkOperationsToolNtNtBb_6server14MCPToolHandler6handle0s6_0Bd_
FN:1171,_RNCNCNvXsY_NtNtCslEfzt21w4nZ_13rust_jira_mcp3mcp5toolsNtB9_23MixedBulkOperationsToolNtNtBb_6server14MCPToolHandler6handle0s_0Bd_
FN:25,_RNvMNtNtCslEfzt21w4nZ_13rust_jira_mcp3mcp5toolsNtB2_12TestAuthTool3new
FN:133,_RNvMs0_NtNtCslEfzt21w4nZ_13rust_jira_mcp3mcp5toolsNtB5_15CreateIssueTool3new
FN:172,_RNvMs1_NtNtCslEfzt21w4nZ_13rust_jira_mcp3mcp5toolsNtB5_15UpdateIssueTool3new
FN:218,_RNvMs2_NtNtCslEfzt21w4nZ_13rust_jira_mcp3mcp5toolsNtB5_12GetIssueTool3new
FN:280,_RNvMs3_NtNtCslEfzt21w4nZ_13rust_jira_mcp3mcp5toolsNtB5_15GetCommentsTool3new
FN:334,_RNvMs4_NtNtCslEfzt21w4nZ_13rust_jira_mcp3mcp5toolsNtB5_14AddCommentTool3new
FN:383,_RNvMs5_NtNtCslEfzt21w4nZ_13rust_jira_mcp3mcp5toolsNtB5_18GetTransitionsTool3new
FN:436,_RNvMs6_NtNtCslEfzt21w4nZ_13rust_jira_mcp3mcp5toolsNtB5_19TransitionIssueTool3new
FN:491,_RNvMs7_NtNtCslEfzt21w4nZ_13rust_jira_mcp3mcp5toolsNtB5_20GetProjectConfigTool3new
FN:535,_RNvMs8_NtNtCslEfzt21w4nZ_13rust_jira_mcp3mcp5toolsNtB5_17GetIssueTypesTool3new
FN:592,_RNvMs9_NtNtCslEfzt21w4nZ_13rust_jira_mcp3mcp5toolsNtB5_24GetIssueTypeMetadataTool3new
FN:2264,_RNvMsA_NtNtCslEfzt21w4nZ_13rust_jira_mcp3mcp5toolsNtB5_15DeleteLabelTool3new
FN:2302,_RNvMsB_NtNtCslEfzt21w4nZ_13rust_jira_mcp3mcp5toolsNtB5_19CreateComponentTool3new
FN:2366,_RNvMsC_NtNtCslEfzt21w4nZ_13rust_jira_mcp3mcp5toolsNtB5_19UpdateComponentTool3new
FN:2429,_RNvMsD_NtNtCslEfzt21w4nZ_13rust_jira_mcp3mcp5toolsNtB5_19DeleteComponentTool3new
FN:2470,_RNvMsE_NtNtCslEfzt21w4nZ_13rust_jira_mcp3mcp5toolsNtB5_14CloneIssueTool3new
FN:62,_RNvMs_NtNtCslEfzt21w4nZ_13rust_jira_mcp3mcp5toolsNtB4_16SearchIssuesTool3new
FN:639,_RNvMsa_NtNtCslEfzt21w4nZ_13rust_jira_mcp3mcp5toolsNtB5_24GetProjectComponentsTool3new
FN:693,_RNvMsb_NtNtCslEfzt21w4nZ_13rust_jira_mcp3mcp5toolsNtB5_28GetPrioritiesAndStatusesTool3new
FN:760,_RNvMsc_NtNtCslEfzt21w4nZ_13rust_jira_mcp3mcp5toolsNtB5_19GetCustomFieldsTool3new
FN:825,_RNvMsd_NtNtCslEfzt21w4nZ_13rust_jira_mcp3mcp5toolsNtB5_22GetProjectMetadataTool3new
FN:874,_RNvMse_NtNtCslEfzt21w4nZ_13rust_jira_mcp3mcp5toolsNtB5_20BulkUpdateIssuesTool3new
FN:963,_RNvMsf_NtNtCslEfzt21w4nZ_13rust_jira_mcp3mcp5toolsNtB5_24BulkTransitionIssuesTool3new
FN:1066,_RNvMsg_NtNtCslEfzt21w4nZ_13rust_jira_mcp3mcp5toolsNtB5_19BulkAddCommentsTool3new
FN:1158,_RNvMsh_NtNtCslEfzt21w4nZ_13rust_jira_mcp3mcp5toolsNtB5_23MixedBulkOperationsTool3new
FN:1292,_RNvMsi_NtNtCslEfzt21w4nZ_13rust_jira_mcp3mcp5toolsNtB5_16GetLinkTypesTool3new
FN:1339,_RNvMsj_NtNtCslEfzt21w4nZ_13rust_jira_mcp3mcp5toolsNtB5_17GetIssueLinksTool3new
FN:1399,_RNvMsk_NtNtCslEfzt21w4nZ_13rust_jira_mcp3mcp5toolsNtB5_19CreateIssueLinkTool3new
FN:1461,_RNvMsl_NtNtCslEfzt21w4nZ_13rust_jira_mcp3mcp5toolsNtB5_19DeleteIssueLinkTool3new
FN:1502,_RNvMsm_NtNtCslEfzt21w4nZ_13rust_jira_mcp3mcp5toolsNtB5_23GetIssueAttachmentsTool3new
FN:1559,_RNvMsn_NtNtCslEfzt21w4nZ_13rust_jira_mcp3mcp5toolsNtB5_20UploadAttachmentTool3new
FN:1637,_RNvMso_NtNtCslEfzt21w4nZ_13rust_jira_mcp3mcp5toolsNtB5_20DeleteAttachmentTool3new
FN:1676,_RNvMsp_NtNtCslEfzt21w4nZ_13rust_jira_mcp3mcp5toolsNtB5_22DownloadAttachmentTool3new
FN:1723,_RNvMsq_NtNtCslEfzt21w4nZ_13rust_jira_mcp3mcp5toolsNtB5_20GetIssueWorkLogsTool3new
FN:1789,_RNvMsr_NtNtCslEfzt21w4nZ_13rust_jira_mcp3mcp5toolsNtB5_14AddWorkLogTool3new
FN:1854,_RNvMss_NtNtCslEfzt21w4nZ_13rust_jira_mcp3mcp5toolsNtB5_17UpdateWorkLogTool3new
FN:1923,_RNvMst_NtNtCslEfzt21w4nZ_13rust_jira_mcp3mcp5toolsNtB5_17DeleteWorkLogTool3new
FN:1972,_RNvMsu_NtNtCslEfzt21w4nZ_13rust_jira_mcp3mcp5toolsNtB5_20GetIssueWatchersTool3new
FN:2030,_RNvMsv_NtNtCslEfzt21w4nZ_13rust_jira_mcp3mcp5toolsNtB5_19AddIssueWatcherTool3new
FN:2077,_RNvMsw_NtNtCslEfzt21w4nZ_13rust_jira_mcp3mcp5toolsNtB5_22RemoveIssueWatcherTool3new
FN:2128,_RNvMsx_NtNtCslEfzt21w4nZ_13rust_jira_mcp3mcp5toolsNtB5_13GetLabelsTool3new
FN:2168,_RNvMsy_NtNtCslEfzt21w4nZ_13rust_jira_mcp3mcp5toolsNtB5_15CreateLabelTool3new
FN:2211,_RNvMsz_NtNtCslEfzt21w4nZ_13rust_jira_mcp3mcp5toolsNtB5_15UpdateLabelTool3new
FN:1348,_RNvXs10_NtNtCslEfzt21w4nZ_13rust_jira_mcp3mcp5toolsNtB6_17GetIssueLinksToolNtNtB8_6server14MCPToolHandler6handle
FN:1408,_RNvXs11_NtNtCslEfzt21w4nZ_13rust_jira_mcp3mcp5toolsNtB6_19CreateIssueLinkToolNtNtB8_6server14MCPToolHandler6handle
FN:1470,_RNvXs12_NtNtCslEfzt21w4nZ_13rust_jira_mcp3mcp5toolsNtB6_19DeleteIssueLinkToolNtNtB8_6server14MCPToolHandler6handle
FN:1511,_RNvXs13_NtNtCslEfzt21w4nZ_13rust_jira_mcp3mcp5toolsNtB6_23GetIssueAttachmentsToolNtNtB8_6server14MCPToolHandler6handle
FN:1568,_RNvXs14_NtNtCslEfzt21w4nZ_13rust_jira_mcp3mcp5toolsNtB6_20UploadAttachmentToolNtNtB8_6server14MCPToolHandler6handle
FN:1646,_RNvXs15_NtNtCslEfzt21w4nZ_13rust_jira_mcp3mcp5toolsNtB6_20DeleteAttachmentToolNtNtB8_6server14MCPToolHandler6handle
FN:1685,_RNvXs16_NtNtCslEfzt21w4nZ_13rust_jira_mcp3mcp5toolsNtB6_22DownloadAttachmentToolNtNtB8_6server14MCPToolHandler6handle
FN:1732,_RNvXs17_NtNtCslEfzt21w4nZ_13rust_jira_mcp3mcp5toolsNtB6_20GetIssueWorkLogsToolNtNtB8_6server14MCPToolHandler6handle
FN:1798,_RNvXs18_NtNtCslEfzt21w4nZ_13rust_jira_mcp3mcp5toolsNtB6_14AddWorkLogToolNtNtB8_6server14MCPToolHandler6handle
FN:1863,_RNvXs19_NtNtCslEfzt21w4nZ_13rust_jira_mcp3mcp5toolsNtB6_17UpdateWorkLogToolNtNtB8_6server14MCPToolHandler6handle
FN:1932,_RNvXs1a_NtNtCslEfzt21w4nZ_13rust_jira_mcp3mcp5toolsNtB6_17DeleteWorkLogToolNtNtB8_6server14MCPToolHandler6handle
FN:1981,_RNvXs1b_NtNtCslEfzt21w4nZ_13rust_jira_mcp3mcp5toolsNtB6_20GetIssueWatchersToolNtNtB8_6server14MCPToolHandler6handle
FN:2039,_RNvXs1c_NtNtCslEfzt21w4nZ_13rust_jira_mcp3mcp5toolsNtB6_19AddIssueWatcherToolNtNtB8_6server14MCPToolHandler6handle
FN:2086,_RNvXs1d_NtNtCslEfzt21w4nZ_13rust_jira_mcp3mcp5toolsNtB6_22RemoveIssueWatcherToolNtNtB8_6server14MCPToolHandler6handle
FN:2137,_RNvXs1e_NtNtCslEfzt21w4nZ_13rust_jira_mcp3mcp5toolsNtB6_13GetLabelsToolNtNtB8_6server14MCPToolHandler6handle
FN:2177,_RNvXs1f_NtNtCslEfzt21w4nZ_13rust_jira_mcp3mcp5toolsNtB6_15CreateLabelToolNtNtB8_6server14MCPToolHandler6handle
FN:2220,_RNvXs1g_NtNtCslEfzt21w4nZ_13rust_jira_mcp3mcp5toolsNtB6_15UpdateLabelToolNtNtB8_6server14MCPToolHandler6handle
FN:2273,_RNvXs1h_NtNtCslEfzt21w4nZ_13rust_jira_mcp3mcp5toolsNtB6_15DeleteLabelToolNtNtB8_6server14MCPToolHandler6handle
FN:2311,_RNvXs1i_NtNtCslEfzt21w4nZ_13rust_jira_mcp3mcp5toolsNtB6_19CreateComponentToolNtNtB8_6server14MCPToolHandler6handle
FN:2375,_RNvXs1j_NtNtCslEfzt21w4nZ_13rust_jira_mcp3mcp5toolsNtB6_19UpdateComponentToolNtNtB8_6server14MCPToolHandler6handle
FN:2438,_RNvXs1k_NtNtCslEfzt21w4nZ_13rust_jira_mcp3mcp5toolsNtB6_19DeleteComponentToolNtNtB8_6server14MCPToolHandler6handle
FN:2479,_RNvXs1l_NtNtCslEfzt21w4nZ_13rust_jira_mcp3mcp5toolsNtB6_14CloneIssueToolNtNtB8_6server14MCPToolHandler6handle
FN:32,_RNvXsF_NtNtCslEfzt21w4nZ_13rust_jira_mcp3mcp5toolsNtB5_12TestAuthToolNtNtB7_6server14MCPToolHandler6handle
FN:71,_RNvXsG_NtNtCslEfzt21w4nZ_13rust_jira_mcp3mcp5toolsNtB5_16SearchIssuesToolNtNtB7_6server14MCPToolHandler6handle
FN:142,_RNvXsH_NtNtCslEfzt21w4nZ_13rust_jira_mcp3mcp5toolsNtB5_15CreateIssueToolNtNtB7_6server14MCPToolHandler6handle
FN:181,_RNvXsI_NtNtCslEfzt21w4nZ_13rust_jira_mcp3mcp5toolsNtB5_15UpdateIssueToolNtNtB7_6server14MCPToolHandler6handle
FN:227,_RNvXsJ_NtNtCslEfzt21w4nZ_13rust_jira_mcp3mcp5toolsNtB5_12GetIssueToolNtNtB7_6server14MCPToolHandler6handle
FN:289,_RNvXsK_NtNtCslEfzt21w4nZ_13rust_jira_mcp3mcp5toolsNtB5_15GetCommentsToolNtNtB7_6server14MCPToolHandler6handle
FN:343,_RNvXsL_NtNtCslEfzt21w4nZ_13rust_jira_mcp3mcp5toolsNtB5_14AddCommentToolNtNtB7_6server14MCPToolHandler6handle
FN:392,_RNvXsM_NtNtCslEfzt21w4nZ_13rust_jira_mcp3mcp5toolsNtB5_18GetTransitionsToolNtNtB7_6server14MCPToolHandler6handle
FN:445,_RNvXsN_NtNtCslEfzt21w4nZ_13rust_jira_mcp3mcp5toolsNtB5_19TransitionIssueToolNtNtB7_6server14MCPToolHandler6handle
FN:500,_RNvXsO_NtNtCslEfzt21w4nZ_13rust_jira_mcp3mcp5toolsNtB5_20GetProjectConfigToolNtNtB7_6server14MCPToolHandler6handle
FN:544,_RNvXsP_NtNtCslEfzt21w4nZ_13rust_jira_mcp3mcp5toolsNtB5_17GetIssueTypesToolNtNtB7_6server14MCPToolHandler6handle
FN:601,_RNvXsQ_NtNtCslEfzt21w4nZ_13rust_jira_mcp3mcp5toolsNtB5_24GetIssueTypeMetadataToolNtNtB7_6server14MCPToolHandler6handle
FN:648,_RNvXsR_NtNtCslEfzt21w4nZ_13rust_jira_mcp3mcp5toolsNtB5_24GetProjectComponentsToolNtNtB7_6server14MCPToolHandler6handle
FN:702,_RNvXsS_NtNtCslEfzt21w4nZ_13rust_jira_mcp3mcp5toolsNtB5_28GetPrioritiesAndStatusesToolNtNtB7_6server14MCPToolHandler6handle
FN:769,_RNvXsT_NtNtCslEfzt21w4nZ_13rust_jira_mcp3mcp5toolsNtB5_19GetCustomFieldsToolNtNtB7_6server14MCPToolHandler6handle
FN:834,_RNvXsU_NtNtCslEfzt21w4nZ_13rust_jira_mcp3mcp5toolsNtB5_22GetProjectMetadataToolNtNtB7_6server14MCPToolHandler6handle
FN:883,_RNvXsV_NtNtCslEfzt21w4nZ_13rust_jira_mcp3mcp5toolsNtB5_20BulkUpdateIssuesToolNtNtB7_6server14MCPToolHandler6handle
FN:972,_RNvXsW_NtNtCslEfzt21w4nZ_13rust_jira_mcp3mcp5toolsNtB5_24BulkTransitionIssuesToolNtNtB7_6server14MCPToolHandler6handle
FN:1075,_RNvXsX_NtNtCslEfzt21w4nZ_13rust_jira_mcp3mcp5toolsNtB5_19BulkAddCommentsToolNtNtB7_6server14MCPToolHandler6handle
FN:1167,_RNvXsY_NtNtCslEfzt21w4nZ_13rust_jira_mcp3mcp5toolsNtB5_23MixedBulkOperationsToolNtNtB7_6server14MCPToolHandler6handle
FN:1301,_RNvXsZ_NtNtCslEfzt21w4nZ_13rust_jira_mcp3mcp5toolsNtB5_16GetLinkTypesToolNtNtB7_6server14MCPToolHandler6handle
FN:1351,_RNCNCNvXs10_NtNtCsbRuuH6jbcRQ_13rust_jira_mcp3mcp5toolsNtBa_17GetIssueLinksToolNtNtBc_6server14MCPToolHandler6handle00Be_
FN:1366,_RNCNCNvXs10_NtNtCsbRuuH6jbcRQ_13rust_jira_mcp3mcp5toolsNtBa_17GetIssueLinksToolNtNtBc_6server14MCPToolHandler6handle0s0_0Be_
FN:1370,_RNCNCNvXs10_NtNtCsbRuuH6jbcRQ_13rust_jira_mcp3mcp5toolsNtBa_17GetIssueLinksToolNtNtBc_6server14MCPToolHandler6handle0s1_0Be_
FN:1352,_RNCNCNvXs10_NtNtCsbRuuH6jbcRQ_13rust_jira_mcp3mcp5toolsNtBa_17GetIssueLinksToolNtNtBc_6server14MCPToolHandler6handle0s_0Be_
FN:1411,_RNCNCNvXs11_NtNtCsbRuuH6jbcRQ_13rust_jira_mcp3mcp5toolsNtBa_19CreateIssueLinkToolNtNtBc_6server14MCPToolHandler6handle00Be_
FN:1418,_RNCNCNvXs11_NtNtCsbRuuH6jbcRQ_13rust_jira_mcp3mcp5toolsNtBa_19CreateIssueLinkToolNtNtBc_6server14MCPToolHandler6handle0s0_0Be_
FN:1419,_RNCNCNvXs11_NtNtCsbRuuH6jbcRQ_13rust_jira_mcp3mcp5toolsNtBa_19CreateIssueLinkToolNtNtBc_6server14MCPToolHandler6handle0s1_0Be_
FN:1425,_RNCNCNvXs11_NtNtCsbRuuH6jbcRQ_13rust_jira_mcp3mcp5toolsNtBa_19CreateIssueLinkToolNtNtBc_6server14MCPToolHandler6handle0s2_0Be_
FN:1426,_RNCNCNvXs11_NtNtCsbRuuH6jbcRQ_13rust_jira_mcp3mcp5toolsNtBa_19CreateIssueLinkToolNtNtBc_6server14MCPToolHandler6handle0s3_0Be_
FN:1430,_RNCNCNvXs11_NtNtCsbRuuH6jbcRQ_13rust_jira_mcp3mcp5toolsNtBa_19CreateIssueLinkToolNtNtBc_6server14MCPToolHandler6handle0s4_0Be_
FN:1412,_RNCNCNvXs11_NtNtCsbRuuH6jbcRQ_13rust_jira_mcp3mcp5toolsNtBa_19CreateIssueLinkToolNtNtBc_6server14MCPToolHandler6handle0s_0Be_
FN:1473,_RNCNCNvXs12_NtNtCsbRuuH6jbcRQ_13rust_jira_mcp3mcp5toolsNtBa_19DeleteIssueLinkToolNtNtBc_6server14MCPToolHandler6handle00Be_
FN:1474,_RNCNCNvXs12_NtNtCsbRuuH6jbcRQ_13rust_jira_mcp3mcp5toolsNtBa_19DeleteIssueLinkToolNtNtBc_6server14MCPToolHandler6handle0s_0Be_
FN:1514,_RNCNCNvXs13_NtNtCsbRuuH6jbcRQ_13rust_jira_mcp3mcp5toolsNtBa_23GetIssueAttachmentsToolNtNtBc_6server14MCPToolHandler6handle00Be_
FN:1515,_RNCNCNvXs13_NtNtCsbRuuH6jbcRQ_13rust_jira_mcp3mcp5toolsNtBa_23GetIssueAttachmentsToolNtNtBc_6server14MCPToolHandler6handle0s_0Be_
FN:1571,_RNCNCNvXs14_NtNtCsbRuuH6jbcRQ_13rust_jira_mcp3mcp5toolsNtBa_20UploadAttachmentToolNtNtBc_6server14MCPToolHandler6handle00Be_
FN:1578,_RNCNCNvXs14_NtNtCsbRuuH6jbcRQ_13rust_jira_mcp3mcp5toolsNtBa_20UploadAttachmentToolNtNtBc_6server14MCPToolHandler6handle0s0_0Be_
FN:1579,_RNCNCNvXs14_NtNtCsbRuuH6jbcRQ_13rust_jira_mcp3mcp5toolsNtBa_20UploadAttachmentToolNtNtBc_6server14MCPToolHandler6handle0s1_0Be_
FN:1585,_RNCNCNvXs14_NtNtCsbRuuH6jbcRQ_13rust_jira_mcp3mcp5toolsNtBa_20UploadAttachmentToolNtNtBc_6server14MCPToolHandler6handle0s2_0Be_
FN:1586,_RNCNCNvXs14_NtNtCsbRuuH6jbcRQ_13rust_jira_mcp3mcp5toolsNtBa_20UploadAttachmentToolNtNtBc_6server14MCPToolHandler6handle0s3_0Be_
FN:1592,_RNCNCNvXs14_NtNtCsbRuuH6jbcRQ_13rust_jira_mcp3mcp5toolsNtBa_20UploadAttachmentToolNtNtBc_6server14MCPToolHandler6handle0s4_0Be_
FN:1595,_RNCNCNvXs14_NtNtCsbRuuH6jbcRQ_13rust_jira_mcp3mcp5toolsNtBa_20UploadAttachmentToolNtNtBc_6server14MCPToolHandler6handle0s5_0Be_
FN:1572,_RNCNCNvXs14_NtNtCsbRuuH6jbcRQ_13rust_jira_mcp3mcp5toolsNtBa_20UploadAttachmentToolNtNtBc_6server14MCPToolHandler6handle0s_0Be_
FN:1649,_RNCNCNvXs15_NtNtCsbRuuH6jbcRQ_13rust_jira_mcp3mcp5toolsNtBa_20DeleteAttachmentToolNtNtBc_6server14MCPToolHandler6handle00Be_
FN:1650,_RNCNCNvXs15_NtNtCsbRuuH6jbcRQ_13rust_jira_mcp3mcp5toolsNtBa_20DeleteAttachmentToolNtNtBc_6server14MCPToolHandler6handle0s_0Be_
FN:1688,_RNCNCNvXs16_NtNtCsbRuuH6jbcRQ_13rust_jira_mcp3mcp5toolsNtBa_22DownloadAttachmentToolNtNtBc_6server14MCPToolHandler6handle00Be_
FN:1689,_RNCNCNvXs16_NtNtCsbRuuH6jbcRQ_13rust_jira_mcp3mcp5toolsNtBa_22DownloadAttachmentToolNtNtBc_6server14MCPToolHandler6handle0s_0Be_
FN:1735,_RNCNCNvXs17_NtNtCsbRuuH6jbcRQ_13rust_jira_mcp3mcp5toolsNtBa_20GetIssueWorkLogsToolNtNtBc_6server14MCPToolHandler6handle00Be_
FN:1736,_RNCNCNvXs17_NtNtCsbRuuH6jbcRQ_13rust_jira_mcp3mcp5toolsNtBa_20GetIssueWorkLogsToolNtNtBc_6server14MCPToolHandler6handle0s_0Be_
FN:1801,_RNCNCNvXs18_NtNtCsbRuuH6jbcRQ_13rust_jira_mcp3mcp5toolsNtBa_14AddWorkLogToolNtNtBc_6server14MCPToolHandler6handle00Be_
FN:1808,_RNCNCNvXs18_NtNtCsbRuuH6jbcRQ_13rust_jira_mcp3mcp5toolsNtBa_14AddWorkLogToolNtNtBc_6server14MCPToolHandler6handle0s0_0Be_
FN:1809,_RNCNCNvXs18_NtNtCsbRuuH6jbcRQ_13rust_jira_mcp3mcp5toolsNtBa_14AddWorkLogToolNtNtBc_6server14MCPToolHandler6handle0s1_0Be_
FN:1813,_RNCNCNvXs18_NtNtCsbRuuH6jbcRQ_13rust_jira_mcp3mcp5toolsNtBa_14AddWorkLogToolNtNtBc_6server14MCPToolHandler6handle0s2_0Be_
FN:1814,_RNCNCNvXs18_NtNtCsbRuuH6jbcRQ_13rust_jira_mcp3mcp5toolsNtBa_14AddWorkLogToolNtNtBc_6server14MCPToolHandler6handle0s3_0Be_
FN:1802,_RNCNCNvXs18_NtNtCsbRuuH6jbcRQ_13rust_jira_mcp3mcp5toolsNtBa_14AddWorkLogToolNtNtBc_6server14MCPToolHandler6handle0s_0Be_
FN:1866,_RNCNCNvXs19_NtNtCsbRuuH6jbcRQ_13rust_jira_mcp3mcp5toolsNtBa_17UpdateWorkLogToolNtNtBc_6server14MCPToolHandler6handle00Be_
FN:1873,_RNCNCNvXs19_NtNtCsbRuuH6jbcRQ_13rust_jira_mcp3mcp5toolsNtBa_17UpdateWorkLogToolNtNtBc_6server14MCPToolHandler6handle0s0_0Be_
FN:1874,_RNCNCNvXs19_NtNtCsbRuuH6jbcRQ_13rust_jira_mcp3mcp5toolsNtBa_17UpdateWorkLogToolNtNtBc_6server14MCPToolHandler6handle0s1_0Be_
FN:1878,_RNCNCNvXs19_NtNtCsbRuuH6jbcRQ_13rust_jira_mcp3mcp5toolsNtBa_17UpdateWorkLogToolNtNtBc_6server14MCPToolHandler6handle0s2_0Be_
FN:1879,_RNCNCNvXs19_NtNtCsbRuuH6jbcRQ_13rust_jira_mcp3mcp5toolsNtBa_17UpdateWorkLogToolNtNtBc_6server14MCPToolHandler6handle0s3_0Be_
FN:1880,_RNCNCNvXs19_NtNtCsbRuuH6jbcRQ_13rust_jira_mcp3mcp5toolsNtBa_17UpdateWorkLogToolNtNtBc_6server14MCPToolHandler6handle0s4_0Be_
FN:1867,_RNCNCNvXs19_NtNtCsbRuuH6jbcRQ_13rust_jira_mcp3mcp5toolsNtBa_17UpdateWorkLogToolNtNtBc_6server14MCPToolHandler6handle0s_0Be_
FN:1935,_RNCNCNvXs1a_NtNtCsbRuuH6jbcRQ_13rust_jira_mcp3mcp5toolsNtBa_17DeleteWorkLogToolNtNtBc_6server14MCPToolHandler6handle00Be_
FN:1942,_RNCNCNvXs1a_NtNtCsbRuuH6jbcRQ_13rust_jira_mcp3mcp5toolsNtBa_17DeleteWorkLogToolNtNtBc_6server14MCPToolHandler6handle0s0_0Be_
FN:1943,_RNCNCNvXs1a_NtNtCsbRuuH6jbcRQ_13rust_jira_mcp3mcp5toolsNtBa_17DeleteWorkLogToolNtNtBc_6server14MCPToolHandler6handle0s1_0Be_
FN:1936,_RNCNCNvXs1a_NtNtCsbRuuH6jbcRQ_13rust_jira_mcp3mcp5toolsNtBa_17DeleteWorkLogToolNtNtBc_6server14MCPToolHandler6handle0s_0Be_
FN:1984,_RNCNCNvXs1b_NtNtCsbRuuH6jbcRQ_13rust_jira_mcp3mcp5toolsNtBa_20GetIssueWatchersToolNtNtBc_6server14MCPToolHandler6handle00Be_
FN:1985,_RNCNCNvXs1b_NtNtCsbRuuH6jbcRQ_13rust_jira_mcp3mcp5toolsNtBa_20GetIssueWatchersToolNtNtBc_6server14MCPToolHandler6handle0s_0Be_
FN:2042,_RNCNCNvXs1c_NtNtCsbRuuH6jbcRQ_13rust_jira_mcp3mcp5toolsNtBa_19AddIssueWatcherToolNtNtBc_6server14MCPToolHandler6handle00Be_
FN:2049,_RNCNCNvXs1c_NtNtCsbRuuH6jbcRQ_13rust_jira_mcp3mcp5toolsNtBa_19AddIssueWatcherToolNtNtBc_6server14MCPToolHandler6handle0s0_0Be_
FN:2050,_RNCNCNvXs1c_NtNtCsbRuuH6jbcRQ_13rust_jira_mcp3mcp5toolsNtBa_19AddIssueWatcherToolNtNtBc_6server14MCPToolHandler6handle0s1_0Be_
FN:2043,_RNCNCNvXs1c_NtNtCsbRuuH6jbcRQ_13rust_jira_mcp3mcp5toolsNtBa_19AddIssueWatcherToolNtNtBc_6server14MCPToolHandler6handle0s_0Be_
FN:2089,_RNCNCNvXs1d_NtNtCsbRuuH6jbcRQ_13rust_jira_mcp3mcp5toolsNtBa_22RemoveIssueWatcherToolNtNtBc_6server14MCPToolHandler6handle00Be_
FN:2096,_RNCNCNvXs1d_NtNtCsbRuuH6jbcRQ_13rust_jira_mcp3mcp5toolsNtBa_22RemoveIssueWatcherToolNtNtBc_6server14MCPToolHandler6handle0s0_0Be_
FN:2097,_RNCNCNvXs1d_NtNtCsbRuuH6jbcRQ_13rust_jira_mcp3mcp5toolsNtBa_22RemoveIssueWatcherToolNtNtBc_6server14MCPToolHandler6handle0s1_0Be_
FN:2090,_RNCNCNvXs1d_NtNtCsbRuuH6jbcRQ_13rust_jira_mcp3mcp5toolsNtBa_22RemoveIssueWatcherToolNtNtBc_6server14MCPToolHandler6handle0s_0Be_
FN:2178,_RNCNCNvXs1f_NtNtCsbRuuH6jbcRQ_13rust_jira_mcp3mcp5toolsNtBa_15CreateLabelToolNtNtBc_6server14MCPToolHandler6handle00Be_
FN:2178,_RNCNCNvXs1f_NtNtCsbRuuH6jbcRQ_13rust_jira_mcp3mcp5toolsNtBa_15CreateLabelToolNtNtBc_6server14MCPToolHandler6handle0s_0Be_
FN:2223,_RNCNCNvXs1g_NtNtCsbRuuH6jbcRQ_13rust_jira_mcp3mcp5toolsNtBa_15UpdateLabelToolNtNtBc_6server14MCPToolHandler6handle00Be_
FN:2230,_RNCNCNvXs1g_NtNtCsbRuuH6jbcRQ_13rust_jira_mcp3mcp5toolsNtBa_15UpdateLabelToolNtNtBc_6server14MCPToolHandler6handle0s0_0Be_
FN:2231,_RNCNCNvXs1g_NtNtCsbRuuH6jbcRQ_13rust_jira_mcp3mcp5toolsNtBa_15UpdateLabelToolNtNtBc_6server14MCPToolHandler6handle0s1_0Be_
FN:2224,_RNCNCNvXs1g_NtNtCsbRuuH6jbcRQ_13rust_jira_mcp3mcp5toolsNtBa_15UpdateLabelToolNtNtBc_6server14MCPToolHandler6handle0s_0Be_
FN:2274,_RNCNCNvXs1h_NtNtCsbRuuH6jbcRQ_13rust_jira_mcp3mcp5toolsNtBa_15DeleteLabelToolNtNtBc_6server14MCPToolHandler6handle00Be_
FN:2274,_RNCNCNvXs1h_NtNtCsbRuuH6jbcRQ_13rust_jira_mcp3mcp5toolsNtBa_15DeleteLabelToolNtNtBc_6server14MCPToolHandler6handle0s_0Be_
FN:2312,_RNCNCNvXs1i_NtNtCsbRuuH6jbcRQ_13rust_jira_mcp3mcp5toolsNtBa_19CreateComponentToolNtNtBc_6server14MCPToolHandler6handle00Be_
FN:2318,_RNCNCNvXs1i_NtNtCsbRuuH6jbcRQ_13rust_jira_mcp3mcp5toolsNtBa_19CreateComponentToolNtNtBc_6server14MCPToolHandler6handle0s0_0Be_
FN:2319,_RNCNCNvXs1i_NtNtCsbRuuH6jbcRQ_13rust_jira_mcp3mcp5toolsNtBa_19CreateComponentToolNtNtBc_6server14MCPToolHandler6handle0s1_0Be_
FN:2323,_RNCNCNvXs1i_NtNtCsbRuuH6jbcRQ_13rust_jira_mcp3mcp5toolsNtBa_19CreateComponentToolNtNtBc_6server14MCPToolHandler6handle0s2_0Be_
FN:2324,_RNCNCNvXs1i_NtNtCsbRuuH6jbcRQ_13rust_jira_mcp3mcp5toolsNtBa_19CreateComponentToolNtNtBc_6server14MCPToolHandler6handle0s3_0Be_
FN:2325,_RNCNCNvXs1i_NtNtCsbRuuH6jbcRQ_13rust_jira_mcp3mcp5toolsNtBa_19CreateComponentToolNtNtBc_6server14MCPToolHandler6handle0s4_0Be_
FN:2312,_RNCNCNvXs1i_NtNtCsbRuuH6jbcRQ_13rust_jira_mcp3mcp5toolsNtBa_19CreateComponentToolNtNtBc_6server14MCPToolHandler6handle0s_0Be_
FN:2378,_RNCNCNvXs1j_NtNtCsbRuuH6jbcRQ_13rust_jira_mcp3mcp5toolsNtBa_19UpdateComponentToolNtNtBc_6server14MCPToolHandler6handle00Be_
FN:2383,_RNCNCNvXs1j_NtNtCsbRuuH6jbcRQ_13rust_jira_mcp3mcp5toolsNtBa_19UpdateComponentToolNtNtBc_6server14MCPToolHandler6handle0s0_0Be_
FN:2384,_RNCNCNvXs1j_NtNtCsbRuuH6jbcRQ_13rust_jira_mcp3mcp5toolsNtBa_19UpdateComponentToolNtNtBc_6server14MCPToolHandler6handle0s1_0Be_
FN:2385,_RNCNCNvXs1j_NtNtCsbRuuH6jbcRQ_13rust_jira_mcp3mcp5toolsNtBa_19UpdateComponentToolNtNtBc_6server14MCPToolHandler6handle0s2_0Be_
FN:2386,_RNCNCNvXs1j_NtNtCsbRuuH6jbcRQ_13rust_jira_mcp3mcp5toolsNtBa_19UpdateComponentToolNtNtBc_6server14MCPToolHandler6handle0s3_0Be_
FN:2379,_RNCNCNvXs1j_NtNtCsbRuuH6jbcRQ_13rust_jira_mcp3mcp5toolsNtBa_19UpdateComponentToolNtNtBc_6server14MCPToolHandler6handle0s_0Be_
FN:2441,_RNCNCNvXs1k_NtNtCsbRuuH6jbcRQ_13rust_jira_mcp3mcp5toolsNtBa_19DeleteComponentToolNtNtBc_6server14MCPToolHandler6handle00Be_
FN:2442,_RNCNCNvXs1k_NtNtCsbRuuH6jbcRQ_13rust_jira_mcp3mcp5toolsNtBa_19DeleteComponentToolNtNtBc_6server14MCPToolHandler6handle0s_0Be_
FN:2482,_RNCNCNvXs1l_NtNtCsbRuuH6jbcRQ_13rust_jira_mcp3mcp5toolsNtBa_14CloneIssueToolNtNtBc_6server14MCPToolHandler6handle00Be_
FN:2489,_RNCNCNvXs1l_NtNtCsbRuuH6jbcRQ_13rust_jira_mcp3mcp5toolsNtBa_14CloneIssueToolNtNtBc_6server14MCPToolHandler6handle0s0_0Be_
FN:2490,_RNCNCNvXs1l_NtNtCsbRuuH6jbcRQ_13rust_jira_mcp3mcp5toolsNtBa_14CloneIssueToolNtNtBc_6server14MCPToolHandler6handle0s1_0Be_
FN:2496,_RNCNCNvXs1l_NtNtCsbRuuH6jbcRQ_13rust_jira_mcp3mcp5toolsNtBa_14CloneIssueToolNtNtBc_6server14MCPToolHandler6handle0s2_0Be_
FN:2497,_RNCNCNvXs1l_NtNtCsbRuuH6jbcRQ_13rust_jira_mcp3mcp5toolsNtBa_14CloneIssueToolNtNtBc_6server14MCPToolHandler6handle0s3_0Be_
FN:2503,_RNCNCNvXs1l_NtNtCsbRuuH6jbcRQ_13rust_jira_mcp3mcp5toolsNtBa_14CloneIssueToolNtNtBc_6server14MCPToolHandler6handle0s4_0Be_
FN:2504,_RNCNCNvXs1l_NtNtCsbRuuH6jbcRQ_13rust_jira_mcp3mcp5toolsNtBa_14CloneIssueToolNtNtBc_6server14MCPToolHandler6handle0s5_0Be_
FN:2508,_RNCNCNvXs1l_NtNtCsbRuuH6jbcRQ_13rust_jira_mcp3mcp5toolsNtBa_14CloneIssueToolNtNtBc_6server14MCPToolHandler6handle0s6_0Be_
FN:2483,_RNCNCNvXs1l_NtNtCsbRuuH6jbcRQ_13rust_jira_mcp3mcp5toolsNtBa_14CloneIssueToolNtNtBc_6server14MCPToolHandler6handle0s_0Be_
FN:74,_RNCNCNvXsG_NtNtCsbRuuH6jbcRQ_13rust_jira_mcp3mcp5toolsNtB9_16SearchIssuesToolNtNtBb_6server14MCPToolHandler6handle00Bd_
FN:80,_RNCNCNvXsG_NtNtCsbRuuH6jbcRQ_13rust_jira_mcp3mcp5toolsNtB9_16SearchIssuesToolNtNtBb_6server14MCPToolHandler6handle0s0_0Bd_
FN:85,_RNCNCNvXsG_NtNtCsbRuuH6jbcRQ_13rust_jira_mcp3mcp5toolsNtB9_16SearchIssuesToolNtNtBb_6server14MCPToolHandler6handle0s1_0Bd_
FN:111,_RNCNCNvXsG_NtNtCsbRuuH6jbcRQ_13rust_jira_mcp3mcp5toolsNtB9_16SearchIssuesToolNtNtBb_6server14MCPToolHandler6handle0s3_0Bd_
FN:75,_RNCNCNvXsG_NtNtCsbRuuH6jbcRQ_13rust_jira_mcp3mcp5toolsNtB9_16SearchIssuesToolNtNtBb_6server14MCPToolHandler6handle0s_0Bd_
FN:143,_RNCNCNvXsH_NtNtCsbRuuH6jbcRQ_13rust_jira_mcp3mcp5toolsNtB9_15CreateIssueToolNtNtBb_6server14MCPToolHandler6handle00Bd_
FN:184,_RNCNCNvXsI_NtNtCsbRuuH6jbcRQ_13rust_jira_mcp3mcp5toolsNtB9_15UpdateIssueToolNtNtBb_6server14MCPToolHandler6handle00Bd_
FN:189,_RNCNCNvXsI_NtNtCsbRuuH6jbcRQ_13rust_jira_mcp3mcp5toolsNtB9_15UpdateIssueToolNtNtBb_6server14MCPToolHandler6handle0s0_0Bd_
FN:185,_RNCNCNvXsI_NtNtCsbRuuH6jbcRQ_13rust_jira_mcp3mcp5toolsNtB9_15UpdateIssueToolNtNtBb_6server14MCPToolHandler6handle0s_0Bd_
FN:230,_RNCNCNvXsJ_NtNtCsbRuuH6jbcRQ_13rust_jira_mcp3mcp5toolsNtB9_12GetIssueToolNtNtBb_6server14MCPToolHandler6handle00Bd_
FN:242,_RNCNCNvXsJ_NtNtCsbRuuH6jbcRQ_13rust_jira_mcp3mcp5toolsNtB9_12GetIssueToolNtNtBb_6server14MCPToolHandler6handle0s0_0Bd_
FN:248,_RNCNCNvXsJ_NtNtCsbRuuH6jbcRQ_13rust_jira_mcp3mcp5toolsNtB9_12GetIssueToolNtNtBb_6server14MCPToolHandler6handle0s1_0Bd_
FN:249,_RNCNCNvXsJ_NtNtCsbRuuH6jbcRQ_13rust_jira_mcp3mcp5toolsNtB9_12GetIssueToolNtNtBb_6server14MCPToolHandler6handle0s2_0Bd_
FN:255,_RNCNCNvXsJ_NtNtCsbRuuH6jbcRQ_13rust_jira_mcp3mcp5toolsNtB9_12GetIssueToolNtNtBb_6server14MCPToolHandler6handle0s3_0Bd_
FN:256,_RNCNCNvXsJ_NtNtCsbRuuH6jbcRQ_13rust_jira_mcp3mcp5toolsNtB9_12GetIssueToolNtNtBb_6server14MCPToolHandler6handle0s4_0Bd_
FN:231,_RNCNCNvXsJ_NtNtCsbRuuH6jbcRQ_13rust_jira_mcp3mcp5toolsNtB9_12GetIssueToolNtNtBb_6server14MCPToolHandler6handle0s_0Bd_
FN:292,_RNCNCNvXsK_NtNtCsbRuuH6jbcRQ_13rust_jira_mcp3mcp5toolsNtB9_15GetCommentsToolNtNtBb_6server14MCPToolHandler6handle00Bd_
FN:293,_RNCNCNvXsK_NtNtCsbRuuH6jbcRQ_13rust_jira_mcp3mcp5toolsNtB9_15GetCommentsToolNtNtBb_6server14MCPToolHandler6handle0s_0Bd_
FN:346,_RNCNCNvXsL_NtNtCsbRuuH6jbcRQ_13rust_jira_mcp3mcp5toolsNtB9_14AddCommentToolNtNtBb_6server14MCPToolHandler6handle00Bd_
FN:353,_RNCNCNvXsL_NtNtCsbRuuH6jbcRQ_13rust_jira_mcp3mcp5toolsNtB9_14AddCommentToolNtNtBb_6server14MCPToolHandler6handle0s0_0Bd_
FN:354,_RNCNCNvXsL_NtNtCsbRuuH6jbcRQ_13rust_jira_mcp3mcp5toolsNtB9_14AddCommentToolNtNtBb_6server14MCPToolHandler6handle0s1_0Bd_
FN:347,_RNCNCNvXsL_NtNtCsbRuuH6jbcRQ_13rust_jira_mcp3mcp5toolsNtB9_14AddCommentToolNtNtBb_6server14MCPToolHandler6handle0s_0Bd_
FN:395,_RNCNCNvXsM_NtNtCsbRuuH6jbcRQ_13rust_jira_mcp3mcp5toolsNtB9_18GetTransitionsToolNtNtBb_6server14MCPToolHandler6handle00Bd_
FN:396,_RNCNCNvXsM_NtNtCsbRuuH6jbcRQ_13rust_jira_mcp3mcp5toolsNtB9_18GetTransitionsToolNtNtBb_6server14MCPToolHandler6handle0s_0Bd_
FN:448,_RNCNCNvXsN_NtNtCsbRuuH6jbcRQ_13rust_jira_mcp3mcp5toolsNtB9_19TransitionIssueToolNtNtBb_6server14MCPToolHandler6handle00Bd_
FN:455,_RNCNCNvXsN_NtNtCsbRuuH6jbcRQ_13rust_jira_mcp3mcp5toolsNtB9_19TransitionIssueToolNtNtBb_6server14MCPToolHandler6handle0s0_0Bd_
FN:456,_RNCNCNvXsN_NtNtCsbRuuH6jbcRQ_13rust_jira_mcp3mcp5toolsNtB9_19TransitionIssueToolNtNtBb_6server14MCPToolHandler6handle0s1_0Bd_
FN:460,_RNCNCNvXsN_NtNtCsbRuuH6jbcRQ_13rust_jira_mcp3mcp5toolsNtB9_19TransitionIssueToolNtNtBb_6server14MCPToolHandler6handle0s2_0Bd_
FN:449,_RNCNCNvXsN_NtNtCsbRuuH6jbcRQ_13rust_jira_mcp3mcp5toolsNtB9_19TransitionIssueToolNtNtBb_6server14MCPToolHandler6handle0s_0Bd_
FN:503,_RNCNCNvXsO_NtNtCsbRuuH6jbcRQ_13rust_jira_mcp3mcp5toolsNtB9_20GetProjectConfigToolNtNtBb_6server14MCPToolHandler6handle00Bd_
FN:516,_RNCNCNvXsO_NtNtCsbRuuH6jbcRQ_13rust_jira_mcp3mcp5toolsNtB9_20GetProjectConfigToolNtNtBb_6server14MCPToolHandler6handle0s1_0Bd_
FN:504,_RNCNCNvXsO_NtNtCsbRuuH6jbcRQ_13rust_jira_mcp3mcp5toolsNtB9_20GetProjectConfigToolNtNtBb_6server14MCPToolHandler6handle0s_0Bd_
FN:547,_RNCNCNvXsP_NtNtCsbRuuH6jbcRQ_13rust_jira_mcp3mcp5toolsNtB9_17GetIssueTypesToolNtNtBb_6server14MCPToolHandler6handle00Bd_
FN:548,_RNCNCNvXsP_NtNtCsbRuuH6jbcRQ_13rust_jira_mcp3mcp5toolsNtB9_17GetIssueTypesToolNtNtBb_6server14MCPToolHandler6handle0s_0Bd_
FN:604,_RNCNCNvXsQ_NtNtCsbRuuH6jbcRQ_13rust_jira_mcp3mcp5toolsNtB9_24GetIssueTypeMetadataToolNtNtBb_6server14MCPToolHandler6handle00Bd_
FN:605,_RNCNCNvXsQ_NtNtCsbRuuH6jbcRQ_13rust_jira_mcp3mcp5toolsNtB9_24GetIssueTypeMetadataToolNtNtBb_6server14MCPToolHandler6handle0s_0Bd_
FN:651,_RNCNCNvXsR_NtNtCsbRuuH6jbcRQ_13rust_jira_mcp3mcp5toolsNtB9_24GetProjectComponentsToolNtNtBb_6server14MCPToolHandler6handle00Bd_
FN:652,_RNCNCNvXsR_NtNtCsbRuuH6jbcRQ_13rust_jira_mcp3mcp5toolsNtB9_24GetProjectComponentsToolNtNtBb_6server14MCPToolHandler6handle0s_0Bd_
FN:782,_RNCNCNvXsT_NtNtCsbRuuH6jbcRQ_13rust_jira_mcp3mcp5toolsNtB9_19GetCustomFieldsToolNtNtBb_6server14MCPToolHandler6handle00Bd_
FN:790,_RNCNCNvXsT_NtNtCsbRuuH6jbcRQ_13rust_jira_mcp3mcp5toolsNtB9_19GetCustomFieldsToolNtNtBb_6server14MCPToolHandler6handle0s0_0Bd_
FN:791,_RNCNCNvXsT_NtNtCsbRuuH6jbcRQ_13rust_jira_mcp3mcp5toolsNtB9_19GetCustomFieldsToolNtNtBb_6server14MCPToolHandler6handle0s1_0Bd_
FN:786,_RNCNCNvXsT_NtNtCsbRuuH6jbcRQ_13rust_jira_mcp3mcp5toolsNtB9_19GetCustomFieldsToolNtNtBb_6server14MCPToolHandler6handle0s_0Bd_
FN:837,_RNCNCNvXsU_NtNtCsbRuuH6jbcRQ_13rust_jira_mcp3mcp5toolsNtB9_22GetProjectMetadataToolNtNtBb_6server14MCPToolHandler6handle00Bd_
FN:853,_RNCNCNvXsU_NtNtCsbRuuH6jbcRQ_13rust_jira_mcp3mcp5toolsNtB9_22GetProjectMetadataToolNtNtBb_6server14MCPToolHandler6handle0s1_0Bd_
FN:838,_RNCNCNvXsU_NtNtCsbRuuH6jbcRQ_13rust_jira_mcp3mcp5toolsNtB9_22GetProjectMetadataToolNtNtBb_6server14MCPToolHandler6handle0s_0Bd_
FN:886,_RNCNCNvXsV_NtNtCsbRuuH6jbcRQ_13rust_jira_mcp3mcp5toolsNtB9_20BulkUpdateIssuesToolNtNtBb_6server14MCPToolHandler6handle00Bd_
FN:893,_RNCNCNvXsV_NtNtCsbRuuH6jbcRQ_13rust_jira_mcp3mcp5toolsNtB9_20BulkUpdateIssuesToolNtNtBb_6server14MCPToolHandler6handle0s0_0Bd_
FN:907,_RNCNCNvXsV_NtNtCsbRuuH6jbcRQ_13rust_jira_mcp3mcp5toolsNtB9_20BulkUpdateIssuesToolNtNtBb_6server14MCPToolHandler6handle0s1_0Bd_
FN:938,_RNCNCNvXsV_NtNtCsbRuuH6jbcRQ_13rust_jira_mcp3mcp5toolsNtB9_20BulkUpdateIssuesToolNtNtBb_6server14MCPToolHandler6handle0s3_0Bd_
FN:887,_RNCNCNvXsV_NtNtCsbRuuH6jbcRQ_13rust_jira_mcp3mcp5toolsNtB9_20BulkUpdateIssuesToolNtNtBb_6server14MCPToolHandler6handle0s_0Bd_
FN:975,_RNCNCNvXsW_NtNtCsbRuuH6jbcRQ_13rust_jira_mcp3mcp5toolsNtB9_24BulkTransitionIssuesToolNtNtBb_6server14MCPToolHandler6handle00Bd_
FN:984,_RNCNCNvXsW_NtNtCsbRuuH6jbcRQ_13rust_jira_mcp3mcp5toolsNtB9_24BulkTransitionIssuesToolNtNtBb_6server14MCPToolHandler6handle0s0_0Bd_
FN:985,_RNCNCNvXsW_NtNtCsbRuuH6jbcRQ_13rust_jira_mcp3mcp5toolsNtB9_24BulkTransitionIssuesToolNtNtBb_6server14MCPToolHandler6handle0s1_0Bd_
FN:989,_RNCNCNvXsW_NtNtCsbRuuH6jbcRQ_13rust_jira_mcp3mcp5toolsNtB9_24BulkTransitionIssuesToolNtNtBb_6server14MCPToolHandler6handle0s2_0Bd_
FN:1001,_RNCNCNvXsW_NtNtCsbRuuH6jbcRQ_13rust_jira_mcp3mcp5toolsNtB9_24BulkTransitionIssuesToolNtNtBb_6server14MCPToolHandler6handle0s3_0Bd_
FN:1041,_RNCNCNvXsW_NtNtCsbRuuH6jbcRQ_13rust_jira_mcp3mcp5toolsNtB9_24BulkTransitionIssuesToolNtNtBb_6server14MCPToolHandler6handle0s5_0Bd_
FN:976,_RNCNCNvXsW_NtNtCsbRuuH6jbcRQ_13rust_jira_mcp3mcp5toolsNtB9_24BulkTransitionIssuesToolNtNtBb_6server14MCPToolHandler6handle0s_0Bd_
FN:1078,_RNCNCNvXsX_NtNtCsbRuuH6jbcRQ_13rust_jira_mcp3mcp5toolsNtB9_19BulkAddCommentsToolNtNtBb_6server14MCPToolHandler6handle00Bd_
FN:1087,_RNCNCNvXsX_NtNtCsbRuuH6jbcRQ_13rust_jira_mcp3mcp5toolsNtB9_19BulkAddCommentsToolNtNtBb_6server14MCPToolHandler6handle0s0_0Bd_
FN:1088,_RNCNCNvXsX_NtNtCsbRuuH6jbcRQ_13rust_jira_mcp3mcp5toolsNtB9_19BulkAddCommentsToolNtNtBb_6server14MCPToolHandler6handle0s1_0Bd_
FN:1102,_RNCNCNvXsX_NtNtCsbRuuH6jbcRQ_13rust_jira_mcp3mcp5toolsNtB9_19BulkAddCommentsToolNtNtBb_6server14MCPToolHandler6handle0s2_0Bd_
FN:1133,_RNCNCNvXsX_NtNtCsbRuuH6jbcRQ_13rust_jira_mcp3mcp5toolsNtB9_19BulkAddCommentsToolNtNtBb_6server14MCPToolHandler6handle0s4_0Bd_
FN:1079,_RNCNCNvXsX_NtNtCsbRuuH6jbcRQ_13rust_jira_mcp3mcp5toolsNtB9_19BulkAddCommentsToolNtNtBb_6server14MCPToolHandler6handle0s_0Bd_
FN:1170,_RNCNCNvXsY_NtNtCsbRuuH6jbcRQ_13rust_jira_mcp3mcp5toolsNtB9_23MixedBulkOperationsToolNtNtBb_6server14MCPToolHandler6handle00Bd_
FN:1189,_RNCNCNvXsY_NtNtCsbRuuH6jbcRQ_13rust_jira_mcp3mcp5toolsNtB9_23MixedBulkOperationsToolNtNtBb_6server14MCPToolHandler6handle0s0_0Bd_
FN:1190,_RNCNCNvXsY_NtNtCsbRuuH6jbcRQ_13rust_jira_mcp3mcp5toolsNtB9_23MixedBulkOperationsToolNtNtBb_6server14MCPToolHandler6handle0s1_0Bd_
FN:1199,_RNCNCNvXsY_NtNtCsbRuuH6jbcRQ_13rust_jira_mcp3mcp5toolsNtB9_23MixedBulkOperationsToolNtNtBb_6server14MCPToolHandler6handle0s2_0Bd_
FN:1200,_RNCNCNvXsY_NtNtCsbRuuH6jbcRQ_13rust_jira_mcp3mcp5toolsNtB9_23MixedBulkOperationsToolNtNtBb_6server14MCPToolHandler6handle0s3_0Bd_
FN:1220,_RNCNCNvXsY_NtNtCsbRuuH6jbcRQ_13rust_jira_mcp3mcp5toolsNtB9_23MixedBulkOperationsToolNtNtBb_6server14MCPToolHandler6handle0s4_0Bd_
FN:1259,_RNCNCNvXsY_NtNtCsbRuuH6jbcRQ_13rust_jira_mcp3mcp5toolsNtB9_23MixedBulkOperationsToolNtNtBb_6server14MCPToolHandler6handle0s6_0Bd_
FN:1171,_RNCNCNvXsY_NtNtCsbRuuH6jbcRQ_13rust_jira_mcp3mcp5toolsNtB9_23MixedBulkOperationsToolNtNtBb_6server14MCPToolHandler6handle0s_0Bd_
FN:25,_RNvMNtNtCsbRuuH6jbcRQ_13rust_jira_mcp3mcp5toolsNtB2_12TestAuthTool3new
FN:133,_RNvMs0_NtNtCsbRuuH6jbcRQ_13rust_jira_mcp3mcp5toolsNtB5_15CreateIssueTool3new
FN:172,_RNvMs1_NtNtCsbRuuH6jbcRQ_13rust_jira_mcp3mcp5toolsNtB5_15UpdateIssueTool3new
FN:218,_RNvMs2_NtNtCsbRuuH6jbcRQ_13rust_jira_mcp3mcp5toolsNtB5_12GetIssueTool3new
FN:280,_RNvMs3_NtNtCsbRuuH6jbcRQ_13rust_jira_mcp3mcp5toolsNtB5_15GetCommentsTool3new
FN:334,_RNvMs4_NtNtCsbRuuH6jbcRQ_13rust_jira_mcp3mcp5toolsNtB5_14AddCommentTool3new
FN:383,_RNvMs5_NtNtCsbRuuH6jbcRQ_13rust_jira_mcp3mcp5toolsNtB5_18GetTransitionsTool3new
FN:436,_RNvMs6_NtNtCsbRuuH6jbcRQ_13rust_jira_mcp3mcp5toolsNtB5_19TransitionIssueTool3new
FN:491,_RNvMs7_NtNtCsbRuuH6jbcRQ_13rust_jira_mcp3mcp5toolsNtB5_20GetProjectConfigTool3new
FN:535,_RNvMs8_NtNtCsbRuuH6jbcRQ_13rust_jira_mcp3mcp5toolsNtB5_17GetIssueTypesTool3new
FN:592,_RNvMs9_NtNtCsbRuuH6jbcRQ_13rust_jira_mcp3mcp5toolsNtB5_24GetIssueTypeMetadataTool3new
FN:2264,_RNvMsA_NtNtCsbRuuH6jbcRQ_13rust_jira_mcp3mcp5toolsNtB5_15DeleteLabelTool3new
FN:2302,_RNvMsB_NtNtCsbRuuH6jbcRQ_13rust_jira_mcp3mcp5toolsNtB5_19CreateComponentTool3new
FN:2366,_RNvMsC_NtNtCsbRuuH6jbcRQ_13rust_jira_mcp3mcp5toolsNtB5_19UpdateComponentTool3new
FN:2429,_RNvMsD_NtNtCsbRuuH6jbcRQ_13rust_jira_mcp3mcp5toolsNtB5_19DeleteComponentTool3new
FN:2470,_RNvMsE_NtNtCsbRuuH6jbcRQ_13rust_jira_mcp3mcp5toolsNtB5_14CloneIssueTool3new
FN:62,_RNvMs_NtNtCsbRuuH6jbcRQ_13rust_jira_mcp3mcp5toolsNtB4_16SearchIssuesTool3new
FN:639,_RNvMsa_NtNtCsbRuuH6jbcRQ_13rust_jira_mcp3mcp5toolsNtB5_24GetProjectComponentsTool3new
FN:693,_RNvMsb_NtNtCsbRuuH6jbcRQ_13rust_jira_mcp3mcp5toolsNtB5_28GetPrioritiesAndStatusesTool3new
FN:760,_RNvMsc_NtNtCsbRuuH6jbcRQ_13rust_jira_mcp3mcp5toolsNtB5_19GetCustomFieldsTool3new
FN:825,_RNvMsd_NtNtCsbRuuH6jbcRQ_13rust_jira_mcp3mcp5toolsNtB5_22GetProjectMetadataTool3new
FN:874,_RNvMse_NtNtCsbRuuH6jbcRQ_13rust_jira_mcp3mcp5toolsNtB5_20BulkUpdateIssuesTool3new
FN:963,_RNvMsf_NtNtCsbRuuH6jbcRQ_13rust_jira_mcp3mcp5toolsNtB5_24BulkTransitionIssuesTool3new
FN:1066,_RNvMsg_NtNtCsbRuuH6jbcRQ_13rust_jira_mcp3mcp5toolsNtB5_19BulkAddCommentsTool3new
FN:1158,_RNvMsh_NtNtCsbRuuH6jbcRQ_13rust_jira_mcp3mcp5toolsNtB5_23MixedBulkOperationsTool3new
FN:1292,_RNvMsi_NtNtCsbRuuH6jbcRQ_13rust_jira_mcp3mcp5toolsNtB5_16GetLinkTypesTool3new
FN:1339,_RNvMsj_NtNtCsbRuuH6jbcRQ_13rust_jira_mcp3mcp5toolsNtB5_17GetIssueLinksTool3new
FN:1399,_RNvMsk_NtNtCsbRuuH6jbcRQ_13rust_jira_mcp3mcp5toolsNtB5_19CreateIssueLinkTool3new
FN:1461,_RNvMsl_NtNtCsbRuuH6jbcRQ_13rust_jira_mcp3mcp5toolsNtB5_19DeleteIssueLinkTool3new
FN:1502,_RNvMsm_NtNtCsbRuuH6jbcRQ_13rust_jira_mcp3mcp5toolsNtB5_23GetIssueAttachmentsTool3new
FN:1559,_RNvMsn_NtNtCsbRuuH6jbcRQ_13rust_jira_mcp3mcp5toolsNtB5_20UploadAttachmentTool3new
FN:1637,_RNvMso_NtNtCsbRuuH6jbcRQ_13rust_jira_mcp3mcp5toolsNtB5_20DeleteAttachmentTool3new
FN:1676,_RNvMsp_NtNtCsbRuuH6jbcRQ_13rust_jira_mcp3mcp5toolsNtB5_22DownloadAttachmentTool3new
FN:1723,_RNvMsq_NtNtCsbRuuH6jbcRQ_13rust_jira_mcp3mcp5toolsNtB5_20GetIssueWorkLogsTool3new
FN:1789,_RNvMsr_NtNtCsbRuuH6jbcRQ_13rust_jira_mcp3mcp5toolsNtB5_14AddWorkLogTool3new
FN:1854,_RNvMss_NtNtCsbRuuH6jbcRQ_13rust_jira_mcp3mcp5toolsNtB5_17UpdateWorkLogTool3new
FN:1923,_RNvMst_NtNtCsbRuuH6jbcRQ_13rust_jira_mcp3mcp5toolsNtB5_17DeleteWorkLogTool3new
FN:1972,_RNvMsu_NtNtCsbRuuH6jbcRQ_13rust_jira_mcp3mcp5toolsNtB5_20GetIssueWatchersTool3new
FN:2030,_RNvMsv_NtNtCsbRuuH6jbcRQ_13rust_jira_mcp3mcp5toolsNtB5_19AddIssueWatcherTool3new
FN:2077,_RNvMsw_NtNtCsbRuuH6jbcRQ_13rust_jira_mcp3mcp5toolsNtB5_22RemoveIssueWatcherTool3new
FN:2128,_RNvMsx_NtNtCsbRuuH6jbcRQ_13rust_jira_mcp3mcp5toolsNtB5_13GetLabelsTool3new
FN:2168,_RNvMsy_NtNtCsbRuuH6jbcRQ_13rust_jira_mcp3mcp5toolsNtB5_15CreateLabelTool3new
FN:2211,_RNvMsz_NtNtCsbRuuH6jbcRQ_13rust_jira_mcp3mcp5toolsNtB5_15UpdateLabelTool3new
FN:1348,_RNvXs10_NtNtCsbRuuH6jbcRQ_13rust_jira_mcp3mcp5toolsNtB6_17GetIssueLinksToolNtNtB8_6server14MCPToolHandler6handle
FN:1408,_RNvXs11_NtNtCsbRuuH6jbcRQ_13rust_jira_mcp3mcp5toolsNtB6_19CreateIssueLinkToolNtNtB8_6server14MCPToolHandler6handle
FN:1470,_RNvXs12_NtNtCsbRuuH6jbcRQ_13rust_jira_mcp3mcp5toolsNtB6_19DeleteIssueLinkToolNtNtB8_6server14MCPToolHandler6handle
FN:1511,_RNvXs13_NtNtCsbRuuH6jbcRQ_13rust_jira_mcp3mcp5toolsNtB6_23GetIssueAttachmentsToolNtNtB8_6server14MCPToolHandler6handle
FN:1568,_RNvXs14_NtNtCsbRuuH6jbcRQ_13rust_jira_mcp3mcp5toolsNtB6_20UploadAttachmentToolNtNtB8_6server14MCPToolHandler6handle
FN:1646,_RNvXs15_NtNtCsbRuuH6jbcRQ_13rust_jira_mcp3mcp5toolsNtB6_20DeleteAttachmentToolNtNtB8_6server14MCPToolHandler6handle
FN:1685,_RNvXs16_NtNtCsbRuuH6jbcRQ_13rust_jira_mcp3mcp5toolsNtB6_22DownloadAttachmentToolNtNtB8_6server14MCPToolHandler6handle
FN:1732,_RNvXs17_NtNtCsbRuuH6jbcRQ_13rust_jira_mcp3mcp5toolsNtB6_20GetIssueWorkLogsToolNtNtB8_6server14MCPToolHandler6handle
FN:1798,_RNvXs18_NtNtCsbRuuH6jbcRQ_13rust_jira_mcp3mcp5toolsNtB6_14AddWorkLogToolNtNtB8_6server14MCPToolHandler6handle
FN:1863,_RNvXs19_NtNtCsbRuuH6jbcRQ_13rust_jira_mcp3mcp5toolsNtB6_17UpdateWorkLogToolNtNtB8_6server14MCPToolHandler6handle
FN:1932,_RNvXs1a_NtNtCsbRuuH6jbcRQ_13rust_jira_mcp3mcp5toolsNtB6_17DeleteWorkLogToolNtNtB8_6server14MCPToolHandler6handle
FN:1981,_RNvXs1b_NtNtCsbRuuH6jbcRQ_13rust_jira_mcp3mcp5toolsNtB6_20GetIssueWatchersToolNtNtB8_6server14MCPToolHandler6handle
FN:2039,_RNvXs1c_NtNtCsbRuuH6jbcRQ_13rust_jira_mcp3mcp5toolsNtB6_19AddIssueWatcherToolNtNtB8_6server14MCPToolHandler6handle
FN:2086,_RNvXs1d_NtNtCsbRuuH6jbcRQ_13rust_jira_mcp3mcp5toolsNtB6_22RemoveIssueWatcherToolNtNtB8_6server14MCPToolHandler6handle
FN:2137,_RNvXs1e_NtNtCsbRuuH6jbcRQ_13rust_jira_mcp3mcp5toolsNtB6_13GetLabelsToolNtNtB8_6server14MCPToolHandler6handle
FN:2177,_RNvXs1f_NtNtCsbRuuH6jbcRQ_13rust_jira_mcp3mcp5toolsNtB6_15CreateLabelToolNtNtB8_6server14MCPToolHandler6handle
FN:2220,_RNvXs1g_NtNtCsbRuuH6jbcRQ_13rust_jira_mcp3mcp5toolsNtB6_15UpdateLabelToolNtNtB8_6server14MCPToolHandler6handle
FN:2273,_RNvXs1h_NtNtCsbRuuH6jbcRQ_13rust_jira_mcp3mcp5toolsNtB6_15DeleteLabelToolNtNtB8_6server14MCPToolHandler6handle
FN:2311,_RNvXs1i_NtNtCsbRuuH6jbcRQ_13rust_jira_mcp3mcp5toolsNtB6_19CreateComponentToolNtNtB8_6server14MCPToolHandler6handle
FN:2375,_RNvXs1j_NtNtCsbRuuH6jbcRQ_13rust_jira_mcp3mcp5toolsNtB6_19UpdateComponentToolNtNtB8_6server14MCPToolHandler6handle
FN:2438,_RNvXs1k_NtNtCsbRuuH6jbcRQ_13rust_jira_mcp3mcp5toolsNtB6_19DeleteComponentToolNtNtB8_6server14MCPToolHandler6handle
FN:2479,_RNvXs1l_NtNtCsbRuuH6jbcRQ_13rust_jira_mcp3mcp5toolsNtB6_14CloneIssueToolNtNtB8_6server14MCPToolHandler6handle
FN:32,_RNvXsF_NtNtCsbRuuH6jbcRQ_13rust_jira_mcp3mcp5toolsNtB5_12TestAuthToolNtNtB7_6server14MCPToolHandler6handle
FN:71,_RNvXsG_NtNtCsbRuuH6jbcRQ_13rust_jira_mcp3mcp5toolsNtB5_16SearchIssuesToolNtNtB7_6server14MCPToolHandler6handle
FN:142,_RNvXsH_NtNtCsbRuuH6jbcRQ_13rust_jira_mcp3mcp5toolsNtB5_15CreateIssueToolNtNtB7_6server14MCPToolHandler6handle
FN:181,_RNvXsI_NtNtCsbRuuH6jbcRQ_13rust_jira_mcp3mcp5toolsNtB5_15UpdateIssueToolNtNtB7_6server14MCPToolHandler6handle
FN:227,_RNvXsJ_NtNtCsbRuuH6jbcRQ_13rust_jira_mcp3mcp5toolsNtB5_12GetIssueToolNtNtB7_6server14MCPToolHandler6handle
FN:289,_RNvXsK_NtNtCsbRuuH6jbcRQ_13rust_jira_mcp3mcp5toolsNtB5_15GetCommentsToolNtNtB7_6server14MCPToolHandler6handle
FN:343,_RNvXsL_NtNtCsbRuuH6jbcRQ_13rust_jira_mcp3mcp5toolsNtB5_14AddCommentToolNtNtB7_6server14MCPToolHandler6handle
FN:392,_RNvXsM_NtNtCsbRuuH6jbcRQ_13rust_jira_mcp3mcp5toolsNtB5_18GetTransitionsToolNtNtB7_6server14MCPToolHandler6handle
FN:445,_RNvXsN_NtNtCsbRuuH6jbcRQ_13rust_jira_mcp3mcp5toolsNtB5_19TransitionIssueToolNtNtB7_6server14MCPToolHandler6handle
FN:500,_RNvXsO_NtNtCsbRuuH6jbcRQ_13rust_jira_mcp3mcp5toolsNtB5_20GetProjectConfigToolNtNtB7_6server14MCPToolHandler6handle
FN:544,_RNvXsP_NtNtCsbRuuH6jbcRQ_13rust_jira_mcp3mcp5toolsNtB5_17GetIssueTypesToolNtNtB7_6server14MCPToolHandler6handle
FN:601,_RNvXsQ_NtNtCsbRuuH6jbcRQ_13rust_jira_mcp3mcp5toolsNtB5_24GetIssueTypeMetadataToolNtNtB7_6server14MCPToolHandler6handle
FN:648,_RNvXsR_NtNtCsbRuuH6jbcRQ_13rust_jira_mcp3mcp5toolsNtB5_24GetProjectComponentsToolNtNtB7_6server14MCPToolHandler6handle
FN:702,_RNvXsS_NtNtCsbRuuH6jbcRQ_13rust_jira_mcp3mcp5toolsNtB5_28GetPrioritiesAndStatusesToolNtNtB7_6server14MCPToolHandler6handle
FN:769,_RNvXsT_NtNtCsbRuuH6jbcRQ_13rust_jira_mcp3mcp5toolsNtB5_19GetCustomFieldsToolNtNtB7_6server14MCPToolHandler6handle
FN:834,_RNvXsU_NtNtCsbRuuH6jbcRQ_13rust_jira_mcp3mcp5toolsNtB5_22GetProjectMetadataToolNtNtB7_6server14MCPToolHandler6handle
FN:883,_RNvXsV_NtNtCsbRuuH6jbcRQ_13rust_jira_mcp3mcp5toolsNtB5_20BulkUpdateIssuesToolNtNtB7_6server14MCPToolHandler6handle
FN:972,_RNvXsW_NtNtCsbRuuH6jbcRQ_13rust_jira_mcp3mcp5toolsNtB5_24BulkTransitionIssuesToolNtNtB7_6server14MCPToolHandler6handle
FN:1075,_RNvXsX_NtNtCsbRuuH6jbcRQ_13rust_jira_mcp3mcp5toolsNtB5_19BulkAddCommentsToolNtNtB7_6server14MCPToolHandler6handle
FN:1167,_RNvXsY_NtNtCsbRuuH6jbcRQ_13rust_jira_mcp3mcp5toolsNtB5_23MixedBulkOperationsToolNtNtB7_6server14MCPToolHandler6handle
FN:1301,_RNvXsZ_NtNtCsbRuuH6jbcRQ_13rust_jira_mcp3mcp5toolsNtB5_16GetLinkTypesToolNtNtB7_6server14MCPToolHandler6handle
FN:1351,_RNCNCNvXs10_NtNtCs6CcTQqNWjGP_13rust_jira_mcp3mcp5toolsNtBa_17GetIssueLinksToolNtNtBc_6server14MCPToolHandler6handle00Be_
FN:1366,_RNCNCNvXs10_NtNtCs6CcTQqNWjGP_13rust_jira_mcp3mcp5toolsNtBa_17GetIssueLinksToolNtNtBc_6server14MCPToolHandler6handle0s0_0Be_
FN:1370,_RNCNCNvXs10_NtNtCs6CcTQqNWjGP_13rust_jira_mcp3mcp5toolsNtBa_17GetIssueLinksToolNtNtBc_6server14MCPToolHandler6handle0s1_0Be_
FN:1352,_RNCNCNvXs10_NtNtCs6CcTQqNWjGP_13rust_jira_mcp3mcp5toolsNtBa_17GetIssueLinksToolNtNtBc_6server14MCPToolHandler6handle0s_0Be_
FN:1411,_RNCNCNvXs11_NtNtCs6CcTQqNWjGP_13rust_jira_mcp3mcp5toolsNtBa_19CreateIssueLinkToolNtNtBc_6server14MCPToolHandler6handle00Be_
FN:1418,_RNCNCNvXs11_NtNtCs6CcTQqNWjGP_13rust_jira_mcp3mcp5toolsNtBa_19CreateIssueLinkToolNtNtBc_6server14MCPToolHandler6handle0s0_0Be_
FN:1419,_RNCNCNvXs11_NtNtCs6CcTQqNWjGP_13rust_jira_mcp3mcp5toolsNtBa_19CreateIssueLinkToolNtNtBc_6server14MCPToolHandler6handle0s1_0Be_
FN:1425,_RNCNCNvXs11_NtNtCs6CcTQqNWjGP_13rust_jira_mcp3mcp5toolsNtBa_19CreateIssueLinkToolNtNtBc_6server14MCPToolHandler6handle0s2_0Be_
FN:1426,_RNCNCNvXs11_NtNtCs6CcTQqNWjGP_13rust_jira_mcp3mcp5toolsNtBa_19CreateIssueLinkToolNtNtBc_6server14MCPToolHandler6handle0s3_0Be_
FN:1430,_RNCNCNvXs11_NtNtCs6CcTQqNWjGP_13rust_jira_mcp3mcp5toolsNtBa_19CreateIssueLinkToolNtNtBc_6server14MCPToolHandler6handle0s4_0Be_
FN:1412,_RNCNCNvXs11_NtNtCs6CcTQqNWjGP_13rust_jira_mcp3mcp5toolsNtBa_19CreateIssueLinkToolNtNtBc_6server14MCPToolHandler6handle0s_0Be_
FN:1473,_RNCNCNvXs12_NtNtCs6CcTQqNWjGP_13rust_jira_mcp3mcp5toolsNtBa_19DeleteIssueLinkToolNtNtBc_6server14MCPToolHandler6handle00Be_
FN:1474,_RNCNCNvXs12_NtNtCs6CcTQqNWjGP_13rust_jira_mcp3mcp5toolsNtBa_19DeleteIssueLinkToolNtNtBc_6server14MCPToolHandler6handle0s_0Be_
FN:1514,_RNCNCNvXs13_NtNtCs6CcTQqNWjGP_13rust_jira_mcp3mcp5toolsNtBa_23GetIssueAttachmentsToolNtNtBc_6server14MCPToolHandler6handle00Be_
FN:1515,_RNCNCNvXs13_NtNtCs6CcTQqNWjGP_13rust_jira_mcp3mcp5toolsNtBa_23GetIssueAttachmentsToolNtNtBc_6server14MCPToolHandler6handle0s_0Be_
FN:1571,_RNCNCNvXs14_NtNtCs6CcTQqNWjGP_13rust_jira_mcp3mcp5toolsNtBa_20UploadAttachmentToolNtNtBc_6server14MCPToolHandler6handle00Be_
FN:1578,_RNCNCNvXs14_NtNtCs6CcTQqNWjGP_13rust_jira_mcp3mcp5toolsNtBa_20UploadAttachmentToolNtNtBc_6server14MCPToolHandler6handle0s0_0Be_
FN:1579,_RNCNCNvXs14_NtNtCs6CcTQqNWjGP_13rust_jira_mcp3mcp5toolsNtBa_20UploadAttachmentToolNtNtBc_6server14MCPToolHandler6handle0s1_0Be_
FN:1585,_RNCNCNvXs14_NtNtCs6CcTQqNWjGP_13rust_jira_mcp3mcp5toolsNtBa_20UploadAttachmentToolNtNtBc_6server14MCPToolHandler6handle0s2_0Be_
FN:1586,_RNCNCNvXs14_NtNtCs6CcTQqNWjGP_13rust_jira_mcp3mcp5toolsNtBa_20UploadAttachmentToolNtNtBc_6server14MCPToolHandler6handle0s3_0Be_
FN:1592,_RNCNCNvXs14_NtNtCs6CcTQqNWjGP_13rust_jira_mcp3mcp5toolsNtBa_20UploadAttachmentToolNtNtBc_6server14MCPToolHandler6handle0s4_0Be_
FN:1595,_RNCNCNvXs14_NtNtCs6CcTQqNWjGP_13rust_jira_mcp3mcp5toolsNtBa_20UploadAttachmentToolNtNtBc_6server14MCPToolHandler6handle0s5_0Be_
FN:1572,_RNCNCNvXs14_NtNtCs6CcTQqNWjGP_13rust_jira_mcp3mcp5toolsNtBa_20UploadAttachmentToolNtNtBc_6server14MCPToolHandler6handle0s_0Be_
FN:1649,_RNCNCNvXs15_NtNtCs6CcTQqNWjGP_13rust_jira_mcp3mcp5toolsNtBa_20DeleteAttachmentToolNtNtBc_6server14MCPToolHandler6handle00Be_
FN:1650,_RNCNCNvXs15_NtNtCs6CcTQqNWjGP_13rust_jira_mcp3mcp5toolsNtBa_20DeleteAttachmentToolNtNtBc_6server14MCPToolHandler6handle0s_0Be_
FN:1688,_RNCNCNvXs16_NtNtCs6CcTQqNWjGP_13rust_jira_mcp3mcp5toolsNtBa_22DownloadAttachmentToolNtNtBc_6server14MCPToolHandler6handle00Be_
FN:1689,_RNCNCNvXs16_NtNtCs6CcTQqNWjGP_13rust_jira_mcp3mcp5toolsNtBa_22DownloadAttachmentToolNtNtBc_6server14MCPToolHandler6handle0s_0Be_
FN:1735,_RNCNCNvXs17_NtNtCs6CcTQqNWjGP_13rust_jira_mcp3mcp5toolsNtBa_20GetIssueWorkLogsToolNtNtBc_6server14MCPToolHandler6handle00Be_
FN:1736,_RNCNCNvXs17_NtNtCs6CcTQqNWjGP_13rust_jira_mcp3mcp5toolsNtBa_20GetIssueWorkLogsToolNtNtBc_6server14MCPToolHandler6handle0s_0Be_
FN:1801,_RNCNCNvXs18_NtNtCs6CcTQqNWjGP_13rust_jira_mcp3mcp5toolsNtBa_14AddWorkLogToolNtNtBc_6server14MCPToolHandler6handle00Be_
FN:1808,_RNCNCNvXs18_NtNtCs6CcTQqNWjGP_13rust_jira_mcp3mcp5toolsNtBa_14AddWorkLogToolNtNtBc_6server14MCPToolHandler6handle0s0_0Be_
FN:1809,_RNCNCNvXs18_NtNtCs6CcTQqNWjGP_13rust_jira_mcp3mcp5toolsNtBa_14AddWorkLogToolNtNtBc_6server14MCPToolHandler6handle0s1_0Be_
FN:1813,_RNCNCNvXs18_NtNtCs6CcTQqNWjGP_13rust_jira_mcp3mcp5toolsNtBa_14AddWorkLogToolNtNtBc_6server14MCPToolHandler6handle0s2_0Be_
FN:1814,_RNCNCNvXs18_NtNtCs6CcTQqNWjGP_13rust_jira_mcp3mcp5toolsNtBa_14AddWorkLogToolNtNtBc_6server14MCPToolHandler6handle0s3_0Be_
FN:1802,_RNCNCNvXs18_NtNtCs6CcTQqNWjGP_13rust_jira_mcp3mcp5toolsNtBa_14AddWorkLogToolNtNtBc_6server14MCPToolHandler6handle0s_0Be_
FN:1866,_RNCNCNvXs19_NtNtCs6CcTQqNWjGP_13rust_jira_mcp3mcp5toolsNtBa_17UpdateWorkLogToolNtNtBc_6server14MCPToolHandler6handle00Be_
FN:1873,_RNCNCNvXs19_NtNtCs6CcTQqNWjGP_13rust_jira_mcp3mcp5toolsNtBa_17UpdateWorkLogToolNtNtBc_6server14MCPToolHandler6handle0s0_0Be_
FN:1874,_RNCNCNvXs19_NtNtCs6CcTQqNWjGP_13rust_jira_mcp3mcp5toolsNtBa_17UpdateWorkLogToolNtNtBc_6server14MCPToolHandler6handle0s1_0Be_
FN:1878,_RNCNCNvXs19_NtNtCs6CcTQqNWjGP_13rust_jira_mcp3mcp5toolsNtBa_17UpdateWorkLogToolNtNtBc_6server14MCPToolHandler6handle0s2_0Be_
FN:1879,_RNCNCNvXs19_NtNtCs6CcTQqNWjGP_13rust_jira_mcp3mcp5toolsNtBa_17UpdateWorkLogToolNtNtBc_6server14MCPToolHandler6handle0s3_0Be_
FN:1880,_RNCNCNvXs19_NtNtCs6CcTQqNWjGP_13rust_jira_mcp3mcp5toolsNtBa_17UpdateWorkLogToolNtNtBc_6server14MCPToolHandler6handle0s4_0Be_
FN:1867,_RNCNCNvXs19_NtNtCs6CcTQqNWjGP_13rust_jira_mcp3mcp5toolsNtBa_17UpdateWorkLogToolNtNtBc_6server14MCPToolHandler6handle0s_0Be_
FN:1935,_RNCNCNvXs1a_NtNtCs6CcTQqNWjGP_13rust_jira_mcp3mcp5toolsNtBa_17DeleteWorkLogToolNtNtBc_6server14MCPToolHandler6handle00Be_
FN:1942,_RNCNCNvXs1a_NtNtCs6CcTQqNWjGP_13rust_jira_mcp3mcp5toolsNtBa_17DeleteWorkLogToolNtNtBc_6server14MCPToolHandler6handle0s0_0Be_
FN:1943,_RNCNCNvXs1a_NtNtCs6CcTQqNWjGP_13rust_jira_mcp3mcp5toolsNtBa_17DeleteWorkLogToolNtNtBc_6server14MCPToolHandler6handle0s1_0Be_
FN:1936,_RNCNCNvXs1a_NtNtCs6CcTQqNWjGP_13rust_jira_mcp3mcp5toolsNtBa_17DeleteWorkLogToolNtNtBc_6server14MCPToolHandler6handle0s_0Be_
FN:1984,_RNCNCNvXs1b_NtNtCs6CcTQqNWjGP_13rust_jira_mcp3mcp5toolsNtBa_20GetIssueWatchersToolNtNtBc_6server14MCPToolHandler6handle00Be_
FN:1985,_RNCNCNvXs1b_NtNtCs6CcTQqNWjGP_13rust_jira_mcp3mcp5toolsNtBa_20GetIssueWatchersToolNtNtBc_6server14MCPToolHandler6handle0s_0Be_
FN:2042,_RNCNCNvXs1c_NtNtCs6CcTQqNWjGP_13rust_jira_mcp3mcp5toolsNtBa_19AddIssueWatcherToolNtNtBc_6server14MCPToolHandler6handle00Be_
FN:2049,_RNCNCNvXs1c_NtNtCs6CcTQqNWjGP_13rust_jira_mcp3mcp5toolsNtBa_19AddIssueWatcherToolNtNtBc_6server14MCPToolHandler6handle0s0_0Be_
FN:2050,_RNCNCNvXs1c_NtNtCs6CcTQqNWjGP_13rust_jira_mcp3mcp5toolsNtBa_19AddIssueWatcherToolNtNtBc_6server14MCPToolHandler6handle0s1_0Be_
FN:2043,_RNCNCNvXs1c_NtNtCs6CcTQqNWjGP_13rust_jira_mcp3mcp5toolsNtBa_19AddIssueWatcherToolNtNtBc_6server14MCPToolHandler6handle0s_0Be_
FN:2089,_RNCNCNvXs1d_NtNtCs6CcTQqNWjGP_13rust_jira_mcp3mcp5toolsNtBa_22RemoveIssueWatcherToolNtNtBc_6server14MCPToolHandler6handle00Be_
FN:2096,_RNCNCNvXs1d_NtNtCs6CcTQqNWjGP_13rust_jira_mcp3mcp5toolsNtBa_22RemoveIssueWatcherToolNtNtBc_6server14MCPToolHandler6handle0s0_0Be_
FN:2097,_RNCNCNvXs1d_NtNtCs6CcTQqNWjGP_13rust_jira_mcp3mcp5toolsNtBa_22RemoveIssueWatcherToolNtNtBc_6server14MCPToolHandler6handle0s1_0Be_
FN:2090,_RNCNCNvXs1d_NtNtCs6CcTQqNWjGP_13rust_jira_mcp3mcp5toolsNtBa_22RemoveIssueWatcherToolNtNtBc_6server14MCPToolHandler6handle0s_0Be_
FN:2178,_RNCNCNvXs1f_NtNtCs6CcTQqNWjGP_13rust_jira_mcp3mcp5toolsNtBa_15CreateLabelToolNtNtBc_6server14MCPToolHandler6handle00Be_
FN:2178,_RNCNCNvXs1f_NtNtCs6CcTQqNWjGP_13rust_jira_mcp3mcp5toolsNtBa_15CreateLabelToolNtNtBc_6server14MCPToolHandler6handle0s_0Be_
FN:2223,_RNCNCNvXs1g_NtNtCs6CcTQqNWjGP_13rust_jira_mcp3mcp5toolsNtBa_15UpdateLabelToolNtNtBc_6server14MCPToolHandler6handle00Be_
FN:2230,_RNCNCNvXs1g_NtNtCs6CcTQqNWjGP_13rust_jira_mcp3mcp5toolsNtBa_15UpdateLabelToolNtNtBc_6server14MCPToolHandler6handle0s0_0Be_
FN:2231,_RNCNCNvXs1g_NtNtCs6CcTQqNWjGP_13rust_jira_mcp3mcp5toolsNtBa_15UpdateLabelToolNtNtBc_6server14MCPToolHandler6handle0s1_0Be_
FN:2224,_RNCNCNvXs1g_NtNtCs6CcTQqNWjGP_13rust_jira_mcp3mcp5toolsNtBa_15UpdateLabelToolNtNtBc_6server14MCPToolHandler6handle0s_0Be_
FN:2274,_RNCNCNvXs1h_NtNtCs6CcTQqNWjGP_13rust_jira_mcp3mcp5toolsNtBa_15DeleteLabelToolNtNtBc_6server14MCPToolHandler6handle00Be_
FN:2274,_RNCNCNvXs1h_NtNtCs6CcTQqNWjGP_13rust_jira_mcp3mcp5toolsNtBa_15DeleteLabelToolNtNtBc_6server14MCPToolHandler6handle0s_0Be_
FN:2312,_RNCNCNvXs1i_NtNtCs6CcTQqNWjGP_13rust_jira_mcp3mcp5toolsNtBa_19CreateComponentToolNtNtBc_6server14MCPToolHandler6handle00Be_
FN:2318,_RNCNCNvXs1i_NtNtCs6CcTQqNWjGP_13rust_jira_mcp3mcp5toolsNtBa_19CreateComponentToolNtNtBc_6server14MCPToolHandler6handle0s0_0Be_
FN:2319,_RNCNCNvXs1i_NtNtCs6CcTQqNWjGP_13rust_jira_mcp3mcp5toolsNtBa_19CreateComponentToolNtNtBc_6server14MCPToolHandler6handle0s1_0Be_
FN:2323,_RNCNCNvXs1i_NtNtCs6CcTQqNWjGP_13rust_jira_mcp3mcp5toolsNtBa_19CreateComponentToolNtNtBc_6server14MCPToolHandler6handle0s2_0Be_
FN:2324,_RNCNCNvXs1i_NtNtCs6CcTQqNWjGP_13rust_jira_mcp3mcp5toolsNtBa_19CreateComponentToolNtNtBc_6server14MCPToolHandler6handle0s3_0Be_
FN:2325,_RNCNCNvXs1i_NtNtCs6CcTQqNWjGP_13rust_jira_mcp3mcp5toolsNtBa_19CreateComponentToolNtNtBc_6server14MCPToolHandler6handle0s4_0Be_
FN:2312,_RNCNCNvXs1i_NtNtCs6CcTQqNWjGP_13rust_jira_mcp3mcp5toolsNtBa_19CreateComponentToolNtNtBc_6server14MCPToolHandler6handle0s_0Be_
FN:2378,_RNCNCNvXs1j_NtNtCs6CcTQqNWjGP_13rust_jira_mcp3mcp5toolsNtBa_19UpdateComponentToolNtNtBc_6server14MCPToolHandler6handle00Be_
FN:2383,_RNCNCNvXs1j_NtNtCs6CcTQqNWjGP_13rust_jira_mcp3mcp5toolsNtBa_19UpdateComponentToolNtNtBc_6server14MCPToolHandler6handle0s0_0Be_
FN:2384,_RNCNCNvXs1j_NtNtCs6CcTQqNWjGP_13rust_jira_mcp3mcp5toolsNtBa_19UpdateComponentToolNtNtBc_6server14MCPToolHandler6handle0s1_0Be_
FN:2385,_RNCNCNvXs1j_NtNtCs6CcTQqNWjGP_13rust_jira_mcp3mcp5toolsNtBa_19UpdateComponentToolNtNtBc_6server14MCPToolHandler6handle0s2_0Be_
FN:2386,_RNCNCNvXs1j_NtNtCs6CcTQqNWjGP_13rust_jira_mcp3mcp5toolsNtBa_19UpdateComponentToolNtNtBc_6server14MCPToolHandler6handle0s3_0Be_
FN:2379,_RNCNCNvXs1j_NtNtCs6CcTQqNWjGP_13rust_jira_mcp3mcp5toolsNtBa_19UpdateComponentToolNtNtBc_6server14MCPToolHandler6handle0s_0Be_
FN:2441,_RNCNCNvXs1k_NtNtCs6CcTQqNWjGP_13rust_jira_mcp3mcp5toolsNtBa_19DeleteComponentToolNtNtBc_6server14MCPToolHandler6handle00Be_
FN:2442,_RNCNCNvXs1k_NtNtCs6CcTQqNWjGP_13rust_jira_mcp3mcp5toolsNtBa_19DeleteComponentToolNtNtBc_6server14MCPToolHandler6handle0s_0Be_
FN:2482,_RNCNCNvXs1l_NtNtCs6CcTQqNWjGP_13rust_jira_mcp3mcp5toolsNtBa_14CloneIssueToolNtNtBc_6server14MCPToolHandler6handle00Be_
FN:2489,_RNCNCNvXs1l_NtNtCs6CcTQqNWjGP_13rust_jira_mcp3mcp5toolsNtBa_14CloneIssueToolNtNtBc_6server14MCPToolHandler6handle0s0_0Be_
FN:2490,_RNCNCNvXs1l_NtNtCs6CcTQqNWjGP_13rust_jira_mcp3mcp5toolsNtBa_14CloneIssueToolNtNtBc_6server14MCPToolHandler6handle0s1_0Be_
FN:2496,_RNCNCNvXs1l_NtNtCs6CcTQqNWjGP_13rust_jira_mcp3mcp5toolsNtBa_14CloneIssueToolNtNtBc_6server14MCPToolHandler6handle0s2_0Be_
FN:2497,_RNCNCNvXs1l_NtNtCs6CcTQqNWjGP_13rust_jira_mcp3mcp5toolsNtBa_14CloneIssueToolNtNtBc_6server14MCPToolHandler6handle0s3_0Be_
FN:2503,_RNCNCNvXs1l_NtNtCs6CcTQqNWjGP_13rust_jira_mcp3mcp5toolsNtBa_14CloneIssueToolNtNtBc_6server14MCPToolHandler6handle0s4_0Be_
FN:2504,_RNCNCNvXs1l_NtNtCs6CcTQqNWjGP_13rust_jira_mcp3mcp5toolsNtBa_14CloneIssueToolNtNtBc_6server14MCPToolHandler6handle0s5_0Be_
FN:2508,_RNCNCNvXs1l_NtNtCs6CcTQqNWjGP_13rust_jira_mcp3mcp5toolsNtBa_14CloneIssueToolNtNtBc_6server14MCPToolHandler6handle0s6_0Be_
FN:2483,_RNCNCNvXs1l_NtNtCs6CcTQqNWjGP_13rust_jira_mcp3mcp5toolsNtBa_14CloneIssueToolNtNtBc_6server14MCPToolHandler6handle0s_0Be_
FN:74,_RNCNCNvXsG_NtNtCs6CcTQqNWjGP_13rust_jira_mcp3mcp5toolsNtB9_16SearchIssuesToolNtNtBb_6server14MCPToolHandler6handle00Bd_
FN:80,_RNCNCNvXsG_NtNtCs6CcTQqNWjGP_13rust_jira_mcp3mcp5toolsNtB9_16SearchIssuesToolNtNtBb_6server14MCPToolHandler6handle0s0_0Bd_
FN:85,_RNCNCNvXsG_NtNtCs6CcTQqNWjGP_13rust_jira_mcp3mcp5toolsNtB9_16SearchIssuesToolNtNtBb_6server14MCPToolHandler6handle0s1_0Bd_
FN:111,_RNCNCNvXsG_NtNtCs6CcTQqNWjGP_13rust_jira_mcp3mcp5toolsNtB9_16SearchIssuesToolNtNtBb_6server14MCPToolHandler6handle0s3_0Bd_
FN:75,_RNCNCNvXsG_NtNtCs6CcTQqNWjGP_13rust_jira_mcp3mcp5toolsNtB9_16SearchIssuesToolNtNtBb_6server14MCPToolHandler6handle0s_0Bd_
FN:143,_RNCNCNvXsH_NtNtCs6CcTQqNWjGP_13rust_jira_mcp3mcp5toolsNtB9_15CreateIssueToolNtNtBb_6server14MCPToolHandler6handle00Bd_
FN:184,_RNCNCNvXsI_NtNtCs6CcTQqNWjGP_13rust_jira_mcp3mcp5toolsNtB9_15UpdateIssueToolNtNtBb_6server14MCPToolHandler6handle00Bd_
FN:189,_RNCNCNvXsI_NtNtCs6CcTQqNWjGP_13rust_jira_mcp3mcp5toolsNtB9_15UpdateIssueToolNtNtBb_6server14MCPToolHandler6handle0s0_0Bd_
FN:185,_RNCNCNvXsI_NtNtCs6CcTQqNWjGP_13rust_jira_mcp3mcp5toolsNtB9_15UpdateIssueToolNtNtBb_6server14MCPToolHandler6handle0s_0Bd_
FN:230,_RNCNCNvXsJ_NtNtCs6CcTQqNWjGP_13rust_jira_mcp3mcp5toolsNtB9_12GetIssueToolNtNtBb_6server14MCPToolHandler6handle00Bd_
FN:242,_RNCNCNvXsJ_NtNtCs6CcTQqNWjGP_13rust_jira_mcp3mcp5toolsNtB9_12GetIssueToolNtNtBb_6server14MCPToolHandler6handle0s0_0Bd_
FN:248,_RNCNCNvXsJ_NtNtCs6CcTQqNWjGP_13rust_jira_mcp3mcp5toolsNtB9_12GetIssueToolNtNtBb_6server14MCPToolHandler6handle0s1_0Bd_
FN:249,_RNCNCNvXsJ_NtNtCs6CcTQqNWjGP_13rust_jira_mcp3mcp5toolsNtB9_12GetIssueToolNtNtBb_6server14MCPToolHandler6handle0s2_0Bd_
FN:255,_RNCNCNvXsJ_NtNtCs6CcTQqNWjGP_13rust_jira_mcp3mcp5toolsNtB9_12GetIssueToolNtNtBb_6server14MCPToolHandler6handle0s3_0Bd_
FN:256,_RNCNCNvXsJ_NtNtCs6CcTQqNWjGP_13rust_jira_mcp3mcp5toolsNtB9_12GetIssueToolNtNtBb_6server14MCPToolHandler6handle0s4_0Bd_
FN:231,_RNCNCNvXsJ_NtNtCs6CcTQqNWjGP_13rust_jira_mcp3mcp5toolsNtB9_12GetIssueToolNtNtBb_6server14MCPToolHandler6handle0s_0Bd_
FN:292,_RNCNCNvXsK_NtNtCs6CcTQqNWjGP_13rust_jira_mcp3mcp5toolsNtB9_15GetCommentsToolNtNtBb_6server14MCPToolHandler6handle00Bd_
FN:293,_RNCNCNvXsK_NtNtCs6CcTQqNWjGP_13rust_jira_mcp3mcp5toolsNtB9_15GetCommentsToolNtNtBb_6server14MCPToolHandler6handle0s_0Bd_
FN:346,_RNCNCNvXsL_NtNtCs6CcTQqNWjGP_13rust_jira_mcp3mcp5toolsNtB9_14AddCommentToolNtNtBb_6server14MCPToolHandler6handle00Bd_
FN:353,_RNCNCNvXsL_NtNtCs6CcTQqNWjGP_13rust_jira_mcp3mcp5toolsNtB9_14AddCommentToolNtNtBb_6server14MCPToolHandler6handle0s0_0Bd_
FN:354,_RNCNCNvXsL_NtNtCs6CcTQqNWjGP_13rust_jira_mcp3mcp5toolsNtB9_14AddCommentToolNtNtBb_6server14MCPToolHandler6handle0s1_0Bd_
FN:347,_RNCNCNvXsL_NtNtCs6CcTQqNWjGP_13rust_jira_mcp3mcp5toolsNtB9_14AddCommentToolNtNtBb_6server14MCPToolHandler6handle0s_0Bd_
FN:395,_RNCNCNvXsM_NtNtCs6CcTQqNWjGP_13rust_jira_mcp3mcp5toolsNtB9_18GetTransitionsToolNtNtBb_6server14MCPToolHandler6handle00Bd_
FN:396,_RNCNCNvXsM_NtNtCs6CcTQqNWjGP_13rust_jira_mcp3mcp5toolsNtB9_18GetTransitionsToolNtNtBb_6server14MCPToolHandler6handle0s_0Bd_
FN:448,_RNCNCNvXsN_NtNtCs6CcTQqNWjGP_13rust_jira_mcp3mcp5toolsNtB9_19TransitionIssueToolNtNtBb_6server14MCPToolHandler6handle00Bd_
FN:455,_RNCNCNvXsN_NtNtCs6CcTQqNWjGP_13rust_jira_mcp3mcp5toolsNtB9_19TransitionIssueToolNtNtBb_6server14MCPToolHandler6handle0s0_0Bd_
FN:456,_RNCNCNvXsN_NtNtCs6CcTQqNWjGP_13rust_jira_mcp3mcp5toolsNtB9_19TransitionIssueToolNtNtBb_6server14MCPToolHandler6handle0s1_0Bd_
FN:460,_RNCNCNvXsN_NtNtCs6CcTQqNWjGP_13rust_jira_mcp3mcp5toolsNtB9_19TransitionIssueToolNtNtBb_6server14MCPToolHandler6handle0s2_0Bd_
FN:449,_RNCNCNvXsN_NtNtCs6CcTQqNWjGP_13rust_jira_mcp3mcp5toolsNtB9_19TransitionIssueToolNtNtBb_6server14MCPToolHandler6handle0s_0Bd_
FN:503,_RNCNCNvXsO_NtNtCs6CcTQqNWjGP_13rust_jira_mcp3mcp5toolsNtB9_20GetProjectConfigToolNtNtBb_6server14MCPToolHandler6handle00Bd_
FN:516,_RNCNCNvXsO_NtNtCs6CcTQqNWjGP_13rust_jira_mcp3mcp5toolsNtB9_20GetProjectConfigToolNtNtBb_6server14MCPToolHandler6handle0s1_0Bd_
FN:504,_RNCNCNvXsO_NtNtCs6CcTQqNWjGP_13rust_jira_mcp3mcp5toolsNtB9_20GetProjectConfigToolNtNtBb_6server14MCPToolHandler6handle0s_0Bd_
FN:547,_RNCNCNvXsP_NtNtCs6CcTQqNWjGP_13rust_jira_mcp3mcp5toolsNtB9_17GetIssueTypesToolNtNtBb_6server14MCPToolHandler6handle00Bd_
FN:548,_RNCNCNvXsP_NtNtCs6CcTQqNWjGP_13rust_jira_mcp3mcp5toolsNtB9_17GetIssueTypesToolNtNtBb_6server14MCPToolHandler6handle0s_0Bd_
FN:604,_RNCNCNvXsQ_NtNtCs6CcTQqNWjGP_13rust_jira_mcp3mcp5toolsNtB9_24GetIssueTypeMetadataToolNtNtBb_6server14MCPToolHandler6handle00Bd_
FN:605,_RNCNCNvXsQ_NtNtCs6CcTQqNWjGP_13rust_jira_mcp3mcp5toolsNtB9_24GetIssueTypeMetadataToolNtNtBb_6server14MCPToolHandler6handle0s_0Bd_
FN:651,_RNCNCNvXsR_NtNtCs6CcTQqNWjGP_13rust_jira_mcp3mcp5toolsNtB9_24GetProjectComponentsToolNtNtBb_6server14MCPToolHandler6handle00Bd_
FN:652,_RNCNCNvXsR_NtNtCs6CcTQqNWjGP_13rust_jira_mcp3mcp5toolsNtB9_24GetProjectComponentsToolNtNtBb_6server14MCPToolHandler6handle0s_0Bd_
FN:782,_RNCNCNvXsT_NtNtCs6CcTQqNWjGP_13rust_jira_mcp3mcp5toolsNtB9_19GetCustomFieldsToolNtNtBb_6server14MCPToolHandler6handle00Bd_
FN:790,_RNCNCNvXsT_NtNtCs6CcTQqNWjGP_13rust_jira_mcp3mcp5toolsNtB9_19GetCustomFieldsToolNtNtBb_6server14MCPToolHandler6handle0s0_0Bd_
FN:791,_RNCNCNvXsT_NtNtCs6CcTQqNWjGP_13rust_jira_mcp3mcp5toolsNtB9_19GetCustomFieldsToolNtNtBb_6server14MCPToolHandler6handle0s1_0Bd_
FN:786,_RNCNCNvXsT_NtNtCs6CcTQqNWjGP_13rust_jira_mcp3mcp5toolsNtB9_19GetCustomFieldsToolNtNtBb_6server14MCPToolHandler6handle0s_0Bd_
FN:837,_RNCNCNvXsU_NtNtCs6CcTQqNWjGP_13rust_jira_mcp3mcp5toolsNtB9_22GetProjectMetadataToolNtNtBb_6server14MCPToolHandler6handle00Bd_
FN:853,_RNCNCNvXsU_NtNtCs6CcTQqNWjGP_13rust_jira_mcp3mcp5toolsNtB9_22GetProjectMetadataToolNtNtBb_6server14MCPToolHandler6handle0s1_0Bd_
FN:838,_RNCNCNvXsU_NtNtCs6CcTQqNWjGP_13rust_jira_mcp3mcp5toolsNtB9_22GetProjectMetadataToolNtNtBb_6server14MCPToolHandler6handle0s_0Bd_
